---
triple:          'arm64-apple-darwin'
binary-path:     MapReduceFramework
relocations:
  - { offsetInCU: 0x3B, offset: 0x3B, size: 0x8, addend: 0x0, symName: _.str, symObjAddr: 0x64480, symBinAddr: 0x100066640, symSize: 0x0 }
  - { offsetInCU: 0x6B, offset: 0x6B, size: 0x8, addend: 0x0, symName: _.str.1, symObjAddr: 0x644E0, symBinAddr: 0x1000666A0, symSize: 0x0 }
  - { offsetInCU: 0x88, offset: 0x88, size: 0x8, addend: 0x0, symName: _.str.2, symObjAddr: 0x64500, symBinAddr: 0x1000666C0, symSize: 0x0 }
  - { offsetInCU: 0xA5, offset: 0xA5, size: 0x8, addend: 0x0, symName: _.str.3, symObjAddr: 0x64520, symBinAddr: 0x1000666E0, symSize: 0x0 }
  - { offsetInCU: 0xC2, offset: 0xC2, size: 0x8, addend: 0x0, symName: _.str.4, symObjAddr: 0x64580, symBinAddr: 0x100066740, symSize: 0x0 }
  - { offsetInCU: 0xDF, offset: 0xDF, size: 0x8, addend: 0x0, symName: _.str.5, symObjAddr: 0x645A0, symBinAddr: 0x100066760, symSize: 0x0 }
  - { offsetInCU: 0xFC, offset: 0xFC, size: 0x8, addend: 0x0, symName: _.str.6, symObjAddr: 0x645C0, symBinAddr: 0x100066780, symSize: 0x0 }
  - { offsetInCU: 0x10D, offset: 0x10D, size: 0x8, addend: 0x0, symName: _.str.7, symObjAddr: 0x645E0, symBinAddr: 0x1000667A0, symSize: 0x0 }
  - { offsetInCU: 0x11E, offset: 0x11E, size: 0x8, addend: 0x0, symName: _.str.8, symObjAddr: 0x64600, symBinAddr: 0x1000667C0, symSize: 0x0 }
  - { offsetInCU: 0x12F, offset: 0x12F, size: 0x8, addend: 0x0, symName: _.str.9, symObjAddr: 0x64620, symBinAddr: 0x1000667E0, symSize: 0x0 }
  - { offsetInCU: 0x14C, offset: 0x14C, size: 0x8, addend: 0x0, symName: _.str.10, symObjAddr: 0x64660, symBinAddr: 0x100066820, symSize: 0x0 }
  - { offsetInCU: 0x169, offset: 0x169, size: 0x8, addend: 0x0, symName: _.str.11, symObjAddr: 0x64680, symBinAddr: 0x100066840, symSize: 0x0 }
  - { offsetInCU: 0x186, offset: 0x186, size: 0x8, addend: 0x0, symName: _.str.12, symObjAddr: 0x646C0, symBinAddr: 0x100066880, symSize: 0x0 }
  - { offsetInCU: 0x1A3, offset: 0x1A3, size: 0x8, addend: 0x0, symName: _.str.13, symObjAddr: 0x64700, symBinAddr: 0x1000668C0, symSize: 0x0 }
  - { offsetInCU: 0x1C1, offset: 0x1C1, size: 0x8, addend: 0x0, symName: _.str.14, symObjAddr: 0x64740, symBinAddr: 0x100066900, symSize: 0x0 }
  - { offsetInCU: 0x1DF, offset: 0x1DF, size: 0x8, addend: 0x0, symName: _.str.15, symObjAddr: 0x64780, symBinAddr: 0x100066940, symSize: 0x0 }
  - { offsetInCU: 0x1F1, offset: 0x1F1, size: 0x8, addend: 0x0, symName: _.str.16, symObjAddr: 0x647C0, symBinAddr: 0x100066980, symSize: 0x0 }
  - { offsetInCU: 0x20F, offset: 0x20F, size: 0x8, addend: 0x0, symName: _.str.17, symObjAddr: 0x64820, symBinAddr: 0x1000669E0, symSize: 0x0 }
  - { offsetInCU: 0x22D, offset: 0x22D, size: 0x8, addend: 0x0, symName: _.str.18, symObjAddr: 0x648C0, symBinAddr: 0x100066A80, symSize: 0x0 }
  - { offsetInCU: 0x24B, offset: 0x24B, size: 0x8, addend: 0x0, symName: _.str.19, symObjAddr: 0x648E0, symBinAddr: 0x100066AA0, symSize: 0x0 }
  - { offsetInCU: 0x269, offset: 0x269, size: 0x8, addend: 0x0, symName: _.str.20, symObjAddr: 0x64900, symBinAddr: 0x100066AC0, symSize: 0x0 }
  - { offsetInCU: 0x287, offset: 0x287, size: 0x8, addend: 0x0, symName: _.str.21, symObjAddr: 0x64920, symBinAddr: 0x100066AE0, symSize: 0x0 }
  - { offsetInCU: 0x299, offset: 0x299, size: 0x8, addend: 0x0, symName: _.str.22, symObjAddr: 0x64940, symBinAddr: 0x100066B00, symSize: 0x0 }
  - { offsetInCU: 0x2AB, offset: 0x2AB, size: 0x8, addend: 0x0, symName: _.str.23, symObjAddr: 0x64980, symBinAddr: 0x100066B40, symSize: 0x0 }
  - { offsetInCU: 0x2BD, offset: 0x2BD, size: 0x8, addend: 0x0, symName: _.str.24, symObjAddr: 0x649E0, symBinAddr: 0x100066BA0, symSize: 0x0 }
  - { offsetInCU: 0x2DB, offset: 0x2DB, size: 0x8, addend: 0x0, symName: _.str.25, symObjAddr: 0x64A20, symBinAddr: 0x100066BE0, symSize: 0x0 }
  - { offsetInCU: 0x2F9, offset: 0x2F9, size: 0x8, addend: 0x0, symName: _.str.26, symObjAddr: 0x64A60, symBinAddr: 0x100066C20, symSize: 0x0 }
  - { offsetInCU: 0x30A, offset: 0x30A, size: 0x8, addend: 0x0, symName: _.str.27, symObjAddr: 0x64A80, symBinAddr: 0x100066C40, symSize: 0x0 }
  - { offsetInCU: 0x31B, offset: 0x31B, size: 0x8, addend: 0x0, symName: _.str.28, symObjAddr: 0x64AA0, symBinAddr: 0x100066C60, symSize: 0x0 }
  - { offsetInCU: 0x346, offset: 0x346, size: 0x8, addend: 0x0, symName: __ZNSt3__1L19piecewise_constructE, symObjAddr: 0x64DA0, symBinAddr: 0x100066E60, symSize: 0x0 }
  - { offsetInCU: 0x4BE4, offset: 0x4BE4, size: 0x8, addend: 0x0, symName: __ZNSt3__14__fs10filesystem5beginB7v160006ENS1_18directory_iteratorE, symObjAddr: 0x9084, symBinAddr: 0x10000A734, symSize: 0x38 }
  - { offsetInCU: 0x4C11, offset: 0x4C11, size: 0x8, addend: 0x0, symName: __ZNSt3__14__fs10filesystem3endB7v160006ENS1_18directory_iteratorE, symObjAddr: 0x911C, symBinAddr: 0x10000A7CC, symSize: 0x34 }
  - { offsetInCU: 0x4C3A, offset: 0x4C3A, size: 0x8, addend: 0x0, symName: __ZNSt3__14__fs10filesystemneB7v160006ERKNS1_18directory_iteratorES4_, symObjAddr: 0x9150, symBinAddr: 0x10000A800, symSize: 0x34 }
  - { offsetInCU: 0x4C74, offset: 0x4C74, size: 0x8, addend: 0x0, symName: __ZNSt3__14__fs10filesystem6removeB7v160006ERKNS1_4pathE, symObjAddr: 0x91A8, symBinAddr: 0x10000A858, symSize: 0x2C }
  - { offsetInCU: 0x4CA0, offset: 0x4CA0, size: 0x8, addend: 0x0, symName: __ZNSt3__14__fs10filesystemeqB7v160006ERKNS1_18directory_iteratorES4_, symObjAddr: 0xF480, symBinAddr: 0x100010B30, symSize: 0x30 }
  - { offsetInCU: 0xBC76, offset: 0xBC76, size: 0x8, addend: 0x0, symName: __ZNSt3__16chronomiB7v160006IxNS_5ratioILl1ELl1000000EEExS3_EENS_11common_typeIJNS0_8durationIT_T0_EENS5_IT1_T2_EEEE4typeERKS8_RKSB_, symObjAddr: 0xCAE0, symBinAddr: 0x10000E190, symSize: 0x334 }
  - { offsetInCU: 0xC096, offset: 0xC096, size: 0x8, addend: 0x0, symName: __ZNSt3__16chrono13duration_castB7v160006INS0_8durationIxNS_5ratioILl1ELl1000EEEEExNS3_ILl1ELl1000000EEEEENS_9enable_ifIXsr13__is_durationIT_EE5valueES8_E4typeERKNS2_IT0_T1_EE, symObjAddr: 0x5AE4, symBinAddr: 0x100007194, symSize: 0x27C }
  - { offsetInCU: 0xC0DE, offset: 0xC0DE, size: 0x8, addend: 0x0, symName: __ZNSt3__16chronomiB7v160006INS0_12system_clockENS0_8durationIxNS_5ratioILl1ELl1000000EEEEES6_EENS_11common_typeIJT0_T1_EE4typeERKNS0_10time_pointIT_S8_EERKNSC_ISD_S9_EE, symObjAddr: 0x5D60, symBinAddr: 0x100007410, symSize: 0x338 }
  - { offsetInCU: 0xE8AF, offset: 0xE8AF, size: 0x8, addend: 0x0, symName: __ZNSt3__124__put_character_sequenceB7v160006IcNS_11char_traitsIcEEEERNS_13basic_ostreamIT_T0_EES7_PKS4_m, symObjAddr: 0x11C74, symBinAddr: 0x100013324, symSize: 0x744 }
  - { offsetInCU: 0x1A7D2, offset: 0x1A7D2, size: 0x8, addend: 0x0, symName: __ZNSt3__111__introsortINS_17_ClassicAlgPolicyERNS_6__lessINS_12basic_stringIcNS_11char_traitsIcEENS_9allocatorIcEEEES8_EEPS8_EEvT1_SC_T0_NS_15iterator_traitsISC_E15difference_typeE, symObjAddr: 0x48BC4, symBinAddr: 0x10004A274, symSize: 0x1EA0 }
  - { offsetInCU: 0x1A947, offset: 0x1A947, size: 0x8, addend: 0x0, symName: __ZNSt3__118__insertion_sort_3B7v160006INS_17_ClassicAlgPolicyERNS_6__lessINS_12basic_stringIcNS_11char_traitsIcEENS_9allocatorIcEEEES8_EEPS8_EEvT1_SC_T0_, symObjAddr: 0x4AC2C, symBinAddr: 0x10004C2DC, symSize: 0x6A0 }
  - { offsetInCU: 0x1AA1C, offset: 0x1AA1C, size: 0x8, addend: 0x0, symName: __ZNSt3__111__sift_downB7v160006INS_17_ClassicAlgPolicyERNS_6__lessINS_12basic_stringIcNS_11char_traitsIcEENS_9allocatorIcEEEES8_EEPS8_EEvT1_OT0_NS_15iterator_traitsISC_E15difference_typeESC_, symObjAddr: 0x4E33C, symBinAddr: 0x10004F9EC, symSize: 0x8A8 }
  - { offsetInCU: 0x1AADC, offset: 0x1AADC, size: 0x8, addend: 0x0, symName: __ZNSt3__117__floyd_sift_downB7v160006INS_17_ClassicAlgPolicyERNS_6__lessINS_12basic_stringIcNS_11char_traitsIcEENS_9allocatorIcEEEES8_EEPS8_EET1_SC_OT0_NS_15iterator_traitsISC_E15difference_typeE, symObjAddr: 0x4F1F0, symBinAddr: 0x1000508A0, symSize: 0x3D4 }
  - { offsetInCU: 0x1AB80, offset: 0x1AB80, size: 0x8, addend: 0x0, symName: __ZNSt3__127__insertion_sort_incompleteIRNS_6__lessINS_12basic_stringIcNS_11char_traitsIcEENS_9allocatorIcEEEES7_EEPS7_EEbT0_SB_T_, symObjAddr: 0x4BA20, symBinAddr: 0x10004D0D0, symSize: 0xD30 }
  - { offsetInCU: 0x1E88F, offset: 0x1E88F, size: 0x8, addend: 0x0, symName: __ZNSt3__117__floyd_sift_downB7v160006INS_17_ClassicAlgPolicyERNS_7greaterIvEENS_11__wrap_iterIPN6SorterINS_12basic_stringIcNS_11char_traitsIcEENS_9allocatorIcEEEEE9QueueNodeEEEEET1_SH_OT0_NS_15iterator_traitsISH_E15difference_typeE, symObjAddr: 0x5C198, symBinAddr: 0x10005D848, symSize: 0x4A0 }
  - { offsetInCU: 0x20CC9, offset: 0x20CC9, size: 0x8, addend: 0x0, symName: __ZNSt3__1lsB7v160006IcNS_11char_traitsIcEENS_9allocatorIcEEEERNS_13basic_ostreamIT_T0_EES9_RKNS_12basic_stringIS6_S7_T1_EE, symObjAddr: 0x47C, symBinAddr: 0x100001B2C, symSize: 0x4C }
  - { offsetInCU: 0x20D21, offset: 0x20D21, size: 0x8, addend: 0x0, symName: __ZNSt3__1lsB7v160006INS_11char_traitsIcEEEERNS_13basic_ostreamIcT_EES6_PKc, symObjAddr: 0x4C8, symBinAddr: 0x100001B78, symSize: 0x48 }
  - { offsetInCU: 0x20D67, offset: 0x20D67, size: 0x8, addend: 0x0, symName: __ZNSt3__14endlB7v160006IcNS_11char_traitsIcEEEERNS_13basic_ostreamIT_T0_EES7_, symObjAddr: 0x53C, symBinAddr: 0x100001BEC, symSize: 0xD4 }
  - { offsetInCU: 0x20DA7, offset: 0x20DA7, size: 0x8, addend: 0x0, symName: __ZNSt3__17getlineB7v160006IcNS_11char_traitsIcEENS_9allocatorIcEEEERNS_13basic_istreamIT_T0_EES9_RNS_12basic_stringIS6_S7_T1_EE, symObjAddr: 0xE8C, symBinAddr: 0x10000253C, symSize: 0xD8 }
  - { offsetInCU: 0x20DFF, offset: 0x20DFF, size: 0x8, addend: 0x0, symName: __ZNSt3__1neB7v160006IPKNS_12basic_stringIcNS_11char_traitsIcEENS_9allocatorIcEEEEEEbRKNS_11__wrap_iterIT_EESD_, symObjAddr: 0x1B98, symBinAddr: 0x100003248, symSize: 0x34 }
  - { offsetInCU: 0x20E42, offset: 0x20E42, size: 0x8, addend: 0x0, symName: __ZNSt3__1neB7v160006IPNS_12basic_stringIcNS_11char_traitsIcEENS_9allocatorIcEEEEEEbRKNS_11__wrap_iterIT_EESC_, symObjAddr: 0x4D7C, symBinAddr: 0x10000642C, symSize: 0x34 }
  - { offsetInCU: 0x20E85, offset: 0x20E85, size: 0x8, addend: 0x0, symName: __ZNSt3__111make_sharedB7v160006I15WordCountMapperINS_12basic_stringIcNS_11char_traitsIcEENS_9allocatorIcEEEES7_S7_iEJRiEvEENS_10shared_ptrIT_EEDpOT0_, symObjAddr: 0x4E10, symBinAddr: 0x1000064C0, symSize: 0x1E8 }
  - { offsetInCU: 0x20EC9, offset: 0x20EC9, size: 0x8, addend: 0x0, symName: __ZNSt3__1plB7v160006IcNS_11char_traitsIcEENS_9allocatorIcEEEENS_12basic_stringIT_T0_T1_EEPKS6_OS9_, symObjAddr: 0x52F4, symBinAddr: 0x1000069A4, symSize: 0x44 }
  - { offsetInCU: 0x20F21, offset: 0x20F21, size: 0x8, addend: 0x0, symName: __ZNSt3__1neB7v160006IPNS_6threadEEEbRKNS_11__wrap_iterIT_EES7_, symObjAddr: 0x59E8, symBinAddr: 0x100007098, symSize: 0x34 }
  - { offsetInCU: 0x20F64, offset: 0x20F64, size: 0x8, addend: 0x0, symName: __ZNSt3__1neB7v160006IPcEEbRKNS_11__wrap_iterIT_EES6_, symObjAddr: 0xA108, symBinAddr: 0x10000B7B8, symSize: 0x34 }
  - { offsetInCU: 0x20FA8, offset: 0x20FA8, size: 0x8, addend: 0x0, symName: __ZNSt3__17replaceB7v160006INS_11__wrap_iterIPcEEcEEvT_S4_RKT0_S7_, symObjAddr: 0xA19C, symBinAddr: 0x10000B84C, symSize: 0x450 }
  - { offsetInCU: 0x21409, offset: 0x21409, size: 0x8, addend: 0x0, symName: __ZNSt3__1rsB7v160006IcNS_11char_traitsIcEENS_9allocatorIcEEEERNS_13basic_istreamIT_T0_EES9_RNS_12basic_stringIS6_S7_T1_EE, symObjAddr: 0xA8A0, symBinAddr: 0x10000BF50, symSize: 0x98C }
  - { offsetInCU: 0x214ED, offset: 0x214ED, size: 0x8, addend: 0x0, symName: __ZNSt3__1rsB7v160006IcNS_11char_traitsIcEEEERNS_13basic_istreamIT_T0_EES7_RS4_, symObjAddr: 0xB26C, symBinAddr: 0x10000C91C, symSize: 0x5E4 }
  - { offsetInCU: 0x21577, offset: 0x21577, size: 0x8, addend: 0x0, symName: __ZNSt3__1plB7v160006IcNS_11char_traitsIcEENS_9allocatorIcEEEENS_12basic_stringIT_T0_T1_EEOS9_PKS6_, symObjAddr: 0xB850, symBinAddr: 0x10000CF00, symSize: 0x40 }
  - { offsetInCU: 0x2177D, offset: 0x2177D, size: 0x8, addend: 0x0, symName: __ZNSt3__1lsB7v160006INS_11char_traitsIcEEEERNS_13basic_ostreamIcT_EES6_c, symObjAddr: 0xBDB4, symBinAddr: 0x10000D464, symSize: 0x220 }
  - { offsetInCU: 0x217C8, offset: 0x217C8, size: 0x8, addend: 0x0, symName: __ZNSt3__1eqB7v160006IPKNS_12basic_stringIcNS_11char_traitsIcEENS_9allocatorIcEEEEEEbRKNS_11__wrap_iterIT_EESD_, symObjAddr: 0xC4C8, symBinAddr: 0x10000DB78, symSize: 0x48 }
  - { offsetInCU: 0x2180B, offset: 0x2180B, size: 0x8, addend: 0x0, symName: __ZNSt3__1eqB7v160006IPNS_12basic_stringIcNS_11char_traitsIcEENS_9allocatorIcEEEEEEbRKNS_11__wrap_iterIT_EESC_, symObjAddr: 0xC570, symBinAddr: 0x10000DC20, symSize: 0x48 }
  - { offsetInCU: 0x2184E, offset: 0x2184E, size: 0x8, addend: 0x0, symName: __ZNSt3__1eqB7v160006IPNS_6threadEEEbRKNS_11__wrap_iterIT_EES7_, symObjAddr: 0xC650, symBinAddr: 0x10000DD00, symSize: 0x48 }
  - { offsetInCU: 0x218B0, offset: 0x218B0, size: 0x8, addend: 0x0, symName: __ZNSt3__119__debug_db_insert_cB7v160006INS_13unordered_mapINS_12basic_stringIcNS_11char_traitsIcEENS_9allocatorIcEEEES7_NS_4hashIS7_EENS_8equal_toIS7_EENS5_INS_4pairIKS7_S7_EEEEEEEEvPT_, symObjAddr: 0xD214, symBinAddr: 0x10000E8C4, symSize: 0x10 }
  - { offsetInCU: 0x218E2, offset: 0x218E2, size: 0x8, addend: 0x0, symName: __ZNSt3__118__debug_db_erase_cB7v160006INS_12__hash_tableINS_17__hash_value_typeINS_12basic_stringIcNS_11char_traitsIcEENS_9allocatorIcEEEES8_EENS_22__unordered_map_hasherIS8_S9_NS_4hashIS8_EENS_8equal_toIS8_EELb1EEENS_21__unordered_map_equalIS8_S9_SE_SC_Lb1EEENS6_IS9_EEEEEEvPT_, symObjAddr: 0xE3E4, symBinAddr: 0x10000FA94, symSize: 0x10 }
  - { offsetInCU: 0x21946, offset: 0x21946, size: 0x8, addend: 0x0, symName: __ZNSt3__17launderB7v160006INS_4pairIKNS_12basic_stringIcNS_11char_traitsIcEENS_9allocatorIcEEEES7_EEEEPT_SB_, symObjAddr: 0xE5C0, symBinAddr: 0x10000FC70, symSize: 0x24 }
  - { offsetInCU: 0x2197E, offset: 0x2197E, size: 0x8, addend: 0x0, symName: __ZNSt3__19__launderB7v160006INS_4pairIKNS_12basic_stringIcNS_11char_traitsIcEENS_9allocatorIcEEEES7_EEEEPT_SB_, symObjAddr: 0xE5E4, symBinAddr: 0x10000FC94, symSize: 0x14 }
  - { offsetInCU: 0x219B6, offset: 0x219B6, size: 0x8, addend: 0x0, symName: __ZNSt3__119__libcpp_deallocateB7v160006EPvmm, symObjAddr: 0xE644, symBinAddr: 0x10000FCF4, symSize: 0x60 }
  - { offsetInCU: 0x21A1D, offset: 0x21A1D, size: 0x8, addend: 0x0, symName: __ZNSt3__124__is_overaligned_for_newB7v160006Em, symObjAddr: 0xE6A4, symBinAddr: 0x10000FD54, symSize: 0x20 }
  - { offsetInCU: 0x21A4C, offset: 0x21A4C, size: 0x8, addend: 0x0, symName: __ZNSt3__127__do_deallocate_handle_sizeB7v160006IJSt11align_val_tEEEvPvmDpT_, symObjAddr: 0xE6C4, symBinAddr: 0x10000FD74, symSize: 0x30 }
  - { offsetInCU: 0x21AA0, offset: 0x21AA0, size: 0x8, addend: 0x0, symName: __ZNSt3__127__do_deallocate_handle_sizeB7v160006IJEEEvPvmDpT_, symObjAddr: 0xE6F4, symBinAddr: 0x10000FDA4, symSize: 0x28 }
  - { offsetInCU: 0x21ADF, offset: 0x21ADF, size: 0x8, addend: 0x0, symName: __ZNSt3__124__libcpp_operator_deleteB7v160006IJPvSt11align_val_tEEEvDpT_, symObjAddr: 0xE71C, symBinAddr: 0x10000FDCC, symSize: 0x2C }
  - { offsetInCU: 0x21B29, offset: 0x21B29, size: 0x8, addend: 0x0, symName: __ZNSt3__124__libcpp_operator_deleteB7v160006IJPvEEEvDpT_, symObjAddr: 0xE748, symBinAddr: 0x10000FDF8, symSize: 0x24 }
  - { offsetInCU: 0x21B5E, offset: 0x21B5E, size: 0x8, addend: 0x0, symName: __ZNSt3__134__libcpp_atomic_refcount_incrementB7v160006IlEET_RS1_, symObjAddr: 0xF00C, symBinAddr: 0x1000106BC, symSize: 0x80 }
  - { offsetInCU: 0x21B93, offset: 0x21B93, size: 0x8, addend: 0x0, symName: __ZNSt3__134__libcpp_atomic_refcount_decrementB7v160006IlEET_RS1_, symObjAddr: 0xF2E0, symBinAddr: 0x100010990, symSize: 0x80 }
  - { offsetInCU: 0x21BC8, offset: 0x21BC8, size: 0x8, addend: 0x0, symName: __ZNSt3__1eqB7v160006INS_4__fs10filesystem12__dir_streamES3_EEbRKNS_10shared_ptrIT_EERKNS4_IT0_EE, symObjAddr: 0xF4B0, symBinAddr: 0x100010B60, symSize: 0x48 }
  - { offsetInCU: 0x21C17, offset: 0x21C17, size: 0x8, addend: 0x0, symName: __ZNSt3__1eqB7v160006IPcEEbRKNS_11__wrap_iterIT_EES6_, symObjAddr: 0xF558, symBinAddr: 0x100010C08, symSize: 0x48 }
  - { offsetInCU: 0x21C5B, offset: 0x21C5B, size: 0x8, addend: 0x0, symName: __ZNSt3__119__debug_db_insert_cB7v160006INS_12basic_stringIcNS_11char_traitsIcEENS_9allocatorIcEEEEEEvPT_, symObjAddr: 0xFE48, symBinAddr: 0x1000114F8, symSize: 0x10 }
  - { offsetInCU: 0x21C8D, offset: 0x21C8D, size: 0x8, addend: 0x0, symName: __ZNSt3__112__to_addressB7v160006IKcEEPT_S3_, symObjAddr: 0x10454, symBinAddr: 0x100011B04, symSize: 0x14 }
  - { offsetInCU: 0x21CF6, offset: 0x21CF6, size: 0x8, addend: 0x0, symName: __ZNSt3__119__debug_db_insert_cB7v160006INS_6vectorINS_12basic_stringIcNS_11char_traitsIcEENS_9allocatorIcEEEENS5_IS7_EEEEEEvPT_, symObjAddr: 0x10FA0, symBinAddr: 0x100012650, symSize: 0x10 }
  - { offsetInCU: 0x21D28, offset: 0x21D28, size: 0x8, addend: 0x0, symName: __ZNSt3__118__debug_db_erase_cB7v160006INS_6vectorINS_12basic_stringIcNS_11char_traitsIcEENS_9allocatorIcEEEENS5_IS7_EEEEEEvPT_, symObjAddr: 0x116A8, symBinAddr: 0x100012D58, symSize: 0x10 }
  - { offsetInCU: 0x21D5A, offset: 0x21D5A, size: 0x8, addend: 0x0, symName: __ZNSt3__112__to_addressB7v160006INS_12basic_stringIcNS_11char_traitsIcEENS_9allocatorIcEEEEEEPT_S8_, symObjAddr: 0x119A0, symBinAddr: 0x100013050, symSize: 0x14 }
  - { offsetInCU: 0x21D8F, offset: 0x21D8F, size: 0x8, addend: 0x0, symName: __ZNSt3__116__pad_and_outputB7v160006IcNS_11char_traitsIcEEEENS_19ostreambuf_iteratorIT_T0_EES6_PKS4_S8_S8_RNS_8ios_baseES4_, symObjAddr: 0x12480, symBinAddr: 0x100013B30, symSize: 0x760 }
  - { offsetInCU: 0x21E6D, offset: 0x21E6D, size: 0x8, addend: 0x0, symName: __ZNSt3__112__to_addressB7v160006IcEEPT_S2_, symObjAddr: 0x132F8, symBinAddr: 0x1000149A8, symSize: 0x14 }
  - { offsetInCU: 0x21ED5, offset: 0x21ED5, size: 0x8, addend: 0x0, symName: __ZNSt3__19use_facetB7v160006INS_5ctypeIcEEEERKT_RKNS_6localeE, symObjAddr: 0x13868, symBinAddr: 0x100014F18, symSize: 0x2C }
  - { offsetInCU: 0x222B5, offset: 0x222B5, size: 0x8, addend: 0x0, symName: __ZNSt3__118__constexpr_strlenB7v160006EPKc, symObjAddr: 0x13950, symBinAddr: 0x100015000, symSize: 0x24 }
  - { offsetInCU: 0x222E1, offset: 0x222E1, size: 0x8, addend: 0x0, symName: __ZNSt3__17getlineB7v160006IcNS_11char_traitsIcEENS_9allocatorIcEEEERNS_13basic_istreamIT_T0_EES9_RNS_12basic_stringIS6_S7_T1_EES6_, symObjAddr: 0x13974, symBinAddr: 0x100015024, symSize: 0x688 }
  - { offsetInCU: 0x223B4, offset: 0x223B4, size: 0x8, addend: 0x0, symName: __ZNSt3__125__debug_db_invalidate_allB7v160006INS_12basic_stringIcNS_11char_traitsIcEENS_9allocatorIcEEEEEEvPT_, symObjAddr: 0x14830, symBinAddr: 0x100015EE0, symSize: 0x10 }
  - { offsetInCU: 0x223E5, offset: 0x223E5, size: 0x8, addend: 0x0, symName: __ZNSt3__13maxB7v160006ImEERKT_S3_S3_, symObjAddr: 0x16800, symBinAddr: 0x100017EB0, symSize: 0x2C }
  - { offsetInCU: 0x22428, offset: 0x22428, size: 0x8, addend: 0x0, symName: __ZNSt3__13minB7v160006ImEERKT_S3_S3_, symObjAddr: 0x1682C, symBinAddr: 0x100017EDC, symSize: 0x2C }
  - { offsetInCU: 0x22655, offset: 0x22655, size: 0x8, addend: 0x0, symName: __ZNSt3__13minB7v160006ImNS_6__lessImmEEEERKT_S5_S5_T0_, symObjAddr: 0x168B8, symBinAddr: 0x100017F68, symSize: 0x1E8 }
  - { offsetInCU: 0x226F1, offset: 0x226F1, size: 0x8, addend: 0x0, symName: __ZNSt3__120__throw_length_errorB7v160006EPKc, symObjAddr: 0x16BB4, symBinAddr: 0x100018264, symSize: 0x68 }
  - { offsetInCU: 0x22719, offset: 0x22719, size: 0x8, addend: 0x0, symName: __ZNSt3__13maxB7v160006ImNS_6__lessImmEEEERKT_S5_S5_T0_, symObjAddr: 0x16CDC, symBinAddr: 0x10001838C, symSize: 0x1E8 }
  - { offsetInCU: 0x22779, offset: 0x22779, size: 0x8, addend: 0x0, symName: __ZNSt3__119__allocate_at_leastB7v160006INS_9allocatorINS_12basic_stringIcNS_11char_traitsIcEENS1_IcEEEEEEEENS_19__allocation_resultINS_16allocator_traitsIT_E7pointerEEERSA_m, symObjAddr: 0x17430, symBinAddr: 0x100018AE0, symSize: 0x28C }
  - { offsetInCU: 0x227BE, offset: 0x227BE, size: 0x8, addend: 0x0, symName: __ZNSt3__117__libcpp_allocateB7v160006Emm, symObjAddr: 0x1785C, symBinAddr: 0x100018F0C, symSize: 0x60 }
  - { offsetInCU: 0x22819, offset: 0x22819, size: 0x8, addend: 0x0, symName: __ZNSt3__121__libcpp_operator_newB7v160006IJmSt11align_val_tEEEPvDpT_, symObjAddr: 0x178BC, symBinAddr: 0x100018F6C, symSize: 0x2C }
  - { offsetInCU: 0x22866, offset: 0x22866, size: 0x8, addend: 0x0, symName: __ZNSt3__121__libcpp_operator_newB7v160006IJmEEEPvDpT_, symObjAddr: 0x178E8, symBinAddr: 0x100018F98, symSize: 0x24 }
  - { offsetInCU: 0x2289F, offset: 0x2289F, size: 0x8, addend: 0x0, symName: __ZNSt3__142__uninitialized_allocator_move_if_noexceptB7v160006INS_9allocatorINS_12basic_stringIcNS_11char_traitsIcEENS1_IcEEEEEENS_16reverse_iteratorIPS6_EESA_SA_EET2_RT_T0_T1_SB_, symObjAddr: 0x179B8, symBinAddr: 0x100019068, symSize: 0x544 }
  - { offsetInCU: 0x22954, offset: 0x22954, size: 0x8, addend: 0x0, symName: __ZNSt3__14swapB7v160006IPNS_12basic_stringIcNS_11char_traitsIcEENS_9allocatorIcEEEEEENS_9enable_ifIXaasr21is_move_constructibleIT_EE5valuesr18is_move_assignableIS9_EE5valueEvE4typeERS9_SC_, symObjAddr: 0x17F94, symBinAddr: 0x100019644, symSize: 0x134 }
  - { offsetInCU: 0x229A7, offset: 0x229A7, size: 0x8, addend: 0x0, symName: __ZNSt3__125__debug_db_invalidate_allB7v160006INS_6vectorINS_12basic_stringIcNS_11char_traitsIcEENS_9allocatorIcEEEENS5_IS7_EEEEEEvPT_, symObjAddr: 0x181A4, symBinAddr: 0x100019854, symSize: 0x10 }
  - { offsetInCU: 0x229D8, offset: 0x229D8, size: 0x8, addend: 0x0, symName: __ZNSt3__122__make_exception_guardB7v160006INS_29_AllocatorDestroyRangeReverseINS_9allocatorINS_12basic_stringIcNS_11char_traitsIcEENS2_IcEEEEEENS_16reverse_iteratorIPS7_EEEEEENS_28__exception_guard_exceptionsIT_EESE_, symObjAddr: 0x181B4, symBinAddr: 0x100019864, symSize: 0x1F8 }
  - { offsetInCU: 0x22A0F, offset: 0x22A0F, size: 0x8, addend: 0x0, symName: __ZNSt3__1neB7v160006IPNS_12basic_stringIcNS_11char_traitsIcEENS_9allocatorIcEEEES7_EEbRKNS_16reverse_iteratorIT_EERKNS8_IT0_EE, symObjAddr: 0x183F0, symBinAddr: 0x100019AA0, symSize: 0x48 }
  - { offsetInCU: 0x22A5B, offset: 0x22A5B, size: 0x8, addend: 0x0, symName: __ZNSt3__112__to_addressB7v160006INS_16reverse_iteratorIPNS_12basic_stringIcNS_11char_traitsIcEENS_9allocatorIcEEEEEEvEENS_5decayIDTclsr19__to_address_helperIT_EE6__callclsr3stdE7declvalIRKSB_EEEEE4typeESD_, symObjAddr: 0x1846C, symBinAddr: 0x100019B1C, symSize: 0x24 }
  - { offsetInCU: 0x22A92, offset: 0x22A92, size: 0x8, addend: 0x0, symName: __ZNSt3__115__debug_db_swapB7v160006INS_12basic_stringIcNS_11char_traitsIcEENS_9allocatorIcEEEEEEvPT_S8_, symObjAddr: 0x188E8, symBinAddr: 0x100019F98, symSize: 0x14 }
  - { offsetInCU: 0x22AFB, offset: 0x22AFB, size: 0x8, addend: 0x0, symName: __ZNSt3__119__allocator_destroyB7v160006INS_9allocatorINS_12basic_stringIcNS_11char_traitsIcEENS1_IcEEEEEENS_16reverse_iteratorINS8_IPS6_EEEESB_EEvRT_T0_T1_, symObjAddr: 0x18DC8, symBinAddr: 0x10001A478, symSize: 0x70 }
  - { offsetInCU: 0x22B60, offset: 0x22B60, size: 0x8, addend: 0x0, symName: __ZNSt3__1neB7v160006INS_16reverse_iteratorIPNS_12basic_stringIcNS_11char_traitsIcEENS_9allocatorIcEEEEEES9_EEbRKNS1_IT_EERKNS1_IT0_EE, symObjAddr: 0x19080, symBinAddr: 0x10001A730, symSize: 0x2CC }
  - { offsetInCU: 0x22BAE, offset: 0x22BAE, size: 0x8, addend: 0x0, symName: __ZNSt3__112__to_addressB7v160006INS_16reverse_iteratorINS1_IPNS_12basic_stringIcNS_11char_traitsIcEENS_9allocatorIcEEEEEEEEvEENS_5decayIDTclsr19__to_address_helperIT_EE6__callclsr3stdE7declvalIRKSC_EEEEE4typeESE_, symObjAddr: 0x1934C, symBinAddr: 0x10001A9FC, symSize: 0x24 }
  - { offsetInCU: 0x22C0D, offset: 0x22C0D, size: 0x8, addend: 0x0, symName: __ZNSt3__122__make_exception_guardB7v160006INS_6vectorINS_12basic_stringIcNS_11char_traitsIcEENS_9allocatorIcEEEENS5_IS7_EEE16__destroy_vectorEEENS_28__exception_guard_exceptionsIT_EESC_, symObjAddr: 0x1B074, symBinAddr: 0x10001C724, symSize: 0x278 }
  - { offsetInCU: 0x22C46, offset: 0x22C46, size: 0x8, addend: 0x0, symName: __ZNSt3__130__uninitialized_allocator_copyB7v160006INS_9allocatorINS_12basic_stringIcNS_11char_traitsIcEENS1_IcEEEEEEPS6_S8_S8_EET2_RT_T0_T1_S9_, symObjAddr: 0x1C044, symBinAddr: 0x10001D6F4, symSize: 0x520 }
  - { offsetInCU: 0x22CF2, offset: 0x22CF2, size: 0x8, addend: 0x0, symName: __ZNSt3__122__make_exception_guardB7v160006INS_29_AllocatorDestroyRangeReverseINS_9allocatorINS_12basic_stringIcNS_11char_traitsIcEENS2_IcEEEEEEPS7_EEEENS_28__exception_guard_exceptionsIT_EESC_, symObjAddr: 0x1C564, symBinAddr: 0x10001DC14, symSize: 0x1F8 }
  - { offsetInCU: 0x22D2A, offset: 0x22D2A, size: 0x8, addend: 0x0, symName: __ZNSt3__119__allocator_destroyB7v160006INS_9allocatorINS_12basic_stringIcNS_11char_traitsIcEENS1_IcEEEEEENS_16reverse_iteratorIPS6_EESA_EEvRT_T0_T1_, symObjAddr: 0x1CEF0, symBinAddr: 0x10001E5A0, symSize: 0x2B8 }
  - { offsetInCU: 0x22D97, offset: 0x22D97, size: 0x8, addend: 0x0, symName: __ZNSt3__119__debug_db_insert_cB7v160006INS_6vectorINS_6threadENS_9allocatorIS2_EEEEEEvPT_, symObjAddr: 0x1D594, symBinAddr: 0x10001EC44, symSize: 0x10 }
  - { offsetInCU: 0x22DC9, offset: 0x22DC9, size: 0x8, addend: 0x0, symName: __ZNSt3__118__debug_db_erase_cB7v160006INS_6vectorINS_6threadENS_9allocatorIS2_EEEEEEvPT_, symObjAddr: 0x1DC80, symBinAddr: 0x10001F330, symSize: 0x10 }
  - { offsetInCU: 0x22DFB, offset: 0x22DFB, size: 0x8, addend: 0x0, symName: __ZNSt3__112__to_addressB7v160006INS_6threadEEEPT_S3_, symObjAddr: 0x1DF78, symBinAddr: 0x10001F628, symSize: 0x14 }
  - { offsetInCU: 0x22E30, offset: 0x22E30, size: 0x8, addend: 0x0, symName: __ZNSt3__115allocate_sharedB7v160006I15WordCountMapperINS_12basic_stringIcNS_11char_traitsIcEENS_9allocatorIcEEEES7_S7_iENS5_IS8_EEJRiEvEENS_10shared_ptrIT_EERKT0_DpOT1_, symObjAddr: 0x1E488, symBinAddr: 0x10001FB38, symSize: 0x300 }
  - { offsetInCU: 0x23146, offset: 0x23146, size: 0x8, addend: 0x0, symName: __ZNSt3__119__debug_db_insert_cB7v160006INS_13unordered_mapINS_12basic_stringIcNS_11char_traitsIcEENS_9allocatorIcEEEENS_6vectorIiNS5_IiEEEENS_4hashIS7_EENS_8equal_toIS7_EENS5_INS_4pairIKS7_SA_EEEEEEEEvPT_, symObjAddr: 0x1FFF4, symBinAddr: 0x1000216A4, symSize: 0x10 }
  - { offsetInCU: 0x23178, offset: 0x23178, size: 0x8, addend: 0x0, symName: __ZNSt3__118__debug_db_erase_cB7v160006INS_12__hash_tableINS_17__hash_value_typeINS_12basic_stringIcNS_11char_traitsIcEENS_9allocatorIcEEEENS_6vectorIiNS6_IiEEEEEENS_22__unordered_map_hasherIS8_SC_NS_4hashIS8_EENS_8equal_toIS8_EELb1EEENS_21__unordered_map_equalIS8_SC_SH_SF_Lb1EEENS6_ISC_EEEEEEvPT_, symObjAddr: 0x20F5C, symBinAddr: 0x10002260C, symSize: 0x10 }
  - { offsetInCU: 0x231DD, offset: 0x231DD, size: 0x8, addend: 0x0, symName: __ZNSt3__118__debug_db_erase_cB7v160006INS_6vectorIiNS_9allocatorIiEEEEEEvPT_, symObjAddr: 0x2170C, symBinAddr: 0x100022DBC, symSize: 0x10 }
  - { offsetInCU: 0x2320F, offset: 0x2320F, size: 0x8, addend: 0x0, symName: __ZNSt3__112__to_addressB7v160006IiEEPT_S2_, symObjAddr: 0x21A04, symBinAddr: 0x1000230B4, symSize: 0x14 }
  - { offsetInCU: 0x23244, offset: 0x23244, size: 0x8, addend: 0x0, symName: __ZNSt3__17launderB7v160006INS_4pairIKNS_12basic_stringIcNS_11char_traitsIcEENS_9allocatorIcEEEENS_6vectorIiNS5_IiEEEEEEEEPT_SE_, symObjAddr: 0x21C74, symBinAddr: 0x100023324, symSize: 0x24 }
  - { offsetInCU: 0x2327C, offset: 0x2327C, size: 0x8, addend: 0x0, symName: __ZNSt3__19__launderB7v160006INS_4pairIKNS_12basic_stringIcNS_11char_traitsIcEENS_9allocatorIcEEEENS_6vectorIiNS5_IiEEEEEEEEPT_SE_, symObjAddr: 0x21C98, symBinAddr: 0x100023348, symSize: 0x14 }
  - { offsetInCU: 0x232B3, offset: 0x232B3, size: 0x8, addend: 0x0, symName: __ZNSt3__1neB7v160006ERKNS_19__hash_map_iteratorINS_15__hash_iteratorIPNS_11__hash_nodeINS_17__hash_value_typeINS_12basic_stringIcNS_11char_traitsIcEENS_9allocatorIcEEEENS_6vectorIiNS7_IiEEEEEEPvEEEEEESK_, symObjAddr: 0x22AAC, symBinAddr: 0x10002415C, symSize: 0x30 }
  - { offsetInCU: 0x232F1, offset: 0x232F1, size: 0x8, addend: 0x0, symName: __ZNSt3__116__constrain_hashB7v160006Emm, symObjAddr: 0x24394, symBinAddr: 0x100025A44, symSize: 0x98 }
  - { offsetInCU: 0x2332B, offset: 0x2332B, size: 0x8, addend: 0x0, symName: __ZNSt3__116__do_string_hashB7v160006IPKcEEmT_S3_, symObjAddr: 0x24858, symBinAddr: 0x100025F08, symSize: 0x1EC }
  - { offsetInCU: 0x23373, offset: 0x23373, size: 0x8, addend: 0x0, symName: __ZNSt3__110__loadwordB7v160006ImEET_PKv, symObjAddr: 0x25F08, symBinAddr: 0x1000275B8, symSize: 0x214 }
  - { offsetInCU: 0x233BC, offset: 0x233BC, size: 0x8, addend: 0x0, symName: __ZNSt3__14swapB7v160006ImEENS_9enable_ifIXaasr21is_move_constructibleIT_EE5valuesr18is_move_assignableIS2_EE5valueEvE4typeERS2_S5_, symObjAddr: 0x265A4, symBinAddr: 0x100027C54, symSize: 0x134 }
  - { offsetInCU: 0x2340E, offset: 0x2340E, size: 0x8, addend: 0x0, symName: __ZNSt3__110__loadwordB7v160006IjEET_PKv, symObjAddr: 0x2672C, symBinAddr: 0x100027DDC, symSize: 0x240 }
  - { offsetInCU: 0x23457, offset: 0x23457, size: 0x8, addend: 0x0, symName: __ZNSt3__1eqB7v160006INS_9allocatorIcEEEEbRKNS_12basic_stringIcNS_11char_traitsIcEET_EES9_, symObjAddr: 0x27044, symBinAddr: 0x1000286F4, symSize: 0x234 }
  - { offsetInCU: 0x234CA, offset: 0x234CA, size: 0x8, addend: 0x0, symName: __ZNSt3__118__constexpr_memcmpB7v160006IcEEiPKT_S3_m, symObjAddr: 0x272F0, symBinAddr: 0x1000289A0, symSize: 0x34 }
  - { offsetInCU: 0x2351B, offset: 0x2351B, size: 0x8, addend: 0x0, symName: __ZNSt3__17launderB7v160006IKNS_4pairIKNS_12basic_stringIcNS_11char_traitsIcEENS_9allocatorIcEEEENS_6vectorIiNS5_IiEEEEEEEEPT_SF_, symObjAddr: 0x27324, symBinAddr: 0x1000289D4, symSize: 0x24 }
  - { offsetInCU: 0x23553, offset: 0x23553, size: 0x8, addend: 0x0, symName: __ZNSt3__19__launderB7v160006IKNS_4pairIKNS_12basic_stringIcNS_11char_traitsIcEENS_9allocatorIcEEEENS_6vectorIiNS5_IiEEEEEEEEPT_SF_, symObjAddr: 0x27348, symBinAddr: 0x1000289F8, symSize: 0x14 }
  - { offsetInCU: 0x2358A, offset: 0x2358A, size: 0x8, addend: 0x0, symName: __ZNSt3__1neB7v160006ERKNS_15__hash_iteratorIPNS_11__hash_nodeINS_17__hash_value_typeINS_12basic_stringIcNS_11char_traitsIcEENS_9allocatorIcEEEENS_6vectorIiNS6_IiEEEEEEPvEEEESI_, symObjAddr: 0x275D4, symBinAddr: 0x100028C84, symSize: 0x34 }
  - { offsetInCU: 0x235C7, offset: 0x235C7, size: 0x8, addend: 0x0, symName: __ZNSt3__1eqB7v160006ERKNS_15__hash_iteratorIPNS_11__hash_nodeINS_17__hash_value_typeINS_12basic_stringIcNS_11char_traitsIcEENS_9allocatorIcEEEENS_6vectorIiNS6_IiEEEEEEPvEEEESI_, symObjAddr: 0x27608, symBinAddr: 0x100028CB8, symSize: 0xB8 }
  - { offsetInCU: 0x2366A, offset: 0x2366A, size: 0x8, addend: 0x0, symName: __ZNSt3__119__allocate_at_leastB7v160006INS_9allocatorIiEEEENS_19__allocation_resultINS_16allocator_traitsIT_E7pointerEEERS5_m, symObjAddr: 0x298E0, symBinAddr: 0x10002AF90, symSize: 0x28C }
  - { offsetInCU: 0x236AF, offset: 0x236AF, size: 0x8, addend: 0x0, symName: __ZNSt3__142__uninitialized_allocator_move_if_noexceptB7v160006INS_9allocatorIiEENS_16reverse_iteratorIPiEES5_ivEET1_RT_T0_S9_S6_, symObjAddr: 0x29DE0, symBinAddr: 0x10002B490, symSize: 0x4A8 }
  - { offsetInCU: 0x2373A, offset: 0x2373A, size: 0x8, addend: 0x0, symName: __ZNSt3__14swapB7v160006IPiEENS_9enable_ifIXaasr21is_move_constructibleIT_EE5valuesr18is_move_assignableIS3_EE5valueEvE4typeERS3_S6_, symObjAddr: 0x2A320, symBinAddr: 0x10002B9D0, symSize: 0x134 }
  - { offsetInCU: 0x2378D, offset: 0x2378D, size: 0x8, addend: 0x0, symName: __ZNSt3__125__debug_db_invalidate_allB7v160006INS_6vectorIiNS_9allocatorIiEEEEEEvPT_, symObjAddr: 0x2A514, symBinAddr: 0x10002BBC4, symSize: 0x10 }
  - { offsetInCU: 0x237BE, offset: 0x237BE, size: 0x8, addend: 0x0, symName: __ZNSt3__14moveB7v160006INS_16reverse_iteratorIPiEES3_EET0_T_S5_S4_, symObjAddr: 0x2A524, symBinAddr: 0x10002BBD4, symSize: 0x4B0 }
  - { offsetInCU: 0x23825, offset: 0x23825, size: 0x8, addend: 0x0, symName: __ZNSt3__16__moveB7v160006INS_17_ClassicAlgPolicyENS_16reverse_iteratorIPiEES4_S4_EENS_4pairIT0_T2_EES6_T1_S7_, symObjAddr: 0x2A9D4, symBinAddr: 0x10002C084, symSize: 0x424 }
  - { offsetInCU: 0x2389D, offset: 0x2389D, size: 0x8, addend: 0x0, symName: __ZNSt3__123__dispatch_copy_or_moveB7v160006INS_17_ClassicAlgPolicyENS_11__move_loopIS1_EENS_14__move_trivialENS_16reverse_iteratorIPiEES7_S7_EENS_4pairIT2_T4_EES9_T3_SA_, symObjAddr: 0x2ADF8, symBinAddr: 0x10002C4A8, symSize: 0x424 }
  - { offsetInCU: 0x23927, offset: 0x23927, size: 0x8, addend: 0x0, symName: __ZNSt3__121__unwrap_and_dispatchB7v160006INS_10__overloadINS_11__move_loopINS_17_ClassicAlgPolicyEEENS_14__move_trivialEEENS_16reverse_iteratorIPiEES9_S9_Li0EEENS_4pairIT0_T2_EESB_T1_SC_, symObjAddr: 0x2B21C, symBinAddr: 0x10002C8CC, symSize: 0x880 }
  - { offsetInCU: 0x239CD, offset: 0x239CD, size: 0x8, addend: 0x0, symName: __ZNSt3__114__unwrap_rangeB7v160006INS_16reverse_iteratorIPiEES3_EENS_4pairIT0_S5_EET_S7_, symObjAddr: 0x2BA9C, symBinAddr: 0x10002D14C, symSize: 0x448 }
  - { offsetInCU: 0x23B50, offset: 0x23B50, size: 0x8, addend: 0x0, symName: __ZNSt3__113__unwrap_iterB7v160006INS_16reverse_iteratorIPiEENS_18__unwrap_iter_implIS3_Lb0EEELi0EEEDTclsrT0_8__unwrapclsr3stdE7declvalIT_EEEES7_, symObjAddr: 0x2C2DC, symBinAddr: 0x10002D98C, symSize: 0x2EC }
  - { offsetInCU: 0x23B98, offset: 0x23B98, size: 0x8, addend: 0x0, symName: __ZNSt3__19make_pairB7v160006INS_16reverse_iteratorIPiEES3_EENS_4pairINS_18__unwrap_ref_decayIT_E4typeENS5_IT0_E4typeEEEOS6_OS9_, symObjAddr: 0x2C5C8, symBinAddr: 0x10002DC78, symSize: 0x38 }
  - { offsetInCU: 0x23BE7, offset: 0x23BE7, size: 0x8, addend: 0x0, symName: __ZNSt3__114__rewrap_rangeB7v160006INS_16reverse_iteratorIPiEES3_EET_S4_T0_, symObjAddr: 0x2C600, symBinAddr: 0x10002DCB0, symSize: 0x3D4 }
  - { offsetInCU: 0x23C3B, offset: 0x23C3B, size: 0x8, addend: 0x0, symName: __ZNSt3__113__rewrap_iterB7v160006INS_16reverse_iteratorIPiEES3_NS_18__unwrap_iter_implIS3_Lb0EEEEET_S6_T0_, symObjAddr: 0x2C9D4, symBinAddr: 0x10002E084, symSize: 0x3E8 }
  - { offsetInCU: 0x23C98, offset: 0x23C98, size: 0x8, addend: 0x0, symName: __ZNSt3__1neB7v160006IPiS1_EEbRKNS_16reverse_iteratorIT_EERKNS2_IT0_EE, symObjAddr: 0x2CDBC, symBinAddr: 0x10002E46C, symSize: 0x48 }
  - { offsetInCU: 0x23E47, offset: 0x23E47, size: 0x8, addend: 0x0, symName: __ZNSt3__122__make_exception_guardB7v160006INS_6vectorIiNS_9allocatorIiEEE16__destroy_vectorEEENS_28__exception_guard_exceptionsIT_EES7_, symObjAddr: 0x2DEC8, symBinAddr: 0x10002F578, symSize: 0x278 }
  - { offsetInCU: 0x23E81, offset: 0x23E81, size: 0x8, addend: 0x0, symName: __ZNSt3__119__debug_db_insert_cB7v160006INS_6vectorIiNS_9allocatorIiEEEEEEvPT_, symObjAddr: 0x2E140, symBinAddr: 0x10002F7F0, symSize: 0x10 }
  - { offsetInCU: 0x23EB2, offset: 0x23EB2, size: 0x8, addend: 0x0, symName: __ZNSt3__130__uninitialized_allocator_copyB7v160006INS_9allocatorIiEEiiLPv0EEEPT0_RT_PKS4_S9_S5_, symObjAddr: 0x2F05C, symBinAddr: 0x10003070C, symSize: 0x38 }
  - { offsetInCU: 0x23F2B, offset: 0x23F2B, size: 0x8, addend: 0x0, symName: __ZNSt3__14copyB7v160006IPKiPiEET0_T_S5_S4_, symObjAddr: 0x2F094, symBinAddr: 0x100030744, symSize: 0x26C }
  - { offsetInCU: 0x23F88, offset: 0x23F88, size: 0x8, addend: 0x0, symName: __ZNSt3__16__copyB7v160006INS_17_ClassicAlgPolicyEPKiS3_PiEENS_4pairIT0_T2_EES6_T1_S7_, symObjAddr: 0x2F300, symBinAddr: 0x1000309B0, symSize: 0x22C }
  - { offsetInCU: 0x23FF7, offset: 0x23FF7, size: 0x8, addend: 0x0, symName: __ZNSt3__123__dispatch_copy_or_moveB7v160006INS_17_ClassicAlgPolicyENS_11__copy_loopIS1_EENS_14__copy_trivialEPKiS6_PiEENS_4pairIT2_T4_EES9_T3_SA_, symObjAddr: 0x2F52C, symBinAddr: 0x100030BDC, symSize: 0x22C }
  - { offsetInCU: 0x24078, offset: 0x24078, size: 0x8, addend: 0x0, symName: __ZNSt3__121__unwrap_and_dispatchB7v160006INS_10__overloadINS_11__copy_loopINS_17_ClassicAlgPolicyEEENS_14__copy_trivialEEEPKiS8_PiLi0EEENS_4pairIT0_T2_EESB_T1_SC_, symObjAddr: 0x2F758, symBinAddr: 0x100030E08, symSize: 0x5A4 }
  - { offsetInCU: 0x24113, offset: 0x24113, size: 0x8, addend: 0x0, symName: __ZNSt3__114__unwrap_rangeB7v160006IPKiS2_EENS_4pairIT0_S4_EET_S6_, symObjAddr: 0x2FCFC, symBinAddr: 0x1000313AC, symSize: 0x350 }
  - { offsetInCU: 0x242AA, offset: 0x242AA, size: 0x8, addend: 0x0, symName: __ZNSt3__113__unwrap_iterB7v160006IPiNS_18__unwrap_iter_implIS1_Lb1EEELi0EEEDTclsrT0_8__unwrapclsr3stdE7declvalIT_EEEES5_, symObjAddr: 0x3027C, symBinAddr: 0x10003192C, symSize: 0x24 }
  - { offsetInCU: 0x242EE, offset: 0x242EE, size: 0x8, addend: 0x0, symName: __ZNSt3__19make_pairB7v160006IPKiPiEENS_4pairINS_18__unwrap_ref_decayIT_E4typeENS5_IT0_E4typeEEEOS6_OS9_, symObjAddr: 0x302A0, symBinAddr: 0x100031950, symSize: 0x20C }
  - { offsetInCU: 0x2433F, offset: 0x2433F, size: 0x8, addend: 0x0, symName: __ZNSt3__114__rewrap_rangeB7v160006IPKiS2_EET_S3_T0_, symObjAddr: 0x304AC, symBinAddr: 0x100031B5C, symSize: 0x2C }
  - { offsetInCU: 0x2438B, offset: 0x2438B, size: 0x8, addend: 0x0, symName: __ZNSt3__113__rewrap_iterB7v160006IPiS1_NS_18__unwrap_iter_implIS1_Lb1EEEEET_S4_T0_, symObjAddr: 0x304D8, symBinAddr: 0x100031B88, symSize: 0x48 }
  - { offsetInCU: 0x243E0, offset: 0x243E0, size: 0x8, addend: 0x0, symName: __ZNSt3__19make_pairB7v160006IPKiS2_EENS_4pairINS_18__unwrap_ref_decayIT_E4typeENS4_IT0_E4typeEEEOS5_OS8_, symObjAddr: 0x30520, symBinAddr: 0x100031BD0, symSize: 0x20C }
  - { offsetInCU: 0x24431, offset: 0x24431, size: 0x8, addend: 0x0, symName: __ZNSt3__113__unwrap_iterB7v160006IPKiNS_18__unwrap_iter_implIS2_Lb1EEELi0EEEDTclsrT0_8__unwrapclsr3stdE7declvalIT_EEEES6_, symObjAddr: 0x3072C, symBinAddr: 0x100031DDC, symSize: 0x24 }
  - { offsetInCU: 0x2459D, offset: 0x2459D, size: 0x8, addend: 0x0, symName: __ZNSt3__112__to_addressB7v160006IKiEEPT_S3_, symObjAddr: 0x308E8, symBinAddr: 0x100031F98, symSize: 0x14 }
  - { offsetInCU: 0x245D2, offset: 0x245D2, size: 0x8, addend: 0x0, symName: __ZNSt3__119__copy_trivial_implB7v160006IKiiEENS_4pairIPT_PT0_EES4_S4_S6_, symObjAddr: 0x308FC, symBinAddr: 0x100031FAC, symSize: 0x3B8 }
  - { offsetInCU: 0x24642, offset: 0x24642, size: 0x8, addend: 0x0, symName: __ZNSt3__19make_pairB7v160006IRPKiPiEENS_4pairINS_18__unwrap_ref_decayIT_E4typeENS6_IT0_E4typeEEEOS7_OSA_, symObjAddr: 0x30CB4, symBinAddr: 0x100032364, symSize: 0x20C }
  - { offsetInCU: 0x246E6, offset: 0x246E6, size: 0x8, addend: 0x0, symName: __ZNSt3__113__rewrap_iterB7v160006IPKiS2_NS_18__unwrap_iter_implIS2_Lb1EEEEET_S5_T0_, symObjAddr: 0x311CC, symBinAddr: 0x10003287C, symSize: 0x48 }
  - { offsetInCU: 0x24772, offset: 0x24772, size: 0x8, addend: 0x0, symName: __ZNSt3__116forward_as_tupleB7v160006IJRKNS_12basic_stringIcNS_11char_traitsIcEENS_9allocatorIcEEEEEEENS_5tupleIJDpOT_EEESC_, symObjAddr: 0x3215C, symBinAddr: 0x10003380C, symSize: 0x1F8 }
  - { offsetInCU: 0x247AD, offset: 0x247AD, size: 0x8, addend: 0x0, symName: __ZNSt3__116forward_as_tupleB7v160006IJEEENS_5tupleIJDpOT_EEES4_, symObjAddr: 0x32354, symBinAddr: 0x100033A04, symSize: 0x4 }
  - { offsetInCU: 0x247D2, offset: 0x247D2, size: 0x8, addend: 0x0, symName: __ZNSt3__116__is_hash_power2B7v160006Em, symObjAddr: 0x327FC, symBinAddr: 0x100033EAC, symSize: 0x50 }
  - { offsetInCU: 0x24828, offset: 0x24828, size: 0x8, addend: 0x0, symName: __ZNSt3__13getB7v160006ILm0EJRKNS_12basic_stringIcNS_11char_traitsIcEENS_9allocatorIcEEEEEEERNS_13tuple_elementIXT_ENS_5tupleIJDpT0_EEEE4typeERSD_, symObjAddr: 0x33578, symBinAddr: 0x100034C28, symSize: 0x24 }
  - { offsetInCU: 0x2486B, offset: 0x2486B, size: 0x8, addend: 0x0, symName: __ZNSt3__116__next_hash_pow2B7v160006Em, symObjAddr: 0x346F8, symBinAddr: 0x100035DA8, symSize: 0x6C }
  - { offsetInCU: 0x24898, offset: 0x24898, size: 0x8, addend: 0x0, symName: __ZNSt3__125__debug_db_invalidate_allB7v160006INS_12__hash_tableINS_17__hash_value_typeINS_12basic_stringIcNS_11char_traitsIcEENS_9allocatorIcEEEENS_6vectorIiNS6_IiEEEEEENS_22__unordered_map_hasherIS8_SC_NS_4hashIS8_EENS_8equal_toIS8_EELb1EEENS_21__unordered_map_equalIS8_SC_SH_SF_Lb1EEENS6_ISC_EEEEEEvPT_, symObjAddr: 0x34764, symBinAddr: 0x100035E14, symSize: 0x10 }
  - { offsetInCU: 0x248CA, offset: 0x248CA, size: 0x8, addend: 0x0, symName: __ZNSt3__112__libcpp_clzB7v160006Em, symObjAddr: 0x34944, symBinAddr: 0x100035FF4, symSize: 0x1C }
  - { offsetInCU: 0x2491B, offset: 0x2491B, size: 0x8, addend: 0x0, symName: __ZNSt3__115__debug_db_swapB7v160006INS_6vectorIiNS_9allocatorIiEEEEEEvPT_S6_, symObjAddr: 0x35314, symBinAddr: 0x1000369C4, symSize: 0x14 }
  - { offsetInCU: 0x2495A, offset: 0x2495A, size: 0x8, addend: 0x0, symName: __ZNSt3__1neB7v160006IPKiEEbRKNS_11__wrap_iterIT_EES7_, symObjAddr: 0x35BF0, symBinAddr: 0x1000372A0, symSize: 0x34 }
  - { offsetInCU: 0x2499D, offset: 0x2499D, size: 0x8, addend: 0x0, symName: __ZNSt3__1eqB7v160006IPKiEEbRKNS_11__wrap_iterIT_EES7_, symObjAddr: 0x36240, symBinAddr: 0x1000378F0, symSize: 0x48 }
  - { offsetInCU: 0x249E1, offset: 0x249E1, size: 0x8, addend: 0x0, symName: __ZNSt3__115__debug_db_swapB7v160006INS_12__hash_tableINS_17__hash_value_typeINS_12basic_stringIcNS_11char_traitsIcEENS_9allocatorIcEEEENS_6vectorIiNS6_IiEEEEEENS_22__unordered_map_hasherIS8_SC_NS_4hashIS8_EENS_8equal_toIS8_EELb1EEENS_21__unordered_map_equalIS8_SC_SH_SF_Lb1EEENS6_ISC_EEEEEEvPT_SO_, symObjAddr: 0x36BB8, symBinAddr: 0x100038268, symSize: 0x14 }
  - { offsetInCU: 0x24E67, offset: 0x24E67, size: 0x8, addend: 0x0, symName: __ZNSt3__122__libcpp_thread_createB7v160006EPP17_opaque_pthread_tPFPvS3_ES3_, symObjAddr: 0x38470, symBinAddr: 0x100039B20, symSize: 0x38 }
  - { offsetInCU: 0x24EB4, offset: 0x24EB4, size: 0x8, addend: 0x0, symName: '__ZNSt3__114__thread_proxyB7v160006INS_5tupleIJNS_10unique_ptrINS_15__thread_structENS_14default_deleteIS3_EEEEZ4mainE3$_0EEEEEPvS9_', symObjAddr: 0x384A8, symBinAddr: 0x100039B58, symSize: 0x2B4 }
  - { offsetInCU: 0x25001, offset: 0x25001, size: 0x8, addend: 0x0, symName: '__ZNSt3__13getB7v160006ILm0EJNS_10unique_ptrINS_15__thread_structENS_14default_deleteIS2_EEEEZ4mainE3$_0EEERNS_13tuple_elementIXT_ENS_5tupleIJDpT0_EEEE4typeERSB_', symObjAddr: 0x39A8C, symBinAddr: 0x10003B13C, symSize: 0x24 }
  - { offsetInCU: 0x2504A, offset: 0x2504A, size: 0x8, addend: 0x0, symName: '__ZNSt3__116__thread_executeB7v160006INS_10unique_ptrINS_15__thread_structENS_14default_deleteIS2_EEEEZ4mainE3$_0JEJEEEvRNS_5tupleIJT_T0_DpT1_EEENS_15__tuple_indicesIJXspT2_EEEE', symObjAddr: 0x39AB0, symBinAddr: 0x10003B160, symSize: 0x28 }
  - { offsetInCU: 0x2509C, offset: 0x2509C, size: 0x8, addend: 0x0, symName: __ZNSt3__116__libcpp_tls_setB7v160006EmPv, symObjAddr: 0x39AD8, symBinAddr: 0x10003B188, symSize: 0x2C }
  - { offsetInCU: 0x250DA, offset: 0x250DA, size: 0x8, addend: 0x0, symName: '__ZNSt3__18__invokeB7v160006IZ4mainE3$_0JEEEDTclclsr3stdE7declvalIT_EEspclsr3stdE7declvalIT0_EEEEOS2_DpOS3_', symObjAddr: 0x39B18, symBinAddr: 0x10003B1C8, symSize: 0x24 }
  - { offsetInCU: 0x25113, offset: 0x25113, size: 0x8, addend: 0x0, symName: '__ZNSt3__13getB7v160006ILm1EJNS_10unique_ptrINS_15__thread_structENS_14default_deleteIS2_EEEEZ4mainE3$_0EEERNS_13tuple_elementIXT_ENS_5tupleIJDpT0_EEEE4typeERSB_', symObjAddr: 0x39B3C, symBinAddr: 0x10003B1EC, symSize: 0x28 }
  - { offsetInCU: 0x2515B, offset: 0x2515B, size: 0x8, addend: 0x0, symName: __ZNSt3__119__allocate_at_leastB7v160006INS_9allocatorINS_6threadEEEEENS_19__allocation_resultINS_16allocator_traitsIT_E7pointerEEERS6_m, symObjAddr: 0x3B90C, symBinAddr: 0x10003CFBC, symSize: 0x28C }
  - { offsetInCU: 0x251A0, offset: 0x251A0, size: 0x8, addend: 0x0, symName: __ZNSt3__142__uninitialized_allocator_move_if_noexceptB7v160006INS_9allocatorINS_6threadEEENS_16reverse_iteratorIPS2_EES6_S6_EET2_RT_T0_T1_S7_, symObjAddr: 0x3BDA8, symBinAddr: 0x10003D458, symSize: 0x544 }
  - { offsetInCU: 0x25255, offset: 0x25255, size: 0x8, addend: 0x0, symName: __ZNSt3__14swapB7v160006IPNS_6threadEEENS_9enable_ifIXaasr21is_move_constructibleIT_EE5valuesr18is_move_assignableIS4_EE5valueEvE4typeERS4_S7_, symObjAddr: 0x3C384, symBinAddr: 0x10003DA34, symSize: 0x134 }
  - { offsetInCU: 0x252A8, offset: 0x252A8, size: 0x8, addend: 0x0, symName: __ZNSt3__125__debug_db_invalidate_allB7v160006INS_6vectorINS_6threadENS_9allocatorIS2_EEEEEEvPT_, symObjAddr: 0x3C578, symBinAddr: 0x10003DC28, symSize: 0x10 }
  - { offsetInCU: 0x252D9, offset: 0x252D9, size: 0x8, addend: 0x0, symName: __ZNSt3__122__make_exception_guardB7v160006INS_29_AllocatorDestroyRangeReverseINS_9allocatorINS_6threadEEENS_16reverse_iteratorIPS3_EEEEEENS_28__exception_guard_exceptionsIT_EESA_, symObjAddr: 0x3C588, symBinAddr: 0x10003DC38, symSize: 0x1F8 }
  - { offsetInCU: 0x25310, offset: 0x25310, size: 0x8, addend: 0x0, symName: __ZNSt3__1neB7v160006IPNS_6threadES2_EEbRKNS_16reverse_iteratorIT_EERKNS3_IT0_EE, symObjAddr: 0x3C7C4, symBinAddr: 0x10003DE74, symSize: 0x48 }
  - { offsetInCU: 0x2535C, offset: 0x2535C, size: 0x8, addend: 0x0, symName: __ZNSt3__112__to_addressB7v160006INS_16reverse_iteratorIPNS_6threadEEEvEENS_5decayIDTclsr19__to_address_helperIT_EE6__callclsr3stdE7declvalIRKS6_EEEEE4typeES8_, symObjAddr: 0x3C840, symBinAddr: 0x10003DEF0, symSize: 0x24 }
  - { offsetInCU: 0x253BC, offset: 0x253BC, size: 0x8, addend: 0x0, symName: __ZNSt3__119__allocator_destroyB7v160006INS_9allocatorINS_6threadEEENS_16reverse_iteratorINS4_IPS2_EEEES7_EEvRT_T0_T1_, symObjAddr: 0x3D1F8, symBinAddr: 0x10003E8A8, symSize: 0x70 }
  - { offsetInCU: 0x25421, offset: 0x25421, size: 0x8, addend: 0x0, symName: __ZNSt3__1neB7v160006INS_16reverse_iteratorIPNS_6threadEEES4_EEbRKNS1_IT_EERKNS1_IT0_EE, symObjAddr: 0x3D4B0, symBinAddr: 0x10003EB60, symSize: 0x2CC }
  - { offsetInCU: 0x2546F, offset: 0x2546F, size: 0x8, addend: 0x0, symName: __ZNSt3__112__to_addressB7v160006INS_16reverse_iteratorINS1_IPNS_6threadEEEEEvEENS_5decayIDTclsr19__to_address_helperIT_EE6__callclsr3stdE7declvalIRKS7_EEEEE4typeES9_, symObjAddr: 0x3D77C, symBinAddr: 0x10003EE2C, symSize: 0x24 }
  - { offsetInCU: 0x254CE, offset: 0x254CE, size: 0x8, addend: 0x0, symName: __ZNSt3__13getB7v160006ILm0EKNS_12basic_stringIcNS_11char_traitsIcEENS_9allocatorIcEEEENS_6vectorIiNS4_IiEEEEEERKNS_13tuple_elementIXT_ENS_4pairIT0_T1_EEE4typeERKSF_, symObjAddr: 0x3E614, symBinAddr: 0x10003FCC4, symSize: 0x24 }
  - { offsetInCU: 0x25518, offset: 0x25518, size: 0x8, addend: 0x0, symName: __ZNSt3__13getB7v160006ILm1EKNS_12basic_stringIcNS_11char_traitsIcEENS_9allocatorIcEEEENS_6vectorIiNS4_IiEEEEEERKNS_13tuple_elementIXT_ENS_4pairIT0_T1_EEE4typeERKSF_, symObjAddr: 0x3E638, symBinAddr: 0x10003FCE8, symSize: 0x24 }
  - { offsetInCU: 0x25562, offset: 0x25562, size: 0x8, addend: 0x0, symName: __ZNSt3__1eqB7v160006ERKNS_19__hash_map_iteratorINS_15__hash_iteratorIPNS_11__hash_nodeINS_17__hash_value_typeINS_12basic_stringIcNS_11char_traitsIcEENS_9allocatorIcEEEES9_EEPvEEEEEESH_, symObjAddr: 0x3E65C, symBinAddr: 0x10003FD0C, symSize: 0x30 }
  - { offsetInCU: 0x25669, offset: 0x25669, size: 0x8, addend: 0x0, symName: __ZNSt3__1eqB7v160006ERKNS_15__hash_iteratorIPNS_11__hash_nodeINS_17__hash_value_typeINS_12basic_stringIcNS_11char_traitsIcEENS_9allocatorIcEEEES8_EEPvEEEESF_, symObjAddr: 0x3F430, symBinAddr: 0x100040AE0, symSize: 0xB8 }
  - { offsetInCU: 0x256A6, offset: 0x256A6, size: 0x8, addend: 0x0, symName: __ZNSt3__17launderB7v160006IKNS_4pairIKNS_12basic_stringIcNS_11char_traitsIcEENS_9allocatorIcEEEES7_EEEEPT_SC_, symObjAddr: 0x40164, symBinAddr: 0x100041814, symSize: 0x24 }
  - { offsetInCU: 0x256DE, offset: 0x256DE, size: 0x8, addend: 0x0, symName: __ZNSt3__19__launderB7v160006IKNS_4pairIKNS_12basic_stringIcNS_11char_traitsIcEENS_9allocatorIcEEEES7_EEEEPT_SC_, symObjAddr: 0x40188, symBinAddr: 0x100041838, symSize: 0x14 }
  - { offsetInCU: 0x25734, offset: 0x25734, size: 0x8, addend: 0x0, symName: __ZNSt3__125__debug_db_invalidate_allB7v160006INS_12__hash_tableINS_17__hash_value_typeINS_12basic_stringIcNS_11char_traitsIcEENS_9allocatorIcEEEES8_EENS_22__unordered_map_hasherIS8_S9_NS_4hashIS8_EENS_8equal_toIS8_EELb1EEENS_21__unordered_map_equalIS8_S9_SE_SC_Lb1EEENS6_IS9_EEEEEEvPT_, symObjAddr: 0x431CC, symBinAddr: 0x10004487C, symSize: 0x10 }
  - { offsetInCU: 0x25798, offset: 0x25798, size: 0x8, addend: 0x0, symName: __ZNSt3__1neB7v160006ERKNS_19__hash_map_iteratorINS_15__hash_iteratorIPNS_11__hash_nodeINS_17__hash_value_typeINS_12basic_stringIcNS_11char_traitsIcEENS_9allocatorIcEEEES9_EEPvEEEEEESH_, symObjAddr: 0x43FA4, symBinAddr: 0x100045654, symSize: 0x30 }
  - { offsetInCU: 0x257D5, offset: 0x257D5, size: 0x8, addend: 0x0, symName: __ZNSt3__13getB7v160006ILm0EKNS_12basic_stringIcNS_11char_traitsIcEENS_9allocatorIcEEEES6_EERKNS_13tuple_elementIXT_ENS_4pairIT0_T1_EEE4typeERKSC_, symObjAddr: 0x43FFC, symBinAddr: 0x1000456AC, symSize: 0x24 }
  - { offsetInCU: 0x2581F, offset: 0x2581F, size: 0x8, addend: 0x0, symName: __ZNSt3__13getB7v160006ILm1EKNS_12basic_stringIcNS_11char_traitsIcEENS_9allocatorIcEEEES6_EERKNS_13tuple_elementIXT_ENS_4pairIT0_T1_EEE4typeERKSC_, symObjAddr: 0x44020, symBinAddr: 0x1000456D0, symSize: 0x24 }
  - { offsetInCU: 0x25869, offset: 0x25869, size: 0x8, addend: 0x0, symName: __ZNSt3__1neB7v160006ERKNS_15__hash_iteratorIPNS_11__hash_nodeINS_17__hash_value_typeINS_12basic_stringIcNS_11char_traitsIcEENS_9allocatorIcEEEES8_EEPvEEEESF_, symObjAddr: 0x442B4, symBinAddr: 0x100045964, symSize: 0x34 }
  - { offsetInCU: 0x258A6, offset: 0x258A6, size: 0x8, addend: 0x0, symName: __ZNSt3__13minB7v160006IiEERKT_S3_S3_, symObjAddr: 0x45C94, symBinAddr: 0x100047344, symSize: 0x2C }
  - { offsetInCU: 0x258EA, offset: 0x258EA, size: 0x8, addend: 0x0, symName: __ZNSt3__14sortB7v160006INS_11__wrap_iterIPNS_12basic_stringIcNS_11char_traitsIcEENS_9allocatorIcEEEEEEEEvT_SA_, symObjAddr: 0x45FBC, symBinAddr: 0x10004766C, symSize: 0x348 }
  - { offsetInCU: 0x25934, offset: 0x25934, size: 0x8, addend: 0x0, symName: __ZNSt3__13minB7v160006IiNS_6__lessIiiEEEERKT_S5_S5_T0_, symObjAddr: 0x46384, symBinAddr: 0x100047A34, symSize: 0x1E8 }
  - { offsetInCU: 0x259CF, offset: 0x259CF, size: 0x8, addend: 0x0, symName: __ZNSt3__18distanceB7v160006INS_11__wrap_iterIPNS_12basic_stringIcNS_11char_traitsIcEENS_9allocatorIcEEEEEEEENS_15iterator_traitsIT_E15difference_typeESB_SB_, symObjAddr: 0x46D64, symBinAddr: 0x100048414, symSize: 0x350 }
  - { offsetInCU: 0x25A1A, offset: 0x25A1A, size: 0x8, addend: 0x0, symName: __ZNSt3__110__distanceB7v160006INS_11__wrap_iterIPNS_12basic_stringIcNS_11char_traitsIcEENS_9allocatorIcEEEEEEEENS_15iterator_traitsIT_E15difference_typeESB_SB_NS_26random_access_iterator_tagE, symObjAddr: 0x475FC, symBinAddr: 0x100048CAC, symSize: 0x274 }
  - { offsetInCU: 0x25A70, offset: 0x25A70, size: 0x8, addend: 0x0, symName: __ZNSt3__1miB7v160006IPNS_12basic_stringIcNS_11char_traitsIcEENS_9allocatorIcEEEES7_EEDTmicldtfp_4baseEcldtfp0_4baseEERKNS_11__wrap_iterIT_EERKNS9_IT0_EE, symObjAddr: 0x47870, symBinAddr: 0x100048F20, symSize: 0x48 }
  - { offsetInCU: 0x25ABC, offset: 0x25ABC, size: 0x8, addend: 0x0, symName: __ZNSt3__130__uninitialized_allocator_copyB7v160006INS_9allocatorINS_12basic_stringIcNS_11char_traitsIcEENS1_IcEEEEEENS_11__wrap_iterIPS6_EESA_S9_EET2_RT_T0_T1_SB_, symObjAddr: 0x478B8, symBinAddr: 0x100048F68, symSize: 0x5BC }
  - { offsetInCU: 0x25B71, offset: 0x25B71, size: 0x8, addend: 0x0, symName: __ZNSt3__14sortB7v160006INS_11__wrap_iterIPNS_12basic_stringIcNS_11char_traitsIcEENS_9allocatorIcEEEEEENS_6__lessIS7_S7_EEEEvT_SC_T0_, symObjAddr: 0x47E74, symBinAddr: 0x100049524, symSize: 0x36C }
  - { offsetInCU: 0x25BD8, offset: 0x25BD8, size: 0x8, addend: 0x0, symName: __ZNSt3__111__sort_implB7v160006INS_17_ClassicAlgPolicyENS_11__wrap_iterIPNS_12basic_stringIcNS_11char_traitsIcEENS_9allocatorIcEEEEEENS_6__lessIS8_S8_EEEEvT0_SD_RT1_, symObjAddr: 0x481E0, symBinAddr: 0x100049890, symSize: 0x43C }
  - { offsetInCU: 0x25C8C, offset: 0x25C8C, size: 0x8, addend: 0x0, symName: __ZNSt3__123__debug_randomize_rangeB7v160006INS_17_ClassicAlgPolicyENS_11__wrap_iterIPNS_12basic_stringIcNS_11char_traitsIcEENS_9allocatorIcEEEEEESA_EEvT0_T1_, symObjAddr: 0x4861C, symBinAddr: 0x100049CCC, symSize: 0x264 }
  - { offsetInCU: 0x25CE6, offset: 0x25CE6, size: 0x8, addend: 0x0, symName: __ZNSt3__16__sortIRNS_6__lessINS_12basic_stringIcNS_11char_traitsIcEENS_9allocatorIcEEEES7_EEPS7_EEvT0_SB_T_, symObjAddr: 0x48880, symBinAddr: 0x100049F30, symSize: 0x68 }
  - { offsetInCU: 0x25D76, offset: 0x25D76, size: 0x8, addend: 0x0, symName: __ZNSt3__113__unwrap_iterB7v160006INS_11__wrap_iterIPNS_12basic_stringIcNS_11char_traitsIcEENS_9allocatorIcEEEEEENS_18__unwrap_iter_implIS9_Lb1EEELi0EEEDTclsrT0_8__unwrapclsr3stdE7declvalIT_EEEESD_, symObjAddr: 0x488E8, symBinAddr: 0x100049F98, symSize: 0x274 }
  - { offsetInCU: 0x25DBE, offset: 0x25DBE, size: 0x8, addend: 0x0, symName: __ZNSt3__17__log2iB7v160006IlEET_S1_, symObjAddr: 0x48B5C, symBinAddr: 0x10004A20C, symSize: 0x54 }
  - { offsetInCU: 0x25E63, offset: 0x25E63, size: 0x8, addend: 0x0, symName: __ZNSt3__124__sort3_maybe_branchlessB7v160006INS_17_ClassicAlgPolicyERNS_6__lessINS_12basic_stringIcNS_11char_traitsIcEENS_9allocatorIcEEEES8_EEPS8_EENS_9enable_ifIXntsr21__use_branchless_sortIT0_T1_EE5valueEvE4typeESE_SE_SE_SD_, symObjAddr: 0x4AB60, symBinAddr: 0x10004C210, symSize: 0x3C }
  - { offsetInCU: 0x25ED4, offset: 0x25ED4, size: 0x8, addend: 0x0, symName: __ZNSt3__124__sort4_maybe_branchlessB7v160006INS_17_ClassicAlgPolicyERNS_6__lessINS_12basic_stringIcNS_11char_traitsIcEENS_9allocatorIcEEEES8_EEPS8_EENS_9enable_ifIXntsr21__use_branchless_sortIT0_T1_EE5valueEvE4typeESE_SE_SE_SE_SD_, symObjAddr: 0x4AB9C, symBinAddr: 0x10004C24C, symSize: 0x44 }
  - { offsetInCU: 0x25F59, offset: 0x25F59, size: 0x8, addend: 0x0, symName: __ZNSt3__124__sort5_maybe_branchlessB7v160006INS_17_ClassicAlgPolicyERNS_6__lessINS_12basic_stringIcNS_11char_traitsIcEENS_9allocatorIcEEEES8_EEPS8_EENS_9enable_ifIXntsr21__use_branchless_sortIT0_T1_EE5valueEvE4typeESE_SE_SE_SE_SE_SD_, symObjAddr: 0x4ABE0, symBinAddr: 0x10004C290, symSize: 0x4C }
  - { offsetInCU: 0x25FED, offset: 0x25FED, size: 0x8, addend: 0x0, symName: __ZNSt3__114__partial_sortB7v160006INS_17_ClassicAlgPolicyERNS_6__lessINS_12basic_stringIcNS_11char_traitsIcEENS_9allocatorIcEEEES8_EEPS8_SB_EET1_SC_SC_T2_RT0_, symObjAddr: 0x4B2CC, symBinAddr: 0x10004C97C, symSize: 0x94 }
  - { offsetInCU: 0x26076, offset: 0x26076, size: 0x8, addend: 0x0, symName: __ZNSt3__119__sort5_wrap_policyB7v160006INS_17_ClassicAlgPolicyERNS_6__lessINS_12basic_stringIcNS_11char_traitsIcEENS_9allocatorIcEEEES8_EEPS8_EEjT1_SC_SC_SC_SC_T0_, symObjAddr: 0x4B360, symBinAddr: 0x10004CA10, symSize: 0x54 }
  - { offsetInCU: 0x2611D, offset: 0x2611D, size: 0x8, addend: 0x0, symName: __ZNSt3__17__sort3B7v160006INS_17_ClassicAlgPolicyERNS_6__lessINS_12basic_stringIcNS_11char_traitsIcEENS_9allocatorIcEEEES8_EEPS8_EEjT1_SC_SC_T0_, symObjAddr: 0x4B3B4, symBinAddr: 0x10004CA64, symSize: 0x66C }
  - { offsetInCU: 0x261AB, offset: 0x261AB, size: 0x8, addend: 0x0, symName: __ZNSt3__1ltB7v160006IcNS_11char_traitsIcEENS_9allocatorIcEEEEbRKNS_12basic_stringIT_T0_T1_EESB_, symObjAddr: 0x4C768, symBinAddr: 0x10004DE18, symSize: 0x38 }
  - { offsetInCU: 0x26228, offset: 0x26228, size: 0x8, addend: 0x0, symName: __ZNSt3__19iter_swapB7v160006IPNS_12basic_stringIcNS_11char_traitsIcEENS_9allocatorIcEEEES7_EEvT_T0_, symObjAddr: 0x4D2C4, symBinAddr: 0x10004E974, symSize: 0x2C }
  - { offsetInCU: 0x26271, offset: 0x26271, size: 0x8, addend: 0x0, symName: __ZNSt3__14swapB7v160006IcNS_11char_traitsIcEENS_9allocatorIcEEEEvRNS_12basic_stringIT_T0_T1_EESA_, symObjAddr: 0x4D2F0, symBinAddr: 0x10004E9A0, symSize: 0x2C }
  - { offsetInCU: 0x262C5, offset: 0x262C5, size: 0x8, addend: 0x0, symName: __ZNSt3__14swapB7v160006INS_12basic_stringIcNS_11char_traitsIcEENS_9allocatorIcEEE5__repEEENS_9enable_ifIXaasr21is_move_constructibleIT_EE5valuesr18is_move_assignableIS9_EE5valueEvE4typeERS9_SC_, symObjAddr: 0x4D3C4, symBinAddr: 0x10004EA74, symSize: 0x234 }
  - { offsetInCU: 0x2631E, offset: 0x2631E, size: 0x8, addend: 0x0, symName: __ZNSt3__116__swap_allocatorB7v160006INS_9allocatorIcEEEEvRT_S4_, symObjAddr: 0x4D5F8, symBinAddr: 0x10004ECA8, symSize: 0x2C }
  - { offsetInCU: 0x2635E, offset: 0x2635E, size: 0x8, addend: 0x0, symName: __ZNSt3__116__swap_allocatorB7v160006INS_9allocatorIcEEEEvRT_S4_NS_17integral_constantIbLb0EEE, symObjAddr: 0x4D624, symBinAddr: 0x10004ECD4, symSize: 0x14 }
  - { offsetInCU: 0x2639F, offset: 0x2639F, size: 0x8, addend: 0x0, symName: __ZNSt3__17__sort4B7v160006INS_17_ClassicAlgPolicyERNS_6__lessINS_12basic_stringIcNS_11char_traitsIcEENS_9allocatorIcEEEES8_EEPS8_EEjT1_SC_SC_SC_T0_, symObjAddr: 0x4D638, symBinAddr: 0x10004ECE8, symSize: 0x608 }
  - { offsetInCU: 0x26465, offset: 0x26465, size: 0x8, addend: 0x0, symName: __ZNSt3__123__debug_randomize_rangeB7v160006INS_17_ClassicAlgPolicyEPNS_12basic_stringIcNS_11char_traitsIcEENS_9allocatorIcEEEES8_EEvT0_T1_, symObjAddr: 0x4DCC8, symBinAddr: 0x10004F378, symSize: 0x14 }
  - { offsetInCU: 0x264B6, offset: 0x264B6, size: 0x8, addend: 0x0, symName: __ZNSt3__119__partial_sort_implB7v160006INS_17_ClassicAlgPolicyERNS_6__lessINS_12basic_stringIcNS_11char_traitsIcEENS_9allocatorIcEEEES8_EEPS8_SB_EET1_SC_SC_T2_OT0_, symObjAddr: 0x4DCDC, symBinAddr: 0x10004F38C, symSize: 0x59C }
  - { offsetInCU: 0x2655B, offset: 0x2655B, size: 0x8, addend: 0x0, symName: __ZNSt3__111__make_heapB7v160006INS_17_ClassicAlgPolicyERNS_6__lessINS_12basic_stringIcNS_11char_traitsIcEENS_9allocatorIcEEEES8_EEPS8_EEvT1_SC_OT0_, symObjAddr: 0x4E278, symBinAddr: 0x10004F928, symSize: 0xC4 }
  - { offsetInCU: 0x26602, offset: 0x26602, size: 0x8, addend: 0x0, symName: __ZNSt3__111__sort_heapB7v160006INS_17_ClassicAlgPolicyERNS_6__lessINS_12basic_stringIcNS_11char_traitsIcEENS_9allocatorIcEEEES8_EEPS8_EEvT1_SC_OT0_, symObjAddr: 0x4EBE4, symBinAddr: 0x100050294, symSize: 0x94 }
  - { offsetInCU: 0x2669A, offset: 0x2669A, size: 0x8, addend: 0x0, symName: __ZNSt3__110__pop_heapB7v160006INS_17_ClassicAlgPolicyENS_6__lessINS_12basic_stringIcNS_11char_traitsIcEENS_9allocatorIcEEEES8_EEPS8_EEvT1_SB_RT0_NS_15iterator_traitsISB_E15difference_typeE, symObjAddr: 0x4EC78, symBinAddr: 0x100050328, symSize: 0x578 }
  - { offsetInCU: 0x26756, offset: 0x26756, size: 0x8, addend: 0x0, symName: __ZNSt3__19__sift_upB7v160006INS_17_ClassicAlgPolicyERNS_6__lessINS_12basic_stringIcNS_11char_traitsIcEENS_9allocatorIcEEEES8_EEPS8_EEvT1_SC_OT0_NS_15iterator_traitsISC_E15difference_typeE, symObjAddr: 0x4F5C4, symBinAddr: 0x100050C74, symSize: 0x66C }
  - { offsetInCU: 0x26807, offset: 0x26807, size: 0x8, addend: 0x0, symName: __ZNSt3__17__sort5IRNS_6__lessINS_12basic_stringIcNS_11char_traitsIcEENS_9allocatorIcEEEES7_EEPS7_EEjT0_SB_SB_SB_SB_T_, symObjAddr: 0x4FC30, symBinAddr: 0x1000512E0, symSize: 0x760 }
  - { offsetInCU: 0x26920, offset: 0x26920, size: 0x8, addend: 0x0, symName: __ZNSt3__112__to_addressB7v160006INS_11__wrap_iterIPNS_12basic_stringIcNS_11char_traitsIcEENS_9allocatorIcEEEEEEvEENS_5decayIDTclsr19__to_address_helperIT_EE6__callclsr3stdE7declvalIRKSB_EEEEE4typeESD_, symObjAddr: 0x50580, symBinAddr: 0x100051C30, symSize: 0x24 }
  - { offsetInCU: 0x26C3D, offset: 0x26C3D, size: 0x8, addend: 0x0, symName: __ZNSt3__122__make_exception_guardB7v160006INS_6vectorINS_14basic_ifstreamIcNS_11char_traitsIcEEEENS_9allocatorIS5_EEE16__destroy_vectorEEENS_28__exception_guard_exceptionsIT_EESB_, symObjAddr: 0x519AC, symBinAddr: 0x10005305C, symSize: 0x278 }
  - { offsetInCU: 0x26C77, offset: 0x26C77, size: 0x8, addend: 0x0, symName: __ZNSt3__119__debug_db_insert_cB7v160006INS_6vectorINS_14basic_ifstreamIcNS_11char_traitsIcEEEENS_9allocatorIS5_EEEEEEvPT_, symObjAddr: 0x51C58, symBinAddr: 0x100053308, symSize: 0x10 }
  - { offsetInCU: 0x26CA8, offset: 0x26CA8, size: 0x8, addend: 0x0, symName: __ZNSt3__119__allocate_at_leastB7v160006INS_9allocatorINS_14basic_ifstreamIcNS_11char_traitsIcEEEEEEEENS_19__allocation_resultINS_16allocator_traitsIT_E7pointerEEERS9_m, symObjAddr: 0x52E64, symBinAddr: 0x100054514, symSize: 0x28C }
  - { offsetInCU: 0x26CEE, offset: 0x26CEE, size: 0x8, addend: 0x0, symName: __ZNSt3__112__to_addressB7v160006INS_14basic_ifstreamIcNS_11char_traitsIcEEEEEEPT_S6_, symObjAddr: 0x53508, symBinAddr: 0x100054BB8, symSize: 0x14 }
  - { offsetInCU: 0x26D24, offset: 0x26D24, size: 0x8, addend: 0x0, symName: __ZNSt3__118__debug_db_erase_cB7v160006INS_6vectorINS_14basic_ifstreamIcNS_11char_traitsIcEEEENS_9allocatorIS5_EEEEEEvPT_, symObjAddr: 0x542D8, symBinAddr: 0x100055988, symSize: 0x10 }
  - { offsetInCU: 0x26D56, offset: 0x26D56, size: 0x8, addend: 0x0, symName: __ZNSt3__119__debug_db_insert_cB7v160006INS_6vectorIN6SorterINS_12basic_stringIcNS_11char_traitsIcEENS_9allocatorIcEEEEE9QueueNodeENS6_ISA_EEEEEEvPT_, symObjAddr: 0x54940, symBinAddr: 0x100055FF0, symSize: 0x10 }
  - { offsetInCU: 0x26D88, offset: 0x26D88, size: 0x8, addend: 0x0, symName: __ZNSt3__19push_heapB7v160006INS_11__wrap_iterIPN6SorterINS_12basic_stringIcNS_11char_traitsIcEENS_9allocatorIcEEEEE9QueueNodeEEENS_7greaterIvEEEEvT_SF_T0_, symObjAddr: 0x54B40, symBinAddr: 0x1000561F0, symSize: 0x36C }
  - { offsetInCU: 0x26DEB, offset: 0x26DEB, size: 0x8, addend: 0x0, symName: __ZNSt3__112__to_addressB7v160006IN6SorterINS_12basic_stringIcNS_11char_traitsIcEENS_9allocatorIcEEEEE9QueueNodeEEEPT_SB_, symObjAddr: 0x55BA4, symBinAddr: 0x100057254, symSize: 0x14 }
  - { offsetInCU: 0x26E20, offset: 0x26E20, size: 0x8, addend: 0x0, symName: __ZNSt3__119__allocate_at_leastB7v160006INS_9allocatorIN6SorterINS_12basic_stringIcNS_11char_traitsIcEENS1_IcEEEEE9QueueNodeEEEEENS_19__allocation_resultINS_16allocator_traitsIT_E7pointerEEERSD_m, symObjAddr: 0x57884, symBinAddr: 0x100058F34, symSize: 0x28C }
  - { offsetInCU: 0x26E65, offset: 0x26E65, size: 0x8, addend: 0x0, symName: __ZNSt3__142__uninitialized_allocator_move_if_noexceptB7v160006INS_9allocatorIN6SorterINS_12basic_stringIcNS_11char_traitsIcEENS1_IcEEEEE9QueueNodeEEENS_16reverse_iteratorIPS9_EESD_SD_EET2_RT_T0_T1_SE_, symObjAddr: 0x57DEC, symBinAddr: 0x10005949C, symSize: 0x544 }
  - { offsetInCU: 0x26F1A, offset: 0x26F1A, size: 0x8, addend: 0x0, symName: __ZNSt3__14swapB7v160006IPN6SorterINS_12basic_stringIcNS_11char_traitsIcEENS_9allocatorIcEEEEE9QueueNodeEEENS_9enable_ifIXaasr21is_move_constructibleIT_EE5valuesr18is_move_assignableISC_EE5valueEvE4typeERSC_SF_, symObjAddr: 0x583C8, symBinAddr: 0x100059A78, symSize: 0x134 }
  - { offsetInCU: 0x26F6D, offset: 0x26F6D, size: 0x8, addend: 0x0, symName: __ZNSt3__125__debug_db_invalidate_allB7v160006INS_6vectorIN6SorterINS_12basic_stringIcNS_11char_traitsIcEENS_9allocatorIcEEEEE9QueueNodeENS6_ISA_EEEEEEvPT_, symObjAddr: 0x585BC, symBinAddr: 0x100059C6C, symSize: 0x10 }
  - { offsetInCU: 0x26F9E, offset: 0x26F9E, size: 0x8, addend: 0x0, symName: __ZNSt3__122__make_exception_guardB7v160006INS_29_AllocatorDestroyRangeReverseINS_9allocatorIN6SorterINS_12basic_stringIcNS_11char_traitsIcEENS2_IcEEEEE9QueueNodeEEENS_16reverse_iteratorIPSA_EEEEEENS_28__exception_guard_exceptionsIT_EESH_, symObjAddr: 0x585CC, symBinAddr: 0x100059C7C, symSize: 0x1F8 }
  - { offsetInCU: 0x26FD5, offset: 0x26FD5, size: 0x8, addend: 0x0, symName: __ZNSt3__1neB7v160006IPN6SorterINS_12basic_stringIcNS_11char_traitsIcEENS_9allocatorIcEEEEE9QueueNodeESA_EEbRKNS_16reverse_iteratorIT_EERKNSB_IT0_EE, symObjAddr: 0x58808, symBinAddr: 0x100059EB8, symSize: 0x48 }
  - { offsetInCU: 0x27021, offset: 0x27021, size: 0x8, addend: 0x0, symName: __ZNSt3__112__to_addressB7v160006INS_16reverse_iteratorIPN6SorterINS_12basic_stringIcNS_11char_traitsIcEENS_9allocatorIcEEEEE9QueueNodeEEEvEENS_5decayIDTclsr19__to_address_helperIT_EE6__callclsr3stdE7declvalIRKSE_EEEEE4typeESG_, symObjAddr: 0x58850, symBinAddr: 0x100059F00, symSize: 0x24 }
  - { offsetInCU: 0x27081, offset: 0x27081, size: 0x8, addend: 0x0, symName: __ZNSt3__119__allocator_destroyB7v160006INS_9allocatorIN6SorterINS_12basic_stringIcNS_11char_traitsIcEENS1_IcEEEEE9QueueNodeEEENS_16reverse_iteratorINSB_IPS9_EEEESE_EEvRT_T0_T1_, symObjAddr: 0x590B4, symBinAddr: 0x10005A764, symSize: 0x70 }
  - { offsetInCU: 0x270E6, offset: 0x270E6, size: 0x8, addend: 0x0, symName: __ZNSt3__1neB7v160006INS_16reverse_iteratorIPN6SorterINS_12basic_stringIcNS_11char_traitsIcEENS_9allocatorIcEEEEE9QueueNodeEEESC_EEbRKNS1_IT_EERKNS1_IT0_EE, symObjAddr: 0x5936C, symBinAddr: 0x10005AA1C, symSize: 0x2CC }
  - { offsetInCU: 0x27134, offset: 0x27134, size: 0x8, addend: 0x0, symName: __ZNSt3__112__to_addressB7v160006INS_16reverse_iteratorINS1_IPN6SorterINS_12basic_stringIcNS_11char_traitsIcEENS_9allocatorIcEEEEE9QueueNodeEEEEEvEENS_5decayIDTclsr19__to_address_helperIT_EE6__callclsr3stdE7declvalIRKSF_EEEEE4typeESH_, symObjAddr: 0x59664, symBinAddr: 0x10005AD14, symSize: 0x24 }
  - { offsetInCU: 0x27194, offset: 0x27194, size: 0x8, addend: 0x0, symName: __ZNSt3__111__push_heapB7v160006INS_17_ClassicAlgPolicyENS_11__wrap_iterIPN6SorterINS_12basic_stringIcNS_11char_traitsIcEENS_9allocatorIcEEEEE9QueueNodeEEENS_7greaterIvEEEEvT0_SG_RT1_, symObjAddr: 0x5A2BC, symBinAddr: 0x10005B96C, symSize: 0x37C }
  - { offsetInCU: 0x2720C, offset: 0x2720C, size: 0x8, addend: 0x0, symName: __ZNSt3__1miB7v160006IPN6SorterINS_12basic_stringIcNS_11char_traitsIcEENS_9allocatorIcEEEEE9QueueNodeESA_EEDTmicldtfp_4baseEcldtfp0_4baseEERKNS_11__wrap_iterIT_EERKNSC_IT0_EE, symObjAddr: 0x5A638, symBinAddr: 0x10005BCE8, symSize: 0x48 }
  - { offsetInCU: 0x27259, offset: 0x27259, size: 0x8, addend: 0x0, symName: __ZNSt3__19__sift_upB7v160006INS_17_ClassicAlgPolicyERNS_7greaterIvEENS_11__wrap_iterIPN6SorterINS_12basic_stringIcNS_11char_traitsIcEENS_9allocatorIcEEEEE9QueueNodeEEEEEvT1_SH_OT0_NS_15iterator_traitsISH_E15difference_typeE, symObjAddr: 0x5A680, symBinAddr: 0x10005BD30, symSize: 0x5E4 }
  - { offsetInCU: 0x27332, offset: 0x27332, size: 0x8, addend: 0x0, symName: __ZNSt3__1gtB7v160006IcNS_11char_traitsIcEENS_9allocatorIcEEEEbRKNS_12basic_stringIT_T0_T1_EESB_, symObjAddr: 0x5B1B0, symBinAddr: 0x10005C860, symSize: 0x30 }
  - { offsetInCU: 0x2738B, offset: 0x2738B, size: 0x8, addend: 0x0, symName: __ZNSt3__18pop_heapB7v160006INS_11__wrap_iterIPN6SorterINS_12basic_stringIcNS_11char_traitsIcEENS_9allocatorIcEEEEE9QueueNodeEEENS_7greaterIvEEEEvT_SF_T0_, symObjAddr: 0x5B7A0, symBinAddr: 0x10005CE50, symSize: 0x388 }
  - { offsetInCU: 0x273FE, offset: 0x273FE, size: 0x8, addend: 0x0, symName: __ZNSt3__110__pop_heapB7v160006INS_17_ClassicAlgPolicyENS_7greaterIvEENS_11__wrap_iterIPN6SorterINS_12basic_stringIcNS_11char_traitsIcEENS_9allocatorIcEEEEE9QueueNodeEEEEEvT1_SG_RT0_NS_15iterator_traitsISG_E15difference_typeE, symObjAddr: 0x5BB94, symBinAddr: 0x10005D244, symSize: 0x604 }
  - { offsetInCU: 0x274BD, offset: 0x274BD, size: 0x8, addend: 0x0, symName: __ZNSt3__1eqB7v160006IPN6SorterINS_12basic_stringIcNS_11char_traitsIcEENS_9allocatorIcEEEEE9QueueNodeEEEbRKNS_11__wrap_iterIT_EESF_, symObjAddr: 0x5C638, symBinAddr: 0x10005DCE8, symSize: 0x48 }
  - { offsetInCU: 0x27501, offset: 0x27501, size: 0x8, addend: 0x0, symName: __ZNSt3__118__debug_db_erase_cB7v160006INS_6vectorIN6SorterINS_12basic_stringIcNS_11char_traitsIcEENS_9allocatorIcEEEEE9QueueNodeENS6_ISA_EEEEEEvPT_, symObjAddr: 0x5D644, symBinAddr: 0x10005ECF4, symSize: 0x10 }
  - { offsetInCU: 0x27947, offset: 0x27947, size: 0x8, addend: 0x0, symName: '__ZNSt3__114__thread_proxyB7v160006INS_5tupleIJNS_10unique_ptrINS_15__thread_structENS_14default_deleteIS3_EEEEZ4mainE3$_1EEEEEPvS9_', symObjAddr: 0x5E4C8, symBinAddr: 0x10005FB78, symSize: 0x2B4 }
  - { offsetInCU: 0x279AD, offset: 0x279AD, size: 0x8, addend: 0x0, symName: '__ZNSt3__13getB7v160006ILm0EJNS_10unique_ptrINS_15__thread_structENS_14default_deleteIS2_EEEEZ4mainE3$_1EEERNS_13tuple_elementIXT_ENS_5tupleIJDpT0_EEEE4typeERSB_', symObjAddr: 0x5EDE0, symBinAddr: 0x100060490, symSize: 0x24 }
  - { offsetInCU: 0x279F6, offset: 0x279F6, size: 0x8, addend: 0x0, symName: '__ZNSt3__116__thread_executeB7v160006INS_10unique_ptrINS_15__thread_structENS_14default_deleteIS2_EEEEZ4mainE3$_1JEJEEEvRNS_5tupleIJT_T0_DpT1_EEENS_15__tuple_indicesIJXspT2_EEEE', symObjAddr: 0x5EE04, symBinAddr: 0x1000604B4, symSize: 0x28 }
  - { offsetInCU: 0x27A49, offset: 0x27A49, size: 0x8, addend: 0x0, symName: '__ZNSt3__18__invokeB7v160006IZ4mainE3$_1JEEEDTclclsr3stdE7declvalIT_EEspclsr3stdE7declvalIT0_EEEEOS2_DpOS3_', symObjAddr: 0x5EE2C, symBinAddr: 0x1000604DC, symSize: 0x24 }
  - { offsetInCU: 0x27A82, offset: 0x27A82, size: 0x8, addend: 0x0, symName: '__ZNSt3__13getB7v160006ILm1EJNS_10unique_ptrINS_15__thread_structENS_14default_deleteIS2_EEEEZ4mainE3$_1EEERNS_13tuple_elementIXT_ENS_5tupleIJDpT0_EEEE4typeERSB_', symObjAddr: 0x5EE50, symBinAddr: 0x100060500, symSize: 0x28 }
  - { offsetInCU: 0x27AEE, offset: 0x27AEE, size: 0x8, addend: 0x0, symName: __ZNSt3__18distanceB7v160006IPKcEENS_15iterator_traitsIT_E15difference_typeES4_S4_, symObjAddr: 0x60960, symBinAddr: 0x100062010, symSize: 0x2C }
  - { offsetInCU: 0x27B32, offset: 0x27B32, size: 0x8, addend: 0x0, symName: __ZNSt3__110__distanceB7v160006IPKcEENS_15iterator_traitsIT_E15difference_typeES4_S4_NS_26random_access_iterator_tagE, symObjAddr: 0x60ABC, symBinAddr: 0x10006216C, symSize: 0x20 }
  - { offsetInCU: 0x27B7F, offset: 0x27B7F, size: 0x8, addend: 0x0, symName: __ZNSt3__119__allocate_at_leastB7v160006INS_9allocatorIcEEEENS_19__allocation_resultINS_16allocator_traitsIT_E7pointerEEERS5_m, symObjAddr: 0x61250, symBinAddr: 0x100062900, symSize: 0x28C }
  - { offsetInCU: 0x2861E, offset: 0x2861E, size: 0x8, addend: 0x0, symName: __ZSt28__throw_bad_array_new_lengthB7v160006v, symObjAddr: 0x17824, symBinAddr: 0x100018ED4, symSize: 0x38 }
  - { offsetInCU: 0x2864C, offset: 0x2864C, size: 0x8, addend: 0x0, symName: _.str.29, symObjAddr: 0x64AE0, symBinAddr: 0x100066CA0, symSize: 0x0 }
  - { offsetInCU: 0x28669, offset: 0x28669, size: 0x8, addend: 0x0, symName: _.str.30, symObjAddr: 0x64DC0, symBinAddr: 0x100066E80, symSize: 0x0 }
  - { offsetInCU: 0x28686, offset: 0x28686, size: 0x8, addend: 0x0, symName: _.str.31, symObjAddr: 0x64B20, symBinAddr: 0x100066CE0, symSize: 0x0 }
  - { offsetInCU: 0x286A4, offset: 0x286A4, size: 0x8, addend: 0x0, symName: _.str.32, symObjAddr: 0x64B40, symBinAddr: 0x100066D00, symSize: 0x0 }
  - { offsetInCU: 0x29154, offset: 0x29154, size: 0x8, addend: 0x0, symName: __ZNKSt3__16chrono15__duration_castINS0_8durationIxNS_5ratioILl1ELl1000000EEEEENS2_IxNS3_ILl1ELl1000EEEEES6_Lb1ELb0EEclB7v160006ERKS5_, symObjAddr: 0xC6F8, symBinAddr: 0x10000DDA8, symSize: 0x298 }
  - { offsetInCU: 0x2956E, offset: 0x2956E, size: 0x8, addend: 0x0, symName: __ZNSt3__16vectorINS_12basic_stringIcNS_11char_traitsIcEENS_9allocatorIcEEEENS4_IS6_EEE26__swap_out_circular_bufferERNS_14__split_bufferIS6_RS7_EE, symObjAddr: 0x15F44, symBinAddr: 0x1000175F4, symSize: 0x574 }
  - { offsetInCU: 0x2A3A3, offset: 0x2A3A3, size: 0x8, addend: 0x0, symName: __ZNSt3__16vectorIiNS_9allocatorIiEEE26__swap_out_circular_bufferERNS_14__split_bufferIiRS2_EE, symObjAddr: 0x28A30, symBinAddr: 0x10002A0E0, symSize: 0x574 }
  - { offsetInCU: 0x2A6F1, offset: 0x2A6F1, size: 0x8, addend: 0x0, symName: _main, symObjAddr: 0x1D30, symBinAddr: 0x1000033E0, symSize: 0x265C }
  - { offsetInCU: 0x2AAEF, offset: 0x2AAEF, size: 0x8, addend: 0x0, symName: __ZNSt3__16vectorINS_6threadENS_9allocatorIS1_EEE26__swap_out_circular_bufferERNS_14__split_bufferIS1_RS3_EE, symObjAddr: 0x3AA5C, symBinAddr: 0x10003C10C, symSize: 0x574 }
  - { offsetInCU: 0x2B73F, offset: 0x2B73F, size: 0x8, addend: 0x0, symName: __ZNSt3__16vectorIN6SorterINS_12basic_stringIcNS_11char_traitsIcEENS_9allocatorIcEEEEE9QueueNodeENS5_IS9_EEE26__swap_out_circular_bufferERNS_14__split_bufferIS9_RSA_EE, symObjAddr: 0x569D4, symBinAddr: 0x100058084, symSize: 0x574 }
  - { offsetInCU: 0x2DA3C, offset: 0x2DA3C, size: 0x8, addend: 0x0, symName: __ZN12RecordReaderC2ERKNSt3__112basic_stringIcNS0_11char_traitsIcEENS0_9allocatorIcEEEEi, symObjAddr: 0x0, symBinAddr: 0x1000016B0, symSize: 0x178 }
  - { offsetInCU: 0x2DA83, offset: 0x2DA83, size: 0x8, addend: 0x0, symName: __ZNSt3__114basic_ifstreamIcNS_11char_traitsIcEEEC1ERKNS_12basic_stringIcS2_NS_9allocatorIcEEEEj, symObjAddr: 0x178, symBinAddr: 0x100001828, symSize: 0x2AC }
  - { offsetInCU: 0x2DACD, offset: 0x2DACD, size: 0x8, addend: 0x0, symName: __ZNSt3__16vectorINS_12basic_stringIcNS_11char_traitsIcEENS_9allocatorIcEEEENS4_IS6_EEEC1B7v160006Ev, symObjAddr: 0x424, symBinAddr: 0x100001AD4, symSize: 0x2C }
  - { offsetInCU: 0x2DAF7, offset: 0x2DAF7, size: 0x8, addend: 0x0, symName: __ZNKSt3__114basic_ifstreamIcNS_11char_traitsIcEEE7is_openEv, symObjAddr: 0x450, symBinAddr: 0x100001B00, symSize: 0x2C }
  - { offsetInCU: 0x2DB1F, offset: 0x2DB1F, size: 0x8, addend: 0x0, symName: __ZNSt3__113basic_ostreamIcNS_11char_traitsIcEEElsB7v160006EPFRS3_S4_E, symObjAddr: 0x510, symBinAddr: 0x100001BC0, symSize: 0x2C }
  - { offsetInCU: 0x2DB53, offset: 0x2DB53, size: 0x8, addend: 0x0, symName: __ZN12RecordReader10readSplitsEv, symObjAddr: 0x610, symBinAddr: 0x100001CC0, symSize: 0x7A8 }
  - { offsetInCU: 0x2DBB1, offset: 0x2DBB1, size: 0x8, addend: 0x0, symName: __ZNSt3__16vectorINS_12basic_stringIcNS_11char_traitsIcEENS_9allocatorIcEEEENS4_IS6_EEED1B7v160006Ev, symObjAddr: 0xDB8, symBinAddr: 0x100002468, symSize: 0x2C }
  - { offsetInCU: 0x2DBE1, offset: 0x2DBE1, size: 0x8, addend: 0x0, symName: __ZNSt3__114basic_ifstreamIcNS_11char_traitsIcEEED1Ev, symObjAddr: 0xDE4, symBinAddr: 0x100002494, symSize: 0x40 }
  - { offsetInCU: 0x2DC0E, offset: 0x2DC0E, size: 0x8, addend: 0x0, symName: __ZN12RecordReaderC1ERKNSt3__112basic_stringIcNS0_11char_traitsIcEENS0_9allocatorIcEEEEi, symObjAddr: 0xE24, symBinAddr: 0x1000024D4, symSize: 0x3C }
  - { offsetInCU: 0x2DC55, offset: 0x2DC55, size: 0x8, addend: 0x0, symName: __ZNSt3__112basic_stringIcNS_11char_traitsIcEENS_9allocatorIcEEEC1B7v160006Ev, symObjAddr: 0xE60, symBinAddr: 0x100002510, symSize: 0x2C }
  - { offsetInCU: 0x2DC7F, offset: 0x2DC7F, size: 0x8, addend: 0x0, symName: __ZNKSt3__19basic_iosIcNS_11char_traitsIcEEEcvbB7v160006Ev, symObjAddr: 0xF64, symBinAddr: 0x100002614, symSize: 0x2C }
  - { offsetInCU: 0x2DCA5, offset: 0x2DCA5, size: 0x8, addend: 0x0, symName: __ZNKSt3__112basic_stringIcNS_11char_traitsIcEENS_9allocatorIcEEE5emptyB7v160006Ev, symObjAddr: 0xF90, symBinAddr: 0x100002640, symSize: 0x30 }
  - { offsetInCU: 0x2DCCB, offset: 0x2DCCB, size: 0x8, addend: 0x0, symName: __ZNSt3__16vectorINS_12basic_stringIcNS_11char_traitsIcEENS_9allocatorIcEEEENS4_IS6_EEE9push_backB7v160006ERKS6_, symObjAddr: 0xFC0, symBinAddr: 0x100002670, symSize: 0xE0 }
  - { offsetInCU: 0x2DD02, offset: 0x2DD02, size: 0x8, addend: 0x0, symName: __ZNSt3__16vectorINS_12basic_stringIcNS_11char_traitsIcEENS_9allocatorIcEEEENS4_IS6_EEE9push_backB7v160006EOS6_, symObjAddr: 0x10A0, symBinAddr: 0x100002750, symSize: 0xE0 }
  - { offsetInCU: 0x2DD39, offset: 0x2DD39, size: 0x8, addend: 0x0, symName: __ZN12RecordReader4joinERKNSt3__16vectorINS0_12basic_stringIcNS0_11char_traitsIcEENS0_9allocatorIcEEEENS5_IS7_EEEERKS7_, symObjAddr: 0x1180, symBinAddr: 0x100002830, symSize: 0x414 }
  - { offsetInCU: 0x2DDE2, offset: 0x2DDE2, size: 0x8, addend: 0x0, symName: __ZNSt3__112basic_stringIcNS_11char_traitsIcEENS_9allocatorIcEEEC1B7v160006IDnEEPKc, symObjAddr: 0x1594, symBinAddr: 0x100002C44, symSize: 0x34 }
  - { offsetInCU: 0x2DE20, offset: 0x2DE20, size: 0x8, addend: 0x0, symName: __ZNSt3__16vectorINS_12basic_stringIcNS_11char_traitsIcEENS_9allocatorIcEEEENS4_IS6_EEE5clearB7v160006Ev, symObjAddr: 0x15C8, symBinAddr: 0x100002C78, symSize: 0x4C }
  - { offsetInCU: 0x2DE55, offset: 0x2DE55, size: 0x8, addend: 0x0, symName: __ZNKSt3__16vectorINS_12basic_stringIcNS_11char_traitsIcEENS_9allocatorIcEEEENS4_IS6_EEE5emptyB7v160006Ev, symObjAddr: 0x1614, symBinAddr: 0x100002CC4, symSize: 0xB0 }
  - { offsetInCU: 0x2DE7B, offset: 0x2DE7B, size: 0x8, addend: 0x0, symName: __ZNKSt3__16vectorINS_12basic_stringIcNS_11char_traitsIcEENS_9allocatorIcEEEENS4_IS6_EEE5beginB7v160006Ev, symObjAddr: 0x16C4, symBinAddr: 0x100002D74, symSize: 0x268 }
  - { offsetInCU: 0x2DEA4, offset: 0x2DEA4, size: 0x8, addend: 0x0, symName: __ZNKSt3__16vectorINS_12basic_stringIcNS_11char_traitsIcEENS_9allocatorIcEEEENS4_IS6_EEE3endB7v160006Ev, symObjAddr: 0x192C, symBinAddr: 0x100002FDC, symSize: 0x26C }
  - { offsetInCU: 0x2DECD, offset: 0x2DECD, size: 0x8, addend: 0x0, symName: __ZNKSt3__111__wrap_iterIPKNS_12basic_stringIcNS_11char_traitsIcEENS_9allocatorIcEEEEEdeB7v160006Ev, symObjAddr: 0x1BCC, symBinAddr: 0x10000327C, symSize: 0x60 }
  - { offsetInCU: 0x2DEF3, offset: 0x2DEF3, size: 0x8, addend: 0x0, symName: __ZNSt3__112basic_stringIcNS_11char_traitsIcEENS_9allocatorIcEEEpLB7v160006ERKS5_, symObjAddr: 0x1C2C, symBinAddr: 0x1000032DC, symSize: 0x2C }
  - { offsetInCU: 0x2DF28, offset: 0x2DF28, size: 0x8, addend: 0x0, symName: __ZNSt3__111__wrap_iterIPKNS_12basic_stringIcNS_11char_traitsIcEENS_9allocatorIcEEEEEppB7v160006Ev, symObjAddr: 0x1C58, symBinAddr: 0x100003308, symSize: 0x68 }
  - { offsetInCU: 0x2DF4E, offset: 0x2DF4E, size: 0x8, addend: 0x0, symName: __ZNK12RecordReader9getSplitsEv, symObjAddr: 0x1CC0, symBinAddr: 0x100003370, symSize: 0x3C }
  - { offsetInCU: 0x2DF75, offset: 0x2DF75, size: 0x8, addend: 0x0, symName: __ZNSt3__16vectorINS_12basic_stringIcNS_11char_traitsIcEENS_9allocatorIcEEEENS4_IS6_EEEC1ERKS8_, symObjAddr: 0x1CFC, symBinAddr: 0x1000033AC, symSize: 0x34 }
  - { offsetInCU: 0x2DFB5, offset: 0x2DFB5, size: 0x8, addend: 0x0, symName: __ZN6myutil11removeFilesERKNSt3__112basic_stringIcNS0_11char_traitsIcEENS0_9allocatorIcEEEE, symObjAddr: 0x438C, symBinAddr: 0x100005A3C, symSize: 0x4F0 }
  - { offsetInCU: 0x2E02F, offset: 0x2E02F, size: 0x8, addend: 0x0, symName: __ZN6myutil16printMapoutFilesEi, symObjAddr: 0x79FC, symBinAddr: 0x1000090AC, symSize: 0xCC4 }
  - { offsetInCU: 0x2E10C, offset: 0x2E10C, size: 0x8, addend: 0x0, symName: __ZN6myutil19printPartitionFilesEv, symObjAddr: 0x86C8, symBinAddr: 0x100009D78, symSize: 0x894 }
  - { offsetInCU: 0x2E1B9, offset: 0x2E1B9, size: 0x8, addend: 0x0, symName: __ZN6myutil5splitERKNSt3__112basic_stringIcNS0_11char_traitsIcEENS0_9allocatorIcEEEES6_, symObjAddr: 0x9210, symBinAddr: 0x10000A8C0, symSize: 0xA44 }
  - { offsetInCU: 0x2E298, offset: 0x2E298, size: 0x8, addend: 0x0, symName: __ZNSt3__16vectorINS_6threadENS_9allocatorIS1_EEEC1B7v160006Ev, symObjAddr: 0x487C, symBinAddr: 0x100005F2C, symSize: 0x2C }
  - { offsetInCU: 0x2E2C2, offset: 0x2E2C2, size: 0x8, addend: 0x0, symName: __ZNSt3__16vectorINS_12basic_stringIcNS_11char_traitsIcEENS_9allocatorIcEEEENS4_IS6_EEE5beginB7v160006Ev, symObjAddr: 0x48A8, symBinAddr: 0x100005F58, symSize: 0x268 }
  - { offsetInCU: 0x2E2EB, offset: 0x2E2EB, size: 0x8, addend: 0x0, symName: __ZNSt3__16vectorINS_12basic_stringIcNS_11char_traitsIcEENS_9allocatorIcEEEENS4_IS6_EEE3endB7v160006Ev, symObjAddr: 0x4B10, symBinAddr: 0x1000061C0, symSize: 0x26C }
  - { offsetInCU: 0x2E314, offset: 0x2E314, size: 0x8, addend: 0x0, symName: __ZNKSt3__111__wrap_iterIPNS_12basic_stringIcNS_11char_traitsIcEENS_9allocatorIcEEEEEdeB7v160006Ev, symObjAddr: 0x4DB0, symBinAddr: 0x100006460, symSize: 0x60 }
  - { offsetInCU: 0x2E33A, offset: 0x2E33A, size: 0x8, addend: 0x0, symName: __ZNKSt3__110shared_ptrI15WordCountMapperINS_12basic_stringIcNS_11char_traitsIcEENS_9allocatorIcEEEES7_S7_iEEptB7v160006Ev, symObjAddr: 0x4FF8, symBinAddr: 0x1000066A8, symSize: 0x60 }
  - { offsetInCU: 0x2E360, offset: 0x2E360, size: 0x8, addend: 0x0, symName: __ZN6MapperINSt3__112basic_stringIcNS0_11char_traitsIcEENS0_9allocatorIcEEEES6_S6_iE13setOutputPathES6_, symObjAddr: 0x5058, symBinAddr: 0x100006708, symSize: 0x29C }
  - { offsetInCU: 0x2E39D, offset: 0x2E39D, size: 0x8, addend: 0x0, symName: '__ZNSt3__16vectorINS_6threadENS_9allocatorIS1_EEE12emplace_backIJZ4mainE3$_0EEERS1_DpOT_', symObjAddr: 0x5338, symBinAddr: 0x1000069E8, symSize: 0xE8 }
  - { offsetInCU: 0x2E3DF, offset: 0x2E3DF, size: 0x8, addend: 0x0, symName: __ZNSt3__110shared_ptrI15WordCountMapperINS_12basic_stringIcNS_11char_traitsIcEENS_9allocatorIcEEEES7_S7_iEEC1B7v160006ERKS9_, symObjAddr: 0x5420, symBinAddr: 0x100006AD0, symSize: 0x34 }
  - { offsetInCU: 0x2E418, offset: 0x2E418, size: 0x8, addend: 0x0, symName: __ZNSt3__110shared_ptrI15WordCountMapperINS_12basic_stringIcNS_11char_traitsIcEENS_9allocatorIcEEEES7_S7_iEED1B7v160006Ev, symObjAddr: 0x5454, symBinAddr: 0x100006B04, symSize: 0x2C }
  - { offsetInCU: 0x2E448, offset: 0x2E448, size: 0x8, addend: 0x0, symName: '__ZZ4mainEN3$_0D1Ev', symObjAddr: 0x5480, symBinAddr: 0x100006B30, symSize: 0x2C }
  - { offsetInCU: 0x2E474, offset: 0x2E474, size: 0x8, addend: 0x0, symName: __ZNSt3__111__wrap_iterIPNS_12basic_stringIcNS_11char_traitsIcEENS_9allocatorIcEEEEEppB7v160006Ev, symObjAddr: 0x54AC, symBinAddr: 0x100006B5C, symSize: 0x68 }
  - { offsetInCU: 0x2E49A, offset: 0x2E49A, size: 0x8, addend: 0x0, symName: __ZNSt3__16vectorINS_6threadENS_9allocatorIS1_EEE5beginB7v160006Ev, symObjAddr: 0x5514, symBinAddr: 0x100006BC4, symSize: 0x268 }
  - { offsetInCU: 0x2E4C3, offset: 0x2E4C3, size: 0x8, addend: 0x0, symName: __ZNSt3__16vectorINS_6threadENS_9allocatorIS1_EEE3endB7v160006Ev, symObjAddr: 0x577C, symBinAddr: 0x100006E2C, symSize: 0x26C }
  - { offsetInCU: 0x2E4EC, offset: 0x2E4EC, size: 0x8, addend: 0x0, symName: __ZNKSt3__111__wrap_iterIPNS_6threadEEdeB7v160006Ev, symObjAddr: 0x5A1C, symBinAddr: 0x1000070CC, symSize: 0x60 }
  - { offsetInCU: 0x2E512, offset: 0x2E512, size: 0x8, addend: 0x0, symName: __ZNSt3__111__wrap_iterIPNS_6threadEEppB7v160006Ev, symObjAddr: 0x5A7C, symBinAddr: 0x10000712C, symSize: 0x68 }
  - { offsetInCU: 0x2E538, offset: 0x2E538, size: 0x8, addend: 0x0, symName: __ZNKSt3__16chrono8durationIxNS_5ratioILl1ELl1000EEEE5countB7v160006Ev, symObjAddr: 0x6098, symBinAddr: 0x100007748, symSize: 0x60 }
  - { offsetInCU: 0x2E55E, offset: 0x2E55E, size: 0x8, addend: 0x0, symName: __ZN11PartitionerINSt3__112basic_stringIcNS0_11char_traitsIcEENS0_9allocatorIcEEEEiEC1Ev, symObjAddr: 0x60F8, symBinAddr: 0x1000077A8, symSize: 0x2C }
  - { offsetInCU: 0x2E58A, offset: 0x2E58A, size: 0x8, addend: 0x0, symName: __ZN11PartitionerINSt3__112basic_stringIcNS0_11char_traitsIcEENS0_9allocatorIcEEEEiE16processDirectoryERKS6_, symObjAddr: 0x6124, symBinAddr: 0x1000077D4, symSize: 0xDE0 }
  - { offsetInCU: 0x2E711, offset: 0x2E711, size: 0x8, addend: 0x0, symName: __ZN6SorterINSt3__112basic_stringIcNS0_11char_traitsIcEENS0_9allocatorIcEEEEEC1Ei, symObjAddr: 0x6F04, symBinAddr: 0x1000085B4, symSize: 0x34 }
  - { offsetInCU: 0x2E749, offset: 0x2E749, size: 0x8, addend: 0x0, symName: __ZN11PartitionerINSt3__112basic_stringIcNS0_11char_traitsIcEENS0_9allocatorIcEEEEiE7getKeysEv, symObjAddr: 0x6F38, symBinAddr: 0x1000085E8, symSize: 0x448 }
  - { offsetInCU: 0x2E7EE, offset: 0x2E7EE, size: 0x8, addend: 0x0, symName: __ZN6SorterINSt3__112basic_stringIcNS0_11char_traitsIcEENS0_9allocatorIcEEEEE12externalSortERNS0_6vectorIS6_NS4_IS6_EEEES6_, symObjAddr: 0x7380, symBinAddr: 0x100008A30, symSize: 0x2BC }
  - { offsetInCU: 0x2E844, offset: 0x2E844, size: 0x8, addend: 0x0, symName: __ZNSt3__114basic_ifstreamIcNS_11char_traitsIcEEEC1EPKcj, symObjAddr: 0x763C, symBinAddr: 0x100008CEC, symSize: 0x2AC }
  - { offsetInCU: 0x2E894, offset: 0x2E894, size: 0x8, addend: 0x0, symName: '__ZNSt3__16vectorINS_6threadENS_9allocatorIS1_EEE12emplace_backIJZ4mainE3$_1EEERS1_DpOT_', symObjAddr: 0x78E8, symBinAddr: 0x100008F98, symSize: 0xE8 }
  - { offsetInCU: 0x2E8DC, offset: 0x2E8DC, size: 0x8, addend: 0x0, symName: '__ZZ4mainEN3$_1D1Ev', symObjAddr: 0x79D0, symBinAddr: 0x100009080, symSize: 0x2C }
  - { offsetInCU: 0x2E909, offset: 0x2E909, size: 0x8, addend: 0x0, symName: __ZNSt3__111char_traitsIcE3eofEv, symObjAddr: 0x86C0, symBinAddr: 0x100009D70, symSize: 0x8 }
  - { offsetInCU: 0x2E91D, offset: 0x2E91D, size: 0x8, addend: 0x0, symName: __ZNSt3__16vectorINS_6threadENS_9allocatorIS1_EEED1B7v160006Ev, symObjAddr: 0x8F5C, symBinAddr: 0x10000A60C, symSize: 0x2C }
  - { offsetInCU: 0x2E947, offset: 0x2E947, size: 0x8, addend: 0x0, symName: __ZN11PartitionerINSt3__112basic_stringIcNS0_11char_traitsIcEENS0_9allocatorIcEEEEiED1Ev, symObjAddr: 0x8F88, symBinAddr: 0x10000A638, symSize: 0x2C }
  - { offsetInCU: 0x2E973, offset: 0x2E973, size: 0x8, addend: 0x0, symName: __ZN12RecordReaderD1Ev, symObjAddr: 0x8FB4, symBinAddr: 0x10000A664, symSize: 0x2C }
  - { offsetInCU: 0x2E99F, offset: 0x2E99F, size: 0x8, addend: 0x0, symName: __ZNSt3__14__fs10filesystem4pathC1B7v160006INS_12basic_stringIcNS_11char_traitsIcEENS_9allocatorIcEEEEvEERKT_NS2_6formatE, symObjAddr: 0x8FE0, symBinAddr: 0x10000A690, symSize: 0x3C }
  - { offsetInCU: 0x2E9EE, offset: 0x2E9EE, size: 0x8, addend: 0x0, symName: __ZNSt3__14__fs10filesystem18directory_iteratorC1B7v160006ERKNS1_4pathE, symObjAddr: 0x901C, symBinAddr: 0x10000A6CC, symSize: 0x3C }
  - { offsetInCU: 0x2EA26, offset: 0x2EA26, size: 0x8, addend: 0x0, symName: __ZNSt3__14__fs10filesystem4pathD1B7v160006Ev, symObjAddr: 0x9058, symBinAddr: 0x10000A708, symSize: 0x2C }
  - { offsetInCU: 0x2EA50, offset: 0x2EA50, size: 0x8, addend: 0x0, symName: __ZNSt3__14__fs10filesystem18directory_iteratorC1B7v160006ERKS2_, symObjAddr: 0x90BC, symBinAddr: 0x10000A76C, symSize: 0x34 }
  - { offsetInCU: 0x2EA84, offset: 0x2EA84, size: 0x8, addend: 0x0, symName: __ZNSt3__14__fs10filesystem18directory_iteratorD1B7v160006Ev, symObjAddr: 0x90F0, symBinAddr: 0x10000A7A0, symSize: 0x2C }
  - { offsetInCU: 0x2EAAE, offset: 0x2EAAE, size: 0x8, addend: 0x0, symName: __ZNKSt3__14__fs10filesystem18directory_iteratordeB7v160006Ev, symObjAddr: 0x9184, symBinAddr: 0x10000A834, symSize: 0x24 }
  - { offsetInCU: 0x2EAD4, offset: 0x2EAD4, size: 0x8, addend: 0x0, symName: __ZNKSt3__14__fs10filesystem15directory_entry4pathB7v160006Ev, symObjAddr: 0x91D4, symBinAddr: 0x10000A884, symSize: 0x14 }
  - { offsetInCU: 0x2EAFA, offset: 0x2EAFA, size: 0x8, addend: 0x0, symName: __ZNSt3__14__fs10filesystem18directory_iteratorppB7v160006Ev, symObjAddr: 0x91E8, symBinAddr: 0x10000A898, symSize: 0x28 }
  - { offsetInCU: 0x2EB20, offset: 0x2EB20, size: 0x8, addend: 0x0, symName: __ZNSt3__112basic_stringIcNS_11char_traitsIcEENS_9allocatorIcEEE5beginB7v160006Ev, symObjAddr: 0x9C54, symBinAddr: 0x10000B304, symSize: 0x258 }
  - { offsetInCU: 0x2EB47, offset: 0x2EB47, size: 0x8, addend: 0x0, symName: __ZNSt3__112basic_stringIcNS_11char_traitsIcEENS_9allocatorIcEEE3endB7v160006Ev, symObjAddr: 0x9EAC, symBinAddr: 0x10000B55C, symSize: 0x25C }
  - { offsetInCU: 0x2EB6E, offset: 0x2EB6E, size: 0x8, addend: 0x0, symName: __ZNKSt3__111__wrap_iterIPcEdeB7v160006Ev, symObjAddr: 0xA13C, symBinAddr: 0x10000B7EC, symSize: 0x60 }
  - { offsetInCU: 0x2EB94, offset: 0x2EB94, size: 0x8, addend: 0x0, symName: __ZNSt3__111__wrap_iterIPcEppB7v160006Ev, symObjAddr: 0xA5EC, symBinAddr: 0x10000BC9C, symSize: 0x68 }
  - { offsetInCU: 0x2EC28, offset: 0x2EC28, size: 0x8, addend: 0x0, symName: __ZNSt3__118basic_stringstreamIcNS_11char_traitsIcEENS_9allocatorIcEEEC1B7v160006ERKNS_12basic_stringIcS2_S4_EEj, symObjAddr: 0xA654, symBinAddr: 0x10000BD04, symSize: 0x24C }
  - { offsetInCU: 0x2EC76, offset: 0x2EC76, size: 0x8, addend: 0x0, symName: __ZNSt3__118basic_stringstreamIcNS_11char_traitsIcEENS_9allocatorIcEEED1Ev, symObjAddr: 0xB22C, symBinAddr: 0x10000C8DC, symSize: 0x40 }
  - { offsetInCU: 0x2ECC0, offset: 0x2ECC0, size: 0x8, addend: 0x0, symName: __ZNSt3__114basic_ofstreamIcNS_11char_traitsIcEEEC1ERKNS_12basic_stringIcS2_NS_9allocatorIcEEEEj, symObjAddr: 0xB890, symBinAddr: 0x10000CF40, symSize: 0x2AC }
  - { offsetInCU: 0x2ED0A, offset: 0x2ED0A, size: 0x8, addend: 0x0, symName: __ZNKSt3__114basic_ofstreamIcNS_11char_traitsIcEEE7is_openEv, symObjAddr: 0xBB3C, symBinAddr: 0x10000D1EC, symSize: 0x2C }
  - { offsetInCU: 0x2ED32, offset: 0x2ED32, size: 0x8, addend: 0x0, symName: __ZNKSt3__19basic_iosIcNS_11char_traitsIcEEE3eofB7v160006Ev, symObjAddr: 0xBB68, symBinAddr: 0x10000D218, symSize: 0x28 }
  - { offsetInCU: 0x2ED58, offset: 0x2ED58, size: 0x8, addend: 0x0, symName: __ZNSt3__112basic_stringIcNS_11char_traitsIcEENS_9allocatorIcEEEC1B7v160006EPKcm, symObjAddr: 0xBB90, symBinAddr: 0x10000D240, symSize: 0x3C }
  - { offsetInCU: 0x2EDA0, offset: 0x2EDA0, size: 0x8, addend: 0x0, symName: __ZNSt3__114basic_ifstreamIcNS_11char_traitsIcEEE5closeEv, symObjAddr: 0xBBCC, symBinAddr: 0x10000D27C, symSize: 0xD4 }
  - { offsetInCU: 0x2EDC8, offset: 0x2EDC8, size: 0x8, addend: 0x0, symName: __ZNSt3__114basic_ofstreamIcNS_11char_traitsIcEEE5closeEv, symObjAddr: 0xBCA0, symBinAddr: 0x10000D350, symSize: 0xD4 }
  - { offsetInCU: 0x2EDF6, offset: 0x2EDF6, size: 0x8, addend: 0x0, symName: __ZNSt3__114basic_ofstreamIcNS_11char_traitsIcEEED1Ev, symObjAddr: 0xBD74, symBinAddr: 0x10000D424, symSize: 0x40 }
  - { offsetInCU: 0x2EE23, offset: 0x2EE23, size: 0x8, addend: 0x0, symName: __ZNSt3__114basic_ofstreamIcNS_11char_traitsIcEEEC1EPKcj, symObjAddr: 0xBFD4, symBinAddr: 0x10000D684, symSize: 0x2AC }
  - { offsetInCU: 0x2EE6D, offset: 0x2EE6D, size: 0x8, addend: 0x0, symName: __ZNSt3__114basic_ifstreamIcNS_11char_traitsIcEEED2Ev, symObjAddr: 0xC280, symBinAddr: 0x10000D930, symSize: 0x198 }
  - { offsetInCU: 0x2EEA7, offset: 0x2EEA7, size: 0x8, addend: 0x0, symName: __ZTv0_n24_NSt3__114basic_ifstreamIcNS_11char_traitsIcEEED1Ev, symObjAddr: 0xC418, symBinAddr: 0x10000DAC8, symSize: 0xB0 }
  - { offsetInCU: 0x2EEBE, offset: 0x2EEBE, size: 0x8, addend: 0x0, symName: __ZNKSt3__111__wrap_iterIPKNS_12basic_stringIcNS_11char_traitsIcEENS_9allocatorIcEEEEE4baseB7v160006Ev, symObjAddr: 0xC510, symBinAddr: 0x10000DBC0, symSize: 0x60 }
  - { offsetInCU: 0x2EEE4, offset: 0x2EEE4, size: 0x8, addend: 0x0, symName: __ZNKSt3__111__wrap_iterIPNS_12basic_stringIcNS_11char_traitsIcEENS_9allocatorIcEEEEE4baseB7v160006Ev, symObjAddr: 0xC5B8, symBinAddr: 0x10000DC68, symSize: 0x60 }
  - { offsetInCU: 0x2EF0A, offset: 0x2EF0A, size: 0x8, addend: 0x0, symName: '__ZZ4mainEN3$_0D2Ev', symObjAddr: 0xC618, symBinAddr: 0x10000DCC8, symSize: 0x38 }
  - { offsetInCU: 0x2EF36, offset: 0x2EF36, size: 0x8, addend: 0x0, symName: __ZNKSt3__111__wrap_iterIPNS_6threadEE4baseB7v160006Ev, symObjAddr: 0xC698, symBinAddr: 0x10000DD48, symSize: 0x60 }
  - { offsetInCU: 0x2EF5C, offset: 0x2EF5C, size: 0x8, addend: 0x0, symName: __ZNKSt3__16chrono8durationIxNS_5ratioILl1ELl1000000EEEE5countB7v160006Ev, symObjAddr: 0xC990, symBinAddr: 0x10000E040, symSize: 0x60 }
  - { offsetInCU: 0x2EF93, offset: 0x2EF93, size: 0x8, addend: 0x0, symName: __ZNSt3__16chrono8durationIxNS_5ratioILl1ELl1000EEEEC1B7v160006IxEERKT_PNS_9enable_ifIXaasr14is_convertibleIS8_xEE5valueooL_ZNS_17integral_constantIbLb0EE5valueEEntsr23treat_as_floating_pointIS6_EE5valueEvE4typeE, symObjAddr: 0xC9F0, symBinAddr: 0x10000E0A0, symSize: 0x3C }
  - { offsetInCU: 0x2EFE0, offset: 0x2EFE0, size: 0x8, addend: 0x0, symName: __ZNSt3__16chrono8durationIxNS_5ratioILl1ELl1000EEEEC2B7v160006IxEERKT_PNS_9enable_ifIXaasr14is_convertibleIS8_xEE5valueooL_ZNS_17integral_constantIbLb0EE5valueEEntsr23treat_as_floating_pointIS6_EE5valueEvE4typeE, symObjAddr: 0xCA2C, symBinAddr: 0x10000E0DC, symSize: 0xB4 }
  - { offsetInCU: 0x2F02D, offset: 0x2F02D, size: 0x8, addend: 0x0, symName: __ZNKSt3__16chrono10time_pointINS0_12system_clockENS0_8durationIxNS_5ratioILl1ELl1000000EEEEEE16time_since_epochB7v160006Ev, symObjAddr: 0xCE14, symBinAddr: 0x10000E4C4, symSize: 0x1FC }
  - { offsetInCU: 0x2F054, offset: 0x2F054, size: 0x8, addend: 0x0, symName: __ZNSt3__16chrono8durationIxNS_5ratioILl1ELl1000000EEEEC1B7v160006IxEERKT_PNS_9enable_ifIXaasr14is_convertibleIS8_xEE5valueooL_ZNS_17integral_constantIbLb0EE5valueEEntsr23treat_as_floating_pointIS6_EE5valueEvE4typeE, symObjAddr: 0xD010, symBinAddr: 0x10000E6C0, symSize: 0x3C }
  - { offsetInCU: 0x2F0A1, offset: 0x2F0A1, size: 0x8, addend: 0x0, symName: __ZNSt3__16chrono8durationIxNS_5ratioILl1ELl1000000EEEEC2B7v160006IxEERKT_PNS_9enable_ifIXaasr14is_convertibleIS8_xEE5valueooL_ZNS_17integral_constantIbLb0EE5valueEEntsr23treat_as_floating_pointIS6_EE5valueEvE4typeE, symObjAddr: 0xD04C, symBinAddr: 0x10000E6FC, symSize: 0xB4 }
  - { offsetInCU: 0x2F0EE, offset: 0x2F0EE, size: 0x8, addend: 0x0, symName: __ZN11PartitionerINSt3__112basic_stringIcNS0_11char_traitsIcEENS0_9allocatorIcEEEEiEC2Ev, symObjAddr: 0xD100, symBinAddr: 0x10000E7B0, symSize: 0x74 }
  - { offsetInCU: 0x2F11A, offset: 0x2F11A, size: 0x8, addend: 0x0, symName: __ZNSt3__113unordered_mapINS_12basic_stringIcNS_11char_traitsIcEENS_9allocatorIcEEEES6_NS_4hashIS6_EENS_8equal_toIS6_EENS4_INS_4pairIKS6_S6_EEEEEC1B7v160006Ev, symObjAddr: 0xD174, symBinAddr: 0x10000E824, symSize: 0x2C }
  - { offsetInCU: 0x2F144, offset: 0x2F144, size: 0x8, addend: 0x0, symName: __ZNSt3__113unordered_mapINS_12basic_stringIcNS_11char_traitsIcEENS_9allocatorIcEEEES6_NS_4hashIS6_EENS_8equal_toIS6_EENS4_INS_4pairIKS6_S6_EEEEEC2B7v160006Ev, symObjAddr: 0xD1A0, symBinAddr: 0x10000E850, symSize: 0x48 }
  - { offsetInCU: 0x2F16E, offset: 0x2F16E, size: 0x8, addend: 0x0, symName: __ZNSt3__112__hash_tableINS_17__hash_value_typeINS_12basic_stringIcNS_11char_traitsIcEENS_9allocatorIcEEEES7_EENS_22__unordered_map_hasherIS7_S8_NS_4hashIS7_EENS_8equal_toIS7_EELb1EEENS_21__unordered_map_equalIS7_S8_SD_SB_Lb1EEENS5_IS8_EEEC1Ev, symObjAddr: 0xD1E8, symBinAddr: 0x10000E898, symSize: 0x2C }
  - { offsetInCU: 0x2F19A, offset: 0x2F19A, size: 0x8, addend: 0x0, symName: __ZNSt3__112__hash_tableINS_17__hash_value_typeINS_12basic_stringIcNS_11char_traitsIcEENS_9allocatorIcEEEES7_EENS_22__unordered_map_hasherIS7_S8_NS_4hashIS7_EENS_8equal_toIS7_EELb1EEENS_21__unordered_map_equalIS7_S8_SD_SB_Lb1EEENS5_IS8_EEEC2Ev, symObjAddr: 0xD230, symBinAddr: 0x10000E8E0, symSize: 0x38C }
  - { offsetInCU: 0x2F1C7, offset: 0x2F1C7, size: 0x8, addend: 0x0, symName: __ZNSt3__110unique_ptrIA_PNS_16__hash_node_baseIPNS_11__hash_nodeINS_17__hash_value_typeINS_12basic_stringIcNS_11char_traitsIcEENS_9allocatorIcEEEES9_EEPvEEEENS_25__bucket_list_deallocatorINS7_ISF_EEEEEC1B7v160006ILb1EvEEv, symObjAddr: 0xD5BC, symBinAddr: 0x10000EC6C, symSize: 0x2C }
  - { offsetInCU: 0x2F1FC, offset: 0x2F1FC, size: 0x8, addend: 0x0, symName: __ZNSt3__117__compressed_pairINS_16__hash_node_baseIPNS_11__hash_nodeINS_17__hash_value_typeINS_12basic_stringIcNS_11char_traitsIcEENS_9allocatorIcEEEES9_EEPvEEEENS7_ISC_EEEC1B7v160006ILb1EvEEv, symObjAddr: 0xD5E8, symBinAddr: 0x10000EC98, symSize: 0x2C }
  - { offsetInCU: 0x2F23D, offset: 0x2F23D, size: 0x8, addend: 0x0, symName: __ZNSt3__117__compressed_pairImNS_22__unordered_map_hasherINS_12basic_stringIcNS_11char_traitsIcEENS_9allocatorIcEEEENS_17__hash_value_typeIS7_S7_EENS_4hashIS7_EENS_8equal_toIS7_EELb1EEEEC1B7v160006IiNS_18__default_init_tagEEEOT_OT0_, symObjAddr: 0xD614, symBinAddr: 0x10000ECC4, symSize: 0x3C }
  - { offsetInCU: 0x2F29B, offset: 0x2F29B, size: 0x8, addend: 0x0, symName: __ZNSt3__117__compressed_pairIfNS_21__unordered_map_equalINS_12basic_stringIcNS_11char_traitsIcEENS_9allocatorIcEEEENS_17__hash_value_typeIS7_S7_EENS_8equal_toIS7_EENS_4hashIS7_EELb1EEEEC1B7v160006IfNS_18__default_init_tagEEEOT_OT0_, symObjAddr: 0xD650, symBinAddr: 0x10000ED00, symSize: 0x3C }
  - { offsetInCU: 0x2F2F3, offset: 0x2F2F3, size: 0x8, addend: 0x0, symName: __ZNSt3__110unique_ptrIA_PNS_16__hash_node_baseIPNS_11__hash_nodeINS_17__hash_value_typeINS_12basic_stringIcNS_11char_traitsIcEENS_9allocatorIcEEEES9_EEPvEEEENS_25__bucket_list_deallocatorINS7_ISF_EEEEEC2B7v160006ILb1EvEEv, symObjAddr: 0xD68C, symBinAddr: 0x10000ED3C, symSize: 0x200 }
  - { offsetInCU: 0x2F32F, offset: 0x2F32F, size: 0x8, addend: 0x0, symName: __ZNSt3__117__compressed_pairIPPNS_16__hash_node_baseIPNS_11__hash_nodeINS_17__hash_value_typeINS_12basic_stringIcNS_11char_traitsIcEENS_9allocatorIcEEEES9_EEPvEEEENS_25__bucket_list_deallocatorINS7_ISF_EEEEEC1B7v160006INS_16__value_init_tagESM_EEOT_OT0_, symObjAddr: 0xD88C, symBinAddr: 0x10000EF3C, symSize: 0x3C }
  - { offsetInCU: 0x2F387, offset: 0x2F387, size: 0x8, addend: 0x0, symName: __ZNSt3__117__compressed_pairIPPNS_16__hash_node_baseIPNS_11__hash_nodeINS_17__hash_value_typeINS_12basic_stringIcNS_11char_traitsIcEENS_9allocatorIcEEEES9_EEPvEEEENS_25__bucket_list_deallocatorINS7_ISF_EEEEEC2B7v160006INS_16__value_init_tagESM_EEOT_OT0_, symObjAddr: 0xD8C8, symBinAddr: 0x10000EF78, symSize: 0x40 }
  - { offsetInCU: 0x2F3DF, offset: 0x2F3DF, size: 0x8, addend: 0x0, symName: __ZNSt3__122__compressed_pair_elemIPPNS_16__hash_node_baseIPNS_11__hash_nodeINS_17__hash_value_typeINS_12basic_stringIcNS_11char_traitsIcEENS_9allocatorIcEEEES9_EEPvEEEELi0ELb0EEC2B7v160006ENS_16__value_init_tagE, symObjAddr: 0xD908, symBinAddr: 0x10000EFB8, symSize: 0x60 }
  - { offsetInCU: 0x2F413, offset: 0x2F413, size: 0x8, addend: 0x0, symName: __ZNSt3__122__compressed_pair_elemINS_25__bucket_list_deallocatorINS_9allocatorIPNS_16__hash_node_baseIPNS_11__hash_nodeINS_17__hash_value_typeINS_12basic_stringIcNS_11char_traitsIcEENS2_IcEEEESA_EEPvEEEEEEEELi1ELb0EEC2B7v160006ENS_16__value_init_tagE, symObjAddr: 0xD968, symBinAddr: 0x10000F018, symSize: 0x2C }
  - { offsetInCU: 0x2F447, offset: 0x2F447, size: 0x8, addend: 0x0, symName: __ZNSt3__125__bucket_list_deallocatorINS_9allocatorIPNS_16__hash_node_baseIPNS_11__hash_nodeINS_17__hash_value_typeINS_12basic_stringIcNS_11char_traitsIcEENS1_IcEEEES9_EEPvEEEEEEEC1B7v160006Ev, symObjAddr: 0xD994, symBinAddr: 0x10000F044, symSize: 0x2C }
  - { offsetInCU: 0x2F471, offset: 0x2F471, size: 0x8, addend: 0x0, symName: __ZNSt3__125__bucket_list_deallocatorINS_9allocatorIPNS_16__hash_node_baseIPNS_11__hash_nodeINS_17__hash_value_typeINS_12basic_stringIcNS_11char_traitsIcEENS1_IcEEEES9_EEPvEEEEEEEC2B7v160006Ev, symObjAddr: 0xD9C0, symBinAddr: 0x10000F070, symSize: 0x270 }
  - { offsetInCU: 0x2F49C, offset: 0x2F49C, size: 0x8, addend: 0x0, symName: __ZNSt3__117__compressed_pairImNS_9allocatorIPNS_16__hash_node_baseIPNS_11__hash_nodeINS_17__hash_value_typeINS_12basic_stringIcNS_11char_traitsIcEENS1_IcEEEES9_EEPvEEEEEEEC1B7v160006IiNS_18__default_init_tagEEEOT_OT0_, symObjAddr: 0xDC30, symBinAddr: 0x10000F2E0, symSize: 0x3C }
  - { offsetInCU: 0x2F4F4, offset: 0x2F4F4, size: 0x8, addend: 0x0, symName: __ZNSt3__117__compressed_pairImNS_9allocatorIPNS_16__hash_node_baseIPNS_11__hash_nodeINS_17__hash_value_typeINS_12basic_stringIcNS_11char_traitsIcEENS1_IcEEEES9_EEPvEEEEEEEC2B7v160006IiNS_18__default_init_tagEEEOT_OT0_, symObjAddr: 0xDC6C, symBinAddr: 0x10000F31C, symSize: 0x40 }
  - { offsetInCU: 0x2F54C, offset: 0x2F54C, size: 0x8, addend: 0x0, symName: __ZNSt3__122__compressed_pair_elemImLi0ELb0EEC2B7v160006IivEEOT_, symObjAddr: 0xDCAC, symBinAddr: 0x10000F35C, symSize: 0xD8 }
  - { offsetInCU: 0x2F58E, offset: 0x2F58E, size: 0x8, addend: 0x0, symName: __ZNSt3__122__compressed_pair_elemINS_9allocatorIPNS_16__hash_node_baseIPNS_11__hash_nodeINS_17__hash_value_typeINS_12basic_stringIcNS_11char_traitsIcEENS1_IcEEEES9_EEPvEEEEEELi1ELb1EEC2B7v160006ENS_18__default_init_tagE, symObjAddr: 0xDD84, symBinAddr: 0x10000F434, symSize: 0x2C }
  - { offsetInCU: 0x2F5C2, offset: 0x2F5C2, size: 0x8, addend: 0x0, symName: __ZNSt3__19allocatorIPNS_16__hash_node_baseIPNS_11__hash_nodeINS_17__hash_value_typeINS_12basic_stringIcNS_11char_traitsIcEENS0_IcEEEES8_EEPvEEEEEC2B7v160006Ev, symObjAddr: 0xDDB0, symBinAddr: 0x10000F460, symSize: 0x2C }
  - { offsetInCU: 0x2F5EC, offset: 0x2F5EC, size: 0x8, addend: 0x0, symName: __ZNSt3__116__non_trivial_ifILb1ENS_9allocatorIPNS_16__hash_node_baseIPNS_11__hash_nodeINS_17__hash_value_typeINS_12basic_stringIcNS_11char_traitsIcEENS1_IcEEEES9_EEPvEEEEEEEC2B7v160006Ev, symObjAddr: 0xDDDC, symBinAddr: 0x10000F48C, symSize: 0x14 }
  - { offsetInCU: 0x2F616, offset: 0x2F616, size: 0x8, addend: 0x0, symName: __ZNSt3__117__compressed_pairINS_16__hash_node_baseIPNS_11__hash_nodeINS_17__hash_value_typeINS_12basic_stringIcNS_11char_traitsIcEENS_9allocatorIcEEEES9_EEPvEEEENS7_ISC_EEEC2B7v160006ILb1EvEEv, symObjAddr: 0xDDF0, symBinAddr: 0x10000F4A0, symSize: 0x34 }
  - { offsetInCU: 0x2F64B, offset: 0x2F64B, size: 0x8, addend: 0x0, symName: __ZNSt3__122__compressed_pair_elemINS_16__hash_node_baseIPNS_11__hash_nodeINS_17__hash_value_typeINS_12basic_stringIcNS_11char_traitsIcEENS_9allocatorIcEEEES9_EEPvEEEELi0ELb0EEC2B7v160006ENS_16__value_init_tagE, symObjAddr: 0xDE24, symBinAddr: 0x10000F4D4, symSize: 0x2C }
  - { offsetInCU: 0x2F67F, offset: 0x2F67F, size: 0x8, addend: 0x0, symName: __ZNSt3__122__compressed_pair_elemINS_9allocatorINS_11__hash_nodeINS_17__hash_value_typeINS_12basic_stringIcNS_11char_traitsIcEENS1_IcEEEES8_EEPvEEEELi1ELb1EEC2B7v160006ENS_16__value_init_tagE, symObjAddr: 0xDE50, symBinAddr: 0x10000F500, symSize: 0x2C }
  - { offsetInCU: 0x2F6B3, offset: 0x2F6B3, size: 0x8, addend: 0x0, symName: __ZNSt3__116__hash_node_baseIPNS_11__hash_nodeINS_17__hash_value_typeINS_12basic_stringIcNS_11char_traitsIcEENS_9allocatorIcEEEES8_EEPvEEEC1B7v160006Ev, symObjAddr: 0xDE7C, symBinAddr: 0x10000F52C, symSize: 0x2C }
  - { offsetInCU: 0x2F6DD, offset: 0x2F6DD, size: 0x8, addend: 0x0, symName: __ZNSt3__116__hash_node_baseIPNS_11__hash_nodeINS_17__hash_value_typeINS_12basic_stringIcNS_11char_traitsIcEENS_9allocatorIcEEEES8_EEPvEEEC2B7v160006Ev, symObjAddr: 0xDEA8, symBinAddr: 0x10000F558, symSize: 0x60 }
  - { offsetInCU: 0x2F707, offset: 0x2F707, size: 0x8, addend: 0x0, symName: __ZNSt3__19allocatorINS_11__hash_nodeINS_17__hash_value_typeINS_12basic_stringIcNS_11char_traitsIcEENS0_IcEEEES7_EEPvEEEC2B7v160006Ev, symObjAddr: 0xDF08, symBinAddr: 0x10000F5B8, symSize: 0x2C }
  - { offsetInCU: 0x2F731, offset: 0x2F731, size: 0x8, addend: 0x0, symName: __ZNSt3__116__non_trivial_ifILb1ENS_9allocatorINS_11__hash_nodeINS_17__hash_value_typeINS_12basic_stringIcNS_11char_traitsIcEENS1_IcEEEES8_EEPvEEEEEC2B7v160006Ev, symObjAddr: 0xDF34, symBinAddr: 0x10000F5E4, symSize: 0x14 }
  - { offsetInCU: 0x2F75B, offset: 0x2F75B, size: 0x8, addend: 0x0, symName: __ZNSt3__117__compressed_pairImNS_22__unordered_map_hasherINS_12basic_stringIcNS_11char_traitsIcEENS_9allocatorIcEEEENS_17__hash_value_typeIS7_S7_EENS_4hashIS7_EENS_8equal_toIS7_EELb1EEEEC2B7v160006IiNS_18__default_init_tagEEEOT_OT0_, symObjAddr: 0xDF48, symBinAddr: 0x10000F5F8, symSize: 0x40 }
  - { offsetInCU: 0x2F7B3, offset: 0x2F7B3, size: 0x8, addend: 0x0, symName: __ZNSt3__122__compressed_pair_elemINS_22__unordered_map_hasherINS_12basic_stringIcNS_11char_traitsIcEENS_9allocatorIcEEEENS_17__hash_value_typeIS7_S7_EENS_4hashIS7_EENS_8equal_toIS7_EELb1EEELi1ELb1EEC2B7v160006ENS_18__default_init_tagE, symObjAddr: 0xDF88, symBinAddr: 0x10000F638, symSize: 0x2C }
  - { offsetInCU: 0x2F7E7, offset: 0x2F7E7, size: 0x8, addend: 0x0, symName: __ZNSt3__122__unordered_map_hasherINS_12basic_stringIcNS_11char_traitsIcEENS_9allocatorIcEEEENS_17__hash_value_typeIS6_S6_EENS_4hashIS6_EENS_8equal_toIS6_EELb1EEC2B7v160006Ev, symObjAddr: 0xDFB4, symBinAddr: 0x10000F664, symSize: 0x14 }
  - { offsetInCU: 0x2F811, offset: 0x2F811, size: 0x8, addend: 0x0, symName: __ZNSt3__117__compressed_pairIfNS_21__unordered_map_equalINS_12basic_stringIcNS_11char_traitsIcEENS_9allocatorIcEEEENS_17__hash_value_typeIS7_S7_EENS_8equal_toIS7_EENS_4hashIS7_EELb1EEEEC2B7v160006IfNS_18__default_init_tagEEEOT_OT0_, symObjAddr: 0xDFC8, symBinAddr: 0x10000F678, symSize: 0x40 }
  - { offsetInCU: 0x2F869, offset: 0x2F869, size: 0x8, addend: 0x0, symName: __ZNSt3__122__compressed_pair_elemIfLi0ELb0EEC2B7v160006IfvEEOT_, symObjAddr: 0xE008, symBinAddr: 0x10000F6B8, symSize: 0x100 }
  - { offsetInCU: 0x2F8AB, offset: 0x2F8AB, size: 0x8, addend: 0x0, symName: __ZNSt3__122__compressed_pair_elemINS_21__unordered_map_equalINS_12basic_stringIcNS_11char_traitsIcEENS_9allocatorIcEEEENS_17__hash_value_typeIS7_S7_EENS_8equal_toIS7_EENS_4hashIS7_EELb1EEELi1ELb1EEC2B7v160006ENS_18__default_init_tagE, symObjAddr: 0xE108, symBinAddr: 0x10000F7B8, symSize: 0x2C }
  - { offsetInCU: 0x2F8DF, offset: 0x2F8DF, size: 0x8, addend: 0x0, symName: __ZNSt3__121__unordered_map_equalINS_12basic_stringIcNS_11char_traitsIcEENS_9allocatorIcEEEENS_17__hash_value_typeIS6_S6_EENS_8equal_toIS6_EENS_4hashIS6_EELb1EEC2B7v160006Ev, symObjAddr: 0xE134, symBinAddr: 0x10000F7E4, symSize: 0x14 }
  - { offsetInCU: 0x2F909, offset: 0x2F909, size: 0x8, addend: 0x0, symName: '__ZZ4mainEN3$_1D2Ev', symObjAddr: 0xE148, symBinAddr: 0x10000F7F8, symSize: 0x2C }
  - { offsetInCU: 0x2F936, offset: 0x2F936, size: 0x8, addend: 0x0, symName: __ZN11PartitionerINSt3__112basic_stringIcNS0_11char_traitsIcEENS0_9allocatorIcEEEEiED2Ev, symObjAddr: 0xE174, symBinAddr: 0x10000F824, symSize: 0x2C }
  - { offsetInCU: 0x2F962, offset: 0x2F962, size: 0x8, addend: 0x0, symName: __ZNSt3__113unordered_mapINS_12basic_stringIcNS_11char_traitsIcEENS_9allocatorIcEEEES6_NS_4hashIS6_EENS_8equal_toIS6_EENS4_INS_4pairIKS6_S6_EEEEED1B7v160006Ev, symObjAddr: 0xE1A0, symBinAddr: 0x10000F850, symSize: 0x2C }
  - { offsetInCU: 0x2F98C, offset: 0x2F98C, size: 0x8, addend: 0x0, symName: __ZNSt3__113unordered_mapINS_12basic_stringIcNS_11char_traitsIcEENS_9allocatorIcEEEES6_NS_4hashIS6_EENS_8equal_toIS6_EENS4_INS_4pairIKS6_S6_EEEEED2B7v160006Ev, symObjAddr: 0xE1CC, symBinAddr: 0x10000F87C, symSize: 0x2C }
  - { offsetInCU: 0x2F9B6, offset: 0x2F9B6, size: 0x8, addend: 0x0, symName: __ZNSt3__112__hash_tableINS_17__hash_value_typeINS_12basic_stringIcNS_11char_traitsIcEENS_9allocatorIcEEEES7_EENS_22__unordered_map_hasherIS7_S8_NS_4hashIS7_EENS_8equal_toIS7_EELb1EEENS_21__unordered_map_equalIS7_S8_SD_SB_Lb1EEENS5_IS8_EEED1Ev, symObjAddr: 0xE1F8, symBinAddr: 0x10000F8A8, symSize: 0x2C }
  - { offsetInCU: 0x2F9E2, offset: 0x2F9E2, size: 0x8, addend: 0x0, symName: __ZNSt3__112__hash_tableINS_17__hash_value_typeINS_12basic_stringIcNS_11char_traitsIcEENS_9allocatorIcEEEES7_EENS_22__unordered_map_hasherIS7_S8_NS_4hashIS7_EENS_8equal_toIS7_EELb1EEENS_21__unordered_map_equalIS7_S8_SD_SB_Lb1EEENS5_IS8_EEED2Ev, symObjAddr: 0xE224, symBinAddr: 0x10000F8D4, symSize: 0xA4 }
  - { offsetInCU: 0x2FA0E, offset: 0x2FA0E, size: 0x8, addend: 0x0, symName: __ZNSt3__112__hash_tableINS_17__hash_value_typeINS_12basic_stringIcNS_11char_traitsIcEENS_9allocatorIcEEEES7_EENS_22__unordered_map_hasherIS7_S8_NS_4hashIS7_EENS_8equal_toIS7_EELb1EEENS_21__unordered_map_equalIS7_S8_SD_SB_Lb1EEENS5_IS8_EEE17__deallocate_nodeEPNS_16__hash_node_baseIPNS_11__hash_nodeIS8_PvEEEE, symObjAddr: 0xE2C8, symBinAddr: 0x10000F978, symSize: 0xF8 }
  - { offsetInCU: 0x2FA78, offset: 0x2FA78, size: 0x8, addend: 0x0, symName: __ZNSt3__117__compressed_pairINS_16__hash_node_baseIPNS_11__hash_nodeINS_17__hash_value_typeINS_12basic_stringIcNS_11char_traitsIcEENS_9allocatorIcEEEES9_EEPvEEEENS7_ISC_EEE5firstB7v160006Ev, symObjAddr: 0xE3C0, symBinAddr: 0x10000FA70, symSize: 0x24 }
  - { offsetInCU: 0x2FA9E, offset: 0x2FA9E, size: 0x8, addend: 0x0, symName: __ZNSt3__110unique_ptrIA_PNS_16__hash_node_baseIPNS_11__hash_nodeINS_17__hash_value_typeINS_12basic_stringIcNS_11char_traitsIcEENS_9allocatorIcEEEES9_EEPvEEEENS_25__bucket_list_deallocatorINS7_ISF_EEEEED1B7v160006Ev, symObjAddr: 0xE3F4, symBinAddr: 0x10000FAA4, symSize: 0x2C }
  - { offsetInCU: 0x2FAC8, offset: 0x2FAC8, size: 0x8, addend: 0x0, symName: __ZNSt3__112__hash_tableINS_17__hash_value_typeINS_12basic_stringIcNS_11char_traitsIcEENS_9allocatorIcEEEES7_EENS_22__unordered_map_hasherIS7_S8_NS_4hashIS7_EENS_8equal_toIS7_EELb1EEENS_21__unordered_map_equalIS7_S8_SD_SB_Lb1EEENS5_IS8_EEE12__node_allocB7v160006Ev, symObjAddr: 0xE420, symBinAddr: 0x10000FAD0, symSize: 0x28 }
  - { offsetInCU: 0x2FAEE, offset: 0x2FAEE, size: 0x8, addend: 0x0, symName: __ZNSt3__116__hash_node_baseIPNS_11__hash_nodeINS_17__hash_value_typeINS_12basic_stringIcNS_11char_traitsIcEENS_9allocatorIcEEEES8_EEPvEEE8__upcastB7v160006Ev, symObjAddr: 0xE448, symBinAddr: 0x10000FAF8, symSize: 0x24 }
  - { offsetInCU: 0x2FB14, offset: 0x2FB14, size: 0x8, addend: 0x0, symName: __ZNSt3__116allocator_traitsINS_9allocatorINS_11__hash_nodeINS_17__hash_value_typeINS_12basic_stringIcNS_11char_traitsIcEENS1_IcEEEES8_EEPvEEEEE7destroyB7v160006INS_4pairIKS8_S8_EEvvEEvRSC_PT_, symObjAddr: 0xE46C, symBinAddr: 0x10000FB1C, symSize: 0x28 }
  - { offsetInCU: 0x2FB4F, offset: 0x2FB4F, size: 0x8, addend: 0x0, symName: __ZNSt3__122__hash_key_value_typesINS_17__hash_value_typeINS_12basic_stringIcNS_11char_traitsIcEENS_9allocatorIcEEEES7_EEE9__get_ptrB7v160006ERS8_, symObjAddr: 0xE494, symBinAddr: 0x10000FB44, symSize: 0x24 }
  - { offsetInCU: 0x2FB72, offset: 0x2FB72, size: 0x8, addend: 0x0, symName: __ZNSt3__116allocator_traitsINS_9allocatorINS_11__hash_nodeINS_17__hash_value_typeINS_12basic_stringIcNS_11char_traitsIcEENS1_IcEEEES8_EEPvEEEEE10deallocateB7v160006ERSC_PSB_m, symObjAddr: 0xE4B8, symBinAddr: 0x10000FB68, symSize: 0x34 }
  - { offsetInCU: 0x2FBB4, offset: 0x2FBB4, size: 0x8, addend: 0x0, symName: __ZNSt3__117__compressed_pairINS_16__hash_node_baseIPNS_11__hash_nodeINS_17__hash_value_typeINS_12basic_stringIcNS_11char_traitsIcEENS_9allocatorIcEEEES9_EEPvEEEENS7_ISC_EEE6secondB7v160006Ev, symObjAddr: 0xE4EC, symBinAddr: 0x10000FB9C, symSize: 0x24 }
  - { offsetInCU: 0x2FBDA, offset: 0x2FBDA, size: 0x8, addend: 0x0, symName: __ZNSt3__122__compressed_pair_elemINS_9allocatorINS_11__hash_nodeINS_17__hash_value_typeINS_12basic_stringIcNS_11char_traitsIcEENS1_IcEEEES8_EEPvEEEELi1ELb1EE5__getB7v160006Ev, symObjAddr: 0xE510, symBinAddr: 0x10000FBC0, symSize: 0x14 }
  - { offsetInCU: 0x2FC00, offset: 0x2FC00, size: 0x8, addend: 0x0, symName: __ZNSt3__114pointer_traitsIPNS_16__hash_node_baseIPNS_11__hash_nodeINS_17__hash_value_typeINS_12basic_stringIcNS_11char_traitsIcEENS_9allocatorIcEEEES9_EEPvEEEEE10pointer_toB7v160006ERSE_, symObjAddr: 0xE524, symBinAddr: 0x10000FBD4, symSize: 0x14 }
  - { offsetInCU: 0x2FC23, offset: 0x2FC23, size: 0x8, addend: 0x0, symName: __ZNSt3__14pairIKNS_12basic_stringIcNS_11char_traitsIcEENS_9allocatorIcEEEES6_ED1Ev, symObjAddr: 0xE538, symBinAddr: 0x10000FBE8, symSize: 0x2C }
  - { offsetInCU: 0x2FC4F, offset: 0x2FC4F, size: 0x8, addend: 0x0, symName: __ZNSt3__14pairIKNS_12basic_stringIcNS_11char_traitsIcEENS_9allocatorIcEEEES6_ED2Ev, symObjAddr: 0xE564, symBinAddr: 0x10000FC14, symSize: 0x38 }
  - { offsetInCU: 0x2FC7B, offset: 0x2FC7B, size: 0x8, addend: 0x0, symName: __ZNSt3__117__hash_value_typeINS_12basic_stringIcNS_11char_traitsIcEENS_9allocatorIcEEEES6_E11__get_valueB7v160006Ev, symObjAddr: 0xE59C, symBinAddr: 0x10000FC4C, symSize: 0x24 }
  - { offsetInCU: 0x2FCA1, offset: 0x2FCA1, size: 0x8, addend: 0x0, symName: __ZNSt3__19allocatorINS_11__hash_nodeINS_17__hash_value_typeINS_12basic_stringIcNS_11char_traitsIcEENS0_IcEEEES7_EEPvEEE10deallocateB7v160006EPSA_m, symObjAddr: 0xE5F8, symBinAddr: 0x10000FCA8, symSize: 0x4C }
  - { offsetInCU: 0x2FCE3, offset: 0x2FCE3, size: 0x8, addend: 0x0, symName: __ZNSt3__122__compressed_pair_elemINS_16__hash_node_baseIPNS_11__hash_nodeINS_17__hash_value_typeINS_12basic_stringIcNS_11char_traitsIcEENS_9allocatorIcEEEES9_EEPvEEEELi0ELb0EE5__getB7v160006Ev, symObjAddr: 0xE76C, symBinAddr: 0x10000FE1C, symSize: 0x14 }
  - { offsetInCU: 0x2FD09, offset: 0x2FD09, size: 0x8, addend: 0x0, symName: __ZNSt3__110unique_ptrIA_PNS_16__hash_node_baseIPNS_11__hash_nodeINS_17__hash_value_typeINS_12basic_stringIcNS_11char_traitsIcEENS_9allocatorIcEEEES9_EEPvEEEENS_25__bucket_list_deallocatorINS7_ISF_EEEEED2B7v160006Ev, symObjAddr: 0xE780, symBinAddr: 0x10000FE30, symSize: 0x30 }
  - { offsetInCU: 0x2FD33, offset: 0x2FD33, size: 0x8, addend: 0x0, symName: __ZNSt3__110unique_ptrIA_PNS_16__hash_node_baseIPNS_11__hash_nodeINS_17__hash_value_typeINS_12basic_stringIcNS_11char_traitsIcEENS_9allocatorIcEEEES9_EEPvEEEENS_25__bucket_list_deallocatorINS7_ISF_EEEEE5resetB7v160006EDn, symObjAddr: 0xE7B0, symBinAddr: 0x10000FE60, symSize: 0xE0 }
  - { offsetInCU: 0x2FD74, offset: 0x2FD74, size: 0x8, addend: 0x0, symName: __ZNSt3__117__compressed_pairIPPNS_16__hash_node_baseIPNS_11__hash_nodeINS_17__hash_value_typeINS_12basic_stringIcNS_11char_traitsIcEENS_9allocatorIcEEEES9_EEPvEEEENS_25__bucket_list_deallocatorINS7_ISF_EEEEE5firstB7v160006Ev, symObjAddr: 0xE890, symBinAddr: 0x10000FF40, symSize: 0x24 }
  - { offsetInCU: 0x2FD9A, offset: 0x2FD9A, size: 0x8, addend: 0x0, symName: __ZNSt3__117__compressed_pairIPPNS_16__hash_node_baseIPNS_11__hash_nodeINS_17__hash_value_typeINS_12basic_stringIcNS_11char_traitsIcEENS_9allocatorIcEEEES9_EEPvEEEENS_25__bucket_list_deallocatorINS7_ISF_EEEEE6secondB7v160006Ev, symObjAddr: 0xE8B4, symBinAddr: 0x10000FF64, symSize: 0x28 }
  - { offsetInCU: 0x2FDC0, offset: 0x2FDC0, size: 0x8, addend: 0x0, symName: __ZNSt3__125__bucket_list_deallocatorINS_9allocatorIPNS_16__hash_node_baseIPNS_11__hash_nodeINS_17__hash_value_typeINS_12basic_stringIcNS_11char_traitsIcEENS1_IcEEEES9_EEPvEEEEEEEclB7v160006EPSF_, symObjAddr: 0xE8DC, symBinAddr: 0x10000FF8C, symSize: 0x98 }
  - { offsetInCU: 0x2FDF5, offset: 0x2FDF5, size: 0x8, addend: 0x0, symName: __ZNSt3__122__compressed_pair_elemIPPNS_16__hash_node_baseIPNS_11__hash_nodeINS_17__hash_value_typeINS_12basic_stringIcNS_11char_traitsIcEENS_9allocatorIcEEEES9_EEPvEEEELi0ELb0EE5__getB7v160006Ev, symObjAddr: 0xE974, symBinAddr: 0x100010024, symSize: 0x14 }
  - { offsetInCU: 0x2FE1B, offset: 0x2FE1B, size: 0x8, addend: 0x0, symName: __ZNSt3__122__compressed_pair_elemINS_25__bucket_list_deallocatorINS_9allocatorIPNS_16__hash_node_baseIPNS_11__hash_nodeINS_17__hash_value_typeINS_12basic_stringIcNS_11char_traitsIcEENS2_IcEEEESA_EEPvEEEEEEEELi1ELb0EE5__getB7v160006Ev, symObjAddr: 0xE988, symBinAddr: 0x100010038, symSize: 0x14 }
  - { offsetInCU: 0x2FE41, offset: 0x2FE41, size: 0x8, addend: 0x0, symName: __ZNSt3__116allocator_traitsINS_9allocatorIPNS_16__hash_node_baseIPNS_11__hash_nodeINS_17__hash_value_typeINS_12basic_stringIcNS_11char_traitsIcEENS1_IcEEEES9_EEPvEEEEEEE10deallocateB7v160006ERSG_PSF_m, symObjAddr: 0xE99C, symBinAddr: 0x10001004C, symSize: 0x34 }
  - { offsetInCU: 0x2FE83, offset: 0x2FE83, size: 0x8, addend: 0x0, symName: __ZNSt3__125__bucket_list_deallocatorINS_9allocatorIPNS_16__hash_node_baseIPNS_11__hash_nodeINS_17__hash_value_typeINS_12basic_stringIcNS_11char_traitsIcEENS1_IcEEEES9_EEPvEEEEEEE7__allocB7v160006Ev, symObjAddr: 0xE9D0, symBinAddr: 0x100010080, symSize: 0x24 }
  - { offsetInCU: 0x2FEA9, offset: 0x2FEA9, size: 0x8, addend: 0x0, symName: __ZNSt3__125__bucket_list_deallocatorINS_9allocatorIPNS_16__hash_node_baseIPNS_11__hash_nodeINS_17__hash_value_typeINS_12basic_stringIcNS_11char_traitsIcEENS1_IcEEEES9_EEPvEEEEEEE4sizeB7v160006Ev, symObjAddr: 0xE9F4, symBinAddr: 0x1000100A4, symSize: 0x24 }
  - { offsetInCU: 0x2FECF, offset: 0x2FECF, size: 0x8, addend: 0x0, symName: __ZNSt3__19allocatorIPNS_16__hash_node_baseIPNS_11__hash_nodeINS_17__hash_value_typeINS_12basic_stringIcNS_11char_traitsIcEENS0_IcEEEES8_EEPvEEEEE10deallocateB7v160006EPSE_m, symObjAddr: 0xEA18, symBinAddr: 0x1000100C8, symSize: 0x4C }
  - { offsetInCU: 0x2FF11, offset: 0x2FF11, size: 0x8, addend: 0x0, symName: __ZNSt3__117__compressed_pairImNS_9allocatorIPNS_16__hash_node_baseIPNS_11__hash_nodeINS_17__hash_value_typeINS_12basic_stringIcNS_11char_traitsIcEENS1_IcEEEES9_EEPvEEEEEEE6secondB7v160006Ev, symObjAddr: 0xEA64, symBinAddr: 0x100010114, symSize: 0x24 }
  - { offsetInCU: 0x2FF37, offset: 0x2FF37, size: 0x8, addend: 0x0, symName: __ZNSt3__122__compressed_pair_elemINS_9allocatorIPNS_16__hash_node_baseIPNS_11__hash_nodeINS_17__hash_value_typeINS_12basic_stringIcNS_11char_traitsIcEENS1_IcEEEES9_EEPvEEEEEELi1ELb1EE5__getB7v160006Ev, symObjAddr: 0xEA88, symBinAddr: 0x100010138, symSize: 0x14 }
  - { offsetInCU: 0x2FF5D, offset: 0x2FF5D, size: 0x8, addend: 0x0, symName: __ZNSt3__117__compressed_pairImNS_9allocatorIPNS_16__hash_node_baseIPNS_11__hash_nodeINS_17__hash_value_typeINS_12basic_stringIcNS_11char_traitsIcEENS1_IcEEEES9_EEPvEEEEEEE5firstB7v160006Ev, symObjAddr: 0xEA9C, symBinAddr: 0x10001014C, symSize: 0x24 }
  - { offsetInCU: 0x2FF83, offset: 0x2FF83, size: 0x8, addend: 0x0, symName: __ZNSt3__122__compressed_pair_elemImLi0ELb0EE5__getB7v160006Ev, symObjAddr: 0xEAC0, symBinAddr: 0x100010170, symSize: 0x14 }
  - { offsetInCU: 0x2FFA9, offset: 0x2FFA9, size: 0x8, addend: 0x0, symName: __ZN12RecordReaderD2Ev, symObjAddr: 0xEAD4, symBinAddr: 0x100010184, symSize: 0x38 }
  - { offsetInCU: 0x2FFD5, offset: 0x2FFD5, size: 0x8, addend: 0x0, symName: __ZNSt3__14__fs10filesystem4pathD2B7v160006Ev, symObjAddr: 0xEB0C, symBinAddr: 0x1000101BC, symSize: 0x2C }
  - { offsetInCU: 0x2FFFF, offset: 0x2FFFF, size: 0x8, addend: 0x0, symName: __ZNSt3__14__fs10filesystem18directory_iteratorC1B7v160006EOS2_, symObjAddr: 0xEB38, symBinAddr: 0x1000101E8, symSize: 0x34 }
  - { offsetInCU: 0x30033, offset: 0x30033, size: 0x8, addend: 0x0, symName: __ZNSt3__14__fs10filesystem18directory_iteratorC2B7v160006EOS2_, symObjAddr: 0xEB6C, symBinAddr: 0x10001021C, symSize: 0x34 }
  - { offsetInCU: 0x30067, offset: 0x30067, size: 0x8, addend: 0x0, symName: __ZNSt3__110shared_ptrINS_4__fs10filesystem12__dir_streamEEC1B7v160006EOS4_, symObjAddr: 0xEBA0, symBinAddr: 0x100010250, symSize: 0x34 }
  - { offsetInCU: 0x300A0, offset: 0x300A0, size: 0x8, addend: 0x0, symName: __ZNSt3__110shared_ptrINS_4__fs10filesystem12__dir_streamEEC2B7v160006EOS4_, symObjAddr: 0xEBD4, symBinAddr: 0x100010284, symSize: 0x1B8 }
  - { offsetInCU: 0x300D9, offset: 0x300D9, size: 0x8, addend: 0x0, symName: __ZNSt3__14__fs10filesystem18directory_iteratorC2B7v160006ERKS2_, symObjAddr: 0xED8C, symBinAddr: 0x10001043C, symSize: 0x34 }
  - { offsetInCU: 0x3010D, offset: 0x3010D, size: 0x8, addend: 0x0, symName: __ZNSt3__110shared_ptrINS_4__fs10filesystem12__dir_streamEEC1B7v160006ERKS4_, symObjAddr: 0xEDC0, symBinAddr: 0x100010470, symSize: 0x34 }
  - { offsetInCU: 0x30146, offset: 0x30146, size: 0x8, addend: 0x0, symName: __ZNSt3__110shared_ptrINS_4__fs10filesystem12__dir_streamEEC2B7v160006ERKS4_, symObjAddr: 0xEDF4, symBinAddr: 0x1000104A4, symSize: 0x1CC }
  - { offsetInCU: 0x3017F, offset: 0x3017F, size: 0x8, addend: 0x0, symName: __ZNSt3__119__shared_weak_count12__add_sharedB7v160006Ev, symObjAddr: 0xEFC0, symBinAddr: 0x100010670, symSize: 0x24 }
  - { offsetInCU: 0x301A5, offset: 0x301A5, size: 0x8, addend: 0x0, symName: __ZNSt3__114__shared_count12__add_sharedB7v160006Ev, symObjAddr: 0xEFE4, symBinAddr: 0x100010694, symSize: 0x28 }
  - { offsetInCU: 0x301CB, offset: 0x301CB, size: 0x8, addend: 0x0, symName: __ZNSt3__14__fs10filesystem18directory_iteratorD2B7v160006Ev, symObjAddr: 0xF08C, symBinAddr: 0x10001073C, symSize: 0x2C }
  - { offsetInCU: 0x301F5, offset: 0x301F5, size: 0x8, addend: 0x0, symName: __ZNSt3__110shared_ptrINS_4__fs10filesystem12__dir_streamEED1B7v160006Ev, symObjAddr: 0xF0B8, symBinAddr: 0x100010768, symSize: 0x2C }
  - { offsetInCU: 0x3021F, offset: 0x3021F, size: 0x8, addend: 0x0, symName: __ZNSt3__110shared_ptrINS_4__fs10filesystem12__dir_streamEED2B7v160006Ev, symObjAddr: 0xF0E4, symBinAddr: 0x100010794, symSize: 0xC8 }
  - { offsetInCU: 0x30249, offset: 0x30249, size: 0x8, addend: 0x0, symName: __ZNSt3__119__shared_weak_count16__release_sharedB7v160006Ev, symObjAddr: 0xF1AC, symBinAddr: 0x10001085C, symSize: 0x3C }
  - { offsetInCU: 0x3026F, offset: 0x3026F, size: 0x8, addend: 0x0, symName: __ZNSt3__114__shared_count16__release_sharedB7v160006Ev, symObjAddr: 0xF1E8, symBinAddr: 0x100010898, symSize: 0xF8 }
  - { offsetInCU: 0x30295, offset: 0x30295, size: 0x8, addend: 0x0, symName: __ZNSt3__14__fs10filesystem18directory_iteratorC1B7v160006Ev, symObjAddr: 0xF360, symBinAddr: 0x100010A10, symSize: 0x2C }
  - { offsetInCU: 0x302BF, offset: 0x302BF, size: 0x8, addend: 0x0, symName: __ZNSt3__14__fs10filesystem18directory_iteratorC2B7v160006Ev, symObjAddr: 0xF38C, symBinAddr: 0x100010A3C, symSize: 0x2C }
  - { offsetInCU: 0x302E9, offset: 0x302E9, size: 0x8, addend: 0x0, symName: __ZNSt3__110shared_ptrINS_4__fs10filesystem12__dir_streamEEC1B7v160006Ev, symObjAddr: 0xF3B8, symBinAddr: 0x100010A68, symSize: 0x2C }
  - { offsetInCU: 0x30313, offset: 0x30313, size: 0x8, addend: 0x0, symName: __ZNSt3__110shared_ptrINS_4__fs10filesystem12__dir_streamEEC2B7v160006Ev, symObjAddr: 0xF3E4, symBinAddr: 0x100010A94, symSize: 0x9C }
  - { offsetInCU: 0x3033D, offset: 0x3033D, size: 0x8, addend: 0x0, symName: __ZNKSt3__110shared_ptrINS_4__fs10filesystem12__dir_streamEE3getB7v160006Ev, symObjAddr: 0xF4F8, symBinAddr: 0x100010BA8, symSize: 0x60 }
  - { offsetInCU: 0x30363, offset: 0x30363, size: 0x8, addend: 0x0, symName: __ZNKSt3__111__wrap_iterIPcE4baseB7v160006Ev, symObjAddr: 0xF5A0, symBinAddr: 0x100010C50, symSize: 0x60 }
  - { offsetInCU: 0x30389, offset: 0x30389, size: 0x8, addend: 0x0, symName: __ZNSt3__118basic_stringstreamIcNS_11char_traitsIcEENS_9allocatorIcEEED2Ev, symObjAddr: 0xF600, symBinAddr: 0x100010CB0, symSize: 0x214 }
  - { offsetInCU: 0x303C3, offset: 0x303C3, size: 0x8, addend: 0x0, symName: __ZThn16_NSt3__118basic_stringstreamIcNS_11char_traitsIcEENS_9allocatorIcEEED1Ev, symObjAddr: 0xF814, symBinAddr: 0x100010EC4, symSize: 0x1C }
  - { offsetInCU: 0x303DA, offset: 0x303DA, size: 0x8, addend: 0x0, symName: __ZTv0_n24_NSt3__118basic_stringstreamIcNS_11char_traitsIcEENS_9allocatorIcEEED1Ev, symObjAddr: 0xF830, symBinAddr: 0x100010EE0, symSize: 0xB0 }
  - { offsetInCU: 0x303F7, offset: 0x303F7, size: 0x8, addend: 0x0, symName: __ZNSt3__115basic_stringbufIcNS_11char_traitsIcEENS_9allocatorIcEEED1Ev, symObjAddr: 0xF8E0, symBinAddr: 0x100010F90, symSize: 0x2C }
  - { offsetInCU: 0x30424, offset: 0x30424, size: 0x8, addend: 0x0, symName: __ZNSt3__115basic_stringbufIcNS_11char_traitsIcEENS_9allocatorIcEEED2Ev, symObjAddr: 0xF90C, symBinAddr: 0x100010FBC, symSize: 0x88 }
  - { offsetInCU: 0x30451, offset: 0x30451, size: 0x8, addend: 0x0, symName: __ZNSt3__114basic_ofstreamIcNS_11char_traitsIcEEED2Ev, symObjAddr: 0xF994, symBinAddr: 0x100011044, symSize: 0x198 }
  - { offsetInCU: 0x3048B, offset: 0x3048B, size: 0x8, addend: 0x0, symName: __ZTv0_n24_NSt3__114basic_ofstreamIcNS_11char_traitsIcEEED1Ev, symObjAddr: 0xFB2C, symBinAddr: 0x1000111DC, symSize: 0xB0 }
  - { offsetInCU: 0x304A2, offset: 0x304A2, size: 0x8, addend: 0x0, symName: __ZNSt3__112basic_stringIcNS_11char_traitsIcEENS_9allocatorIcEEEC2B7v160006EPKcm, symObjAddr: 0xFBDC, symBinAddr: 0x10001128C, symSize: 0x230 }
  - { offsetInCU: 0x304ED, offset: 0x304ED, size: 0x8, addend: 0x0, symName: __ZNSt3__117__compressed_pairINS_12basic_stringIcNS_11char_traitsIcEENS_9allocatorIcEEE5__repES5_EC1B7v160006INS_18__default_init_tagESA_EEOT_OT0_, symObjAddr: 0xFE0C, symBinAddr: 0x1000114BC, symSize: 0x3C }
  - { offsetInCU: 0x30545, offset: 0x30545, size: 0x8, addend: 0x0, symName: __ZNSt3__117__compressed_pairINS_12basic_stringIcNS_11char_traitsIcEENS_9allocatorIcEEE5__repES5_EC2B7v160006INS_18__default_init_tagESA_EEOT_OT0_, symObjAddr: 0xFE58, symBinAddr: 0x100011508, symSize: 0x3C }
  - { offsetInCU: 0x3059D, offset: 0x3059D, size: 0x8, addend: 0x0, symName: __ZNSt3__122__compressed_pair_elemINS_12basic_stringIcNS_11char_traitsIcEENS_9allocatorIcEEE5__repELi0ELb0EEC2B7v160006ENS_18__default_init_tagE, symObjAddr: 0xFE94, symBinAddr: 0x100011544, symSize: 0x14 }
  - { offsetInCU: 0x305D1, offset: 0x305D1, size: 0x8, addend: 0x0, symName: __ZNSt3__122__compressed_pair_elemINS_9allocatorIcEELi1ELb1EEC2B7v160006ENS_18__default_init_tagE, symObjAddr: 0xFEA8, symBinAddr: 0x100011558, symSize: 0x2C }
  - { offsetInCU: 0x30605, offset: 0x30605, size: 0x8, addend: 0x0, symName: __ZNSt3__19allocatorIcEC2B7v160006Ev, symObjAddr: 0xFED4, symBinAddr: 0x100011584, symSize: 0x2C }
  - { offsetInCU: 0x3062F, offset: 0x3062F, size: 0x8, addend: 0x0, symName: __ZNSt3__116__non_trivial_ifILb1ENS_9allocatorIcEEEC2B7v160006Ev, symObjAddr: 0xFF00, symBinAddr: 0x1000115B0, symSize: 0x14 }
  - { offsetInCU: 0x30659, offset: 0x30659, size: 0x8, addend: 0x0, symName: __ZNSt3__112basic_stringIcNS_11char_traitsIcEENS_9allocatorIcEEEC2B7v160006Ev, symObjAddr: 0xFF14, symBinAddr: 0x1000115C4, symSize: 0x214 }
  - { offsetInCU: 0x30684, offset: 0x30684, size: 0x8, addend: 0x0, symName: __ZNSt3__112basic_stringIcNS_11char_traitsIcEENS_9allocatorIcEEE14__default_initB7v160006Ev, symObjAddr: 0x10128, symBinAddr: 0x1000117D8, symSize: 0x22C }
  - { offsetInCU: 0x306AB, offset: 0x306AB, size: 0x8, addend: 0x0, symName: __ZNSt3__117__compressed_pairINS_12basic_stringIcNS_11char_traitsIcEENS_9allocatorIcEEE5__repES5_E5firstB7v160006Ev, symObjAddr: 0x10354, symBinAddr: 0x100011A04, symSize: 0x24 }
  - { offsetInCU: 0x306D1, offset: 0x306D1, size: 0x8, addend: 0x0, symName: __ZNSt3__122__compressed_pair_elemINS_12basic_stringIcNS_11char_traitsIcEENS_9allocatorIcEEE5__repELi0ELb0EE5__getB7v160006Ev, symObjAddr: 0x10378, symBinAddr: 0x100011A28, symSize: 0x14 }
  - { offsetInCU: 0x306F7, offset: 0x306F7, size: 0x8, addend: 0x0, symName: __ZNSt3__112basic_stringIcNS_11char_traitsIcEENS_9allocatorIcEEE6appendB7v160006ERKS5_, symObjAddr: 0x1038C, symBinAddr: 0x100011A3C, symSize: 0x4C }
  - { offsetInCU: 0x3072C, offset: 0x3072C, size: 0x8, addend: 0x0, symName: __ZNKSt3__112basic_stringIcNS_11char_traitsIcEENS_9allocatorIcEEE4dataB7v160006Ev, symObjAddr: 0x103D8, symBinAddr: 0x100011A88, symSize: 0x28 }
  - { offsetInCU: 0x30752, offset: 0x30752, size: 0x8, addend: 0x0, symName: __ZNKSt3__112basic_stringIcNS_11char_traitsIcEENS_9allocatorIcEEE4sizeB7v160006Ev, symObjAddr: 0x10400, symBinAddr: 0x100011AB0, symSize: 0x54 }
  - { offsetInCU: 0x30778, offset: 0x30778, size: 0x8, addend: 0x0, symName: __ZNKSt3__112basic_stringIcNS_11char_traitsIcEENS_9allocatorIcEEE13__get_pointerB7v160006Ev, symObjAddr: 0x10468, symBinAddr: 0x100011B18, symSize: 0x54 }
  - { offsetInCU: 0x3079E, offset: 0x3079E, size: 0x8, addend: 0x0, symName: __ZNKSt3__112basic_stringIcNS_11char_traitsIcEENS_9allocatorIcEEE9__is_longB7v160006Ev, symObjAddr: 0x104BC, symBinAddr: 0x100011B6C, symSize: 0xA4 }
  - { offsetInCU: 0x307C4, offset: 0x307C4, size: 0x8, addend: 0x0, symName: __ZNKSt3__112basic_stringIcNS_11char_traitsIcEENS_9allocatorIcEEE18__get_long_pointerB7v160006Ev, symObjAddr: 0x10560, symBinAddr: 0x100011C10, symSize: 0x6C }
  - { offsetInCU: 0x307EA, offset: 0x307EA, size: 0x8, addend: 0x0, symName: __ZNKSt3__112basic_stringIcNS_11char_traitsIcEENS_9allocatorIcEEE19__get_short_pointerB7v160006Ev, symObjAddr: 0x105CC, symBinAddr: 0x100011C7C, symSize: 0x28 }
  - { offsetInCU: 0x30810, offset: 0x30810, size: 0x8, addend: 0x0, symName: __ZNKSt3__117__compressed_pairINS_12basic_stringIcNS_11char_traitsIcEENS_9allocatorIcEEE5__repES5_E5firstB7v160006Ev, symObjAddr: 0x105F4, symBinAddr: 0x100011CA4, symSize: 0x24 }
  - { offsetInCU: 0x30836, offset: 0x30836, size: 0x8, addend: 0x0, symName: __ZNKSt3__122__compressed_pair_elemINS_12basic_stringIcNS_11char_traitsIcEENS_9allocatorIcEEE5__repELi0ELb0EE5__getB7v160006Ev, symObjAddr: 0x10618, symBinAddr: 0x100011CC8, symSize: 0x14 }
  - { offsetInCU: 0x3085C, offset: 0x3085C, size: 0x8, addend: 0x0, symName: __ZNSt3__114pointer_traitsIPKcE10pointer_toB7v160006ERS1_, symObjAddr: 0x1062C, symBinAddr: 0x100011CDC, symSize: 0x14 }
  - { offsetInCU: 0x3087F, offset: 0x3087F, size: 0x8, addend: 0x0, symName: __ZNKSt3__112basic_stringIcNS_11char_traitsIcEENS_9allocatorIcEEE15__get_long_sizeB7v160006Ev, symObjAddr: 0x10640, symBinAddr: 0x100011CF0, symSize: 0x70 }
  - { offsetInCU: 0x308A5, offset: 0x308A5, size: 0x8, addend: 0x0, symName: __ZNKSt3__112basic_stringIcNS_11char_traitsIcEENS_9allocatorIcEEE16__get_short_sizeB7v160006Ev, symObjAddr: 0x106B0, symBinAddr: 0x100011D60, symSize: 0xA0 }
  - { offsetInCU: 0x308CB, offset: 0x308CB, size: 0x8, addend: 0x0, symName: __ZNSt3__19basic_iosIcNS_11char_traitsIcEEEC2B7v160006Ev, symObjAddr: 0x10750, symBinAddr: 0x100011E00, symSize: 0x84 }
  - { offsetInCU: 0x308F5, offset: 0x308F5, size: 0x8, addend: 0x0, symName: __ZNSt3__113basic_istreamIcNS_11char_traitsIcEEEC2B7v160006EPNS_15basic_streambufIcS2_EE, symObjAddr: 0x107D4, symBinAddr: 0x100011E84, symSize: 0x20C }
  - { offsetInCU: 0x3093A, offset: 0x3093A, size: 0x8, addend: 0x0, symName: __ZNSt3__113basic_filebufIcNS_11char_traitsIcEEE4openERKNS_12basic_stringIcS2_NS_9allocatorIcEEEEj, symObjAddr: 0x109E0, symBinAddr: 0x100012090, symSize: 0x44 }
  - { offsetInCU: 0x3097E, offset: 0x3097E, size: 0x8, addend: 0x0, symName: __ZNSt3__19basic_iosIcNS_11char_traitsIcEEE8setstateB7v160006Ej, symObjAddr: 0x10A24, symBinAddr: 0x1000120D4, symSize: 0x2C }
  - { offsetInCU: 0x309B3, offset: 0x309B3, size: 0x8, addend: 0x0, symName: __ZNSt3__18ios_baseC2B7v160006Ev, symObjAddr: 0x10A50, symBinAddr: 0x100012100, symSize: 0x74 }
  - { offsetInCU: 0x309DD, offset: 0x309DD, size: 0x8, addend: 0x0, symName: __ZNSt3__19basic_iosIcNS_11char_traitsIcEEE4initB7v160006EPNS_15basic_streambufIcS2_EE, symObjAddr: 0x10AC4, symBinAddr: 0x100012174, symSize: 0xEC }
  - { offsetInCU: 0x30A14, offset: 0x30A14, size: 0x8, addend: 0x0, symName: __ZNKSt3__112basic_stringIcNS_11char_traitsIcEENS_9allocatorIcEEE5c_strB7v160006Ev, symObjAddr: 0x10BB0, symBinAddr: 0x100012260, symSize: 0x24 }
  - { offsetInCU: 0x30A3A, offset: 0x30A3A, size: 0x8, addend: 0x0, symName: __ZNSt3__18ios_base8setstateB7v160006Ej, symObjAddr: 0x10BD4, symBinAddr: 0x100012284, symSize: 0x9C }
  - { offsetInCU: 0x30A71, offset: 0x30A71, size: 0x8, addend: 0x0, symName: __ZNSt3__16vectorINS_12basic_stringIcNS_11char_traitsIcEENS_9allocatorIcEEEENS4_IS6_EEEC2B7v160006Ev, symObjAddr: 0x10C70, symBinAddr: 0x100012320, symSize: 0x2F4 }
  - { offsetInCU: 0x30AA2, offset: 0x30AA2, size: 0x8, addend: 0x0, symName: __ZNSt3__117__compressed_pairIPNS_12basic_stringIcNS_11char_traitsIcEENS_9allocatorIcEEEENS4_IS6_EEEC1B7v160006IDnNS_18__default_init_tagEEEOT_OT0_, symObjAddr: 0x10F64, symBinAddr: 0x100012614, symSize: 0x3C }
  - { offsetInCU: 0x30AFA, offset: 0x30AFA, size: 0x8, addend: 0x0, symName: __ZNSt3__117__compressed_pairIPNS_12basic_stringIcNS_11char_traitsIcEENS_9allocatorIcEEEENS4_IS6_EEEC2B7v160006IDnNS_18__default_init_tagEEEOT_OT0_, symObjAddr: 0x10FB0, symBinAddr: 0x100012660, symSize: 0x40 }
  - { offsetInCU: 0x30B52, offset: 0x30B52, size: 0x8, addend: 0x0, symName: __ZNSt3__122__compressed_pair_elemIPNS_12basic_stringIcNS_11char_traitsIcEENS_9allocatorIcEEEELi0ELb0EEC2B7v160006IDnvEEOT_, symObjAddr: 0x10FF0, symBinAddr: 0x1000126A0, symSize: 0x64 }
  - { offsetInCU: 0x30B94, offset: 0x30B94, size: 0x8, addend: 0x0, symName: __ZNSt3__122__compressed_pair_elemINS_9allocatorINS_12basic_stringIcNS_11char_traitsIcEENS1_IcEEEEEELi1ELb1EEC2B7v160006ENS_18__default_init_tagE, symObjAddr: 0x11054, symBinAddr: 0x100012704, symSize: 0x2C }
  - { offsetInCU: 0x30BC8, offset: 0x30BC8, size: 0x8, addend: 0x0, symName: __ZNSt3__19allocatorINS_12basic_stringIcNS_11char_traitsIcEENS0_IcEEEEEC2B7v160006Ev, symObjAddr: 0x11080, symBinAddr: 0x100012730, symSize: 0x2C }
  - { offsetInCU: 0x30BF2, offset: 0x30BF2, size: 0x8, addend: 0x0, symName: __ZNSt3__116__non_trivial_ifILb1ENS_9allocatorINS_12basic_stringIcNS_11char_traitsIcEENS1_IcEEEEEEEC2B7v160006Ev, symObjAddr: 0x110AC, symBinAddr: 0x10001275C, symSize: 0x14 }
  - { offsetInCU: 0x30C1C, offset: 0x30C1C, size: 0x8, addend: 0x0, symName: __ZNSt3__16vectorINS_12basic_stringIcNS_11char_traitsIcEENS_9allocatorIcEEEENS4_IS6_EEED2B7v160006Ev, symObjAddr: 0x110C0, symBinAddr: 0x100012770, symSize: 0x1F8 }
  - { offsetInCU: 0x30C47, offset: 0x30C47, size: 0x8, addend: 0x0, symName: __ZNSt3__16vectorINS_12basic_stringIcNS_11char_traitsIcEENS_9allocatorIcEEEENS4_IS6_EEE16__destroy_vectorC1ERS8_, symObjAddr: 0x112B8, symBinAddr: 0x100012968, symSize: 0x34 }
  - { offsetInCU: 0x30C80, offset: 0x30C80, size: 0x8, addend: 0x0, symName: __ZNSt3__16vectorINS_12basic_stringIcNS_11char_traitsIcEENS_9allocatorIcEEEENS4_IS6_EEE16__destroy_vectorclB7v160006Ev, symObjAddr: 0x112EC, symBinAddr: 0x10001299C, symSize: 0x264 }
  - { offsetInCU: 0x30CA6, offset: 0x30CA6, size: 0x8, addend: 0x0, symName: __ZNSt3__16vectorINS_12basic_stringIcNS_11char_traitsIcEENS_9allocatorIcEEEENS4_IS6_EEE16__destroy_vectorC2ERS8_, symObjAddr: 0x11550, symBinAddr: 0x100012C00, symSize: 0x70 }
  - { offsetInCU: 0x30CDF, offset: 0x30CDF, size: 0x8, addend: 0x0, symName: __ZNKSt3__16vectorINS_12basic_stringIcNS_11char_traitsIcEENS_9allocatorIcEEEENS4_IS6_EEE17__annotate_deleteB7v160006Ev, symObjAddr: 0x115C0, symBinAddr: 0x100012C70, symSize: 0xE8 }
  - { offsetInCU: 0x30D05, offset: 0x30D05, size: 0x8, addend: 0x0, symName: __ZNSt3__16vectorINS_12basic_stringIcNS_11char_traitsIcEENS_9allocatorIcEEEENS4_IS6_EEE7__clearB7v160006Ev, symObjAddr: 0x116B8, symBinAddr: 0x100012D68, symSize: 0x64 }
  - { offsetInCU: 0x30D2B, offset: 0x30D2B, size: 0x8, addend: 0x0, symName: __ZNSt3__116allocator_traitsINS_9allocatorINS_12basic_stringIcNS_11char_traitsIcEENS1_IcEEEEEEE10deallocateB7v160006ERS7_PS6_m, symObjAddr: 0x1171C, symBinAddr: 0x100012DCC, symSize: 0x34 }
  - { offsetInCU: 0x30D6D, offset: 0x30D6D, size: 0x8, addend: 0x0, symName: __ZNSt3__16vectorINS_12basic_stringIcNS_11char_traitsIcEENS_9allocatorIcEEEENS4_IS6_EEE7__allocB7v160006Ev, symObjAddr: 0x11750, symBinAddr: 0x100012E00, symSize: 0x28 }
  - { offsetInCU: 0x30D93, offset: 0x30D93, size: 0x8, addend: 0x0, symName: __ZNKSt3__16vectorINS_12basic_stringIcNS_11char_traitsIcEENS_9allocatorIcEEEENS4_IS6_EEE8capacityB7v160006Ev, symObjAddr: 0x11778, symBinAddr: 0x100012E28, symSize: 0xBC }
  - { offsetInCU: 0x30DB9, offset: 0x30DB9, size: 0x8, addend: 0x0, symName: __ZNKSt3__16vectorINS_12basic_stringIcNS_11char_traitsIcEENS_9allocatorIcEEEENS4_IS6_EEE31__annotate_contiguous_containerEPKvSA_SA_SA_, symObjAddr: 0x11834, symBinAddr: 0x100012EE4, symSize: 0x58 }
  - { offsetInCU: 0x30E1B, offset: 0x30E1B, size: 0x8, addend: 0x0, symName: __ZNKSt3__16vectorINS_12basic_stringIcNS_11char_traitsIcEENS_9allocatorIcEEEENS4_IS6_EEE4dataB7v160006Ev, symObjAddr: 0x1188C, symBinAddr: 0x100012F3C, symSize: 0x64 }
  - { offsetInCU: 0x30E41, offset: 0x30E41, size: 0x8, addend: 0x0, symName: __ZNKSt3__16vectorINS_12basic_stringIcNS_11char_traitsIcEENS_9allocatorIcEEEENS4_IS6_EEE4sizeB7v160006Ev, symObjAddr: 0x118F0, symBinAddr: 0x100012FA0, symSize: 0xB0 }
  - { offsetInCU: 0x30E67, offset: 0x30E67, size: 0x8, addend: 0x0, symName: __ZNSt3__16vectorINS_12basic_stringIcNS_11char_traitsIcEENS_9allocatorIcEEEENS4_IS6_EEE22__base_destruct_at_endB7v160006EPS6_, symObjAddr: 0x119B4, symBinAddr: 0x100013064, symSize: 0x114 }
  - { offsetInCU: 0x30EAB, offset: 0x30EAB, size: 0x8, addend: 0x0, symName: __ZNSt3__116allocator_traitsINS_9allocatorINS_12basic_stringIcNS_11char_traitsIcEENS1_IcEEEEEEE7destroyB7v160006IS6_vEEvRS7_PT_, symObjAddr: 0x11AC8, symBinAddr: 0x100013178, symSize: 0x2C }
  - { offsetInCU: 0x30EE8, offset: 0x30EE8, size: 0x8, addend: 0x0, symName: __ZNSt3__19allocatorINS_12basic_stringIcNS_11char_traitsIcEENS0_IcEEEEE7destroyB7v160006EPS5_, symObjAddr: 0x11AF4, symBinAddr: 0x1000131A4, symSize: 0x28 }
  - { offsetInCU: 0x30F1C, offset: 0x30F1C, size: 0x8, addend: 0x0, symName: __ZNSt3__19allocatorINS_12basic_stringIcNS_11char_traitsIcEENS0_IcEEEEE10deallocateB7v160006EPS5_m, symObjAddr: 0x11B1C, symBinAddr: 0x1000131CC, symSize: 0x50 }
  - { offsetInCU: 0x30F5E, offset: 0x30F5E, size: 0x8, addend: 0x0, symName: __ZNSt3__117__compressed_pairIPNS_12basic_stringIcNS_11char_traitsIcEENS_9allocatorIcEEEENS4_IS6_EEE6secondB7v160006Ev, symObjAddr: 0x11B6C, symBinAddr: 0x10001321C, symSize: 0x24 }
  - { offsetInCU: 0x30F84, offset: 0x30F84, size: 0x8, addend: 0x0, symName: __ZNSt3__122__compressed_pair_elemINS_9allocatorINS_12basic_stringIcNS_11char_traitsIcEENS1_IcEEEEEELi1ELb1EE5__getB7v160006Ev, symObjAddr: 0x11B90, symBinAddr: 0x100013240, symSize: 0x14 }
  - { offsetInCU: 0x30FAA, offset: 0x30FAA, size: 0x8, addend: 0x0, symName: __ZNKSt3__16vectorINS_12basic_stringIcNS_11char_traitsIcEENS_9allocatorIcEEEENS4_IS6_EEE9__end_capB7v160006Ev, symObjAddr: 0x11BA4, symBinAddr: 0x100013254, symSize: 0x28 }
  - { offsetInCU: 0x30FD0, offset: 0x30FD0, size: 0x8, addend: 0x0, symName: __ZNKSt3__117__compressed_pairIPNS_12basic_stringIcNS_11char_traitsIcEENS_9allocatorIcEEEENS4_IS6_EEE5firstB7v160006Ev, symObjAddr: 0x11BCC, symBinAddr: 0x10001327C, symSize: 0x24 }
  - { offsetInCU: 0x30FF6, offset: 0x30FF6, size: 0x8, addend: 0x0, symName: __ZNKSt3__122__compressed_pair_elemIPNS_12basic_stringIcNS_11char_traitsIcEENS_9allocatorIcEEEELi0ELb0EE5__getB7v160006Ev, symObjAddr: 0x11BF0, symBinAddr: 0x1000132A0, symSize: 0x14 }
  - { offsetInCU: 0x3101C, offset: 0x3101C, size: 0x8, addend: 0x0, symName: __ZNKSt3__113basic_filebufIcNS_11char_traitsIcEEE7is_openEv, symObjAddr: 0x11C04, symBinAddr: 0x1000132B4, symSize: 0x70 }
  - { offsetInCU: 0x31044, offset: 0x31044, size: 0x8, addend: 0x0, symName: __ZNSt3__111char_traitsIcE6lengthEPKc, symObjAddr: 0x123B8, symBinAddr: 0x100013A68, symSize: 0x40 }
  - { offsetInCU: 0x3108A, offset: 0x3108A, size: 0x8, addend: 0x0, symName: __ZNKSt3__113basic_ostreamIcNS_11char_traitsIcEEE6sentrycvbB7v160006Ev, symObjAddr: 0x123F8, symBinAddr: 0x100013AA8, symSize: 0x88 }
  - { offsetInCU: 0x310B0, offset: 0x310B0, size: 0x8, addend: 0x0, symName: __ZNSt3__119ostreambuf_iteratorIcNS_11char_traitsIcEEEC1B7v160006ERNS_13basic_ostreamIcS2_EE, symObjAddr: 0x12BE0, symBinAddr: 0x100014290, symSize: 0x34 }
  - { offsetInCU: 0x310E8, offset: 0x310E8, size: 0x8, addend: 0x0, symName: __ZNKSt3__18ios_base5flagsB7v160006Ev, symObjAddr: 0x12C14, symBinAddr: 0x1000142C4, symSize: 0x8C }
  - { offsetInCU: 0x31110, offset: 0x31110, size: 0x8, addend: 0x0, symName: __ZNKSt3__19basic_iosIcNS_11char_traitsIcEEE4fillB7v160006Ev, symObjAddr: 0x12CA0, symBinAddr: 0x100014350, symSize: 0x198 }
  - { offsetInCU: 0x31138, offset: 0x31138, size: 0x8, addend: 0x0, symName: __ZNKSt3__119ostreambuf_iteratorIcNS_11char_traitsIcEEE6failedB7v160006Ev, symObjAddr: 0x12E38, symBinAddr: 0x1000144E8, symSize: 0x6C }
  - { offsetInCU: 0x3115E, offset: 0x3115E, size: 0x8, addend: 0x0, symName: __ZNKSt3__18ios_base5widthB7v160006Ev, symObjAddr: 0x12EA4, symBinAddr: 0x100014554, symSize: 0x64 }
  - { offsetInCU: 0x31186, offset: 0x31186, size: 0x8, addend: 0x0, symName: __ZNSt3__115basic_streambufIcNS_11char_traitsIcEEE5sputnB7v160006EPKcl, symObjAddr: 0x12F08, symBinAddr: 0x1000145B8, symSize: 0xC8 }
  - { offsetInCU: 0x311C8, offset: 0x311C8, size: 0x8, addend: 0x0, symName: __ZNSt3__112basic_stringIcNS_11char_traitsIcEENS_9allocatorIcEEEC1B7v160006Emc, symObjAddr: 0x12FD0, symBinAddr: 0x100014680, symSize: 0x3C }
  - { offsetInCU: 0x31210, offset: 0x31210, size: 0x8, addend: 0x0, symName: __ZNSt3__112basic_stringIcNS_11char_traitsIcEENS_9allocatorIcEEE4dataB7v160006Ev, symObjAddr: 0x1300C, symBinAddr: 0x1000146BC, symSize: 0x28 }
  - { offsetInCU: 0x31236, offset: 0x31236, size: 0x8, addend: 0x0, symName: __ZNSt3__18ios_base5widthB7v160006El, symObjAddr: 0x13034, symBinAddr: 0x1000146E4, symSize: 0xB8 }
  - { offsetInCU: 0x3127C, offset: 0x3127C, size: 0x8, addend: 0x0, symName: __ZNSt3__112basic_stringIcNS_11char_traitsIcEENS_9allocatorIcEEEC2B7v160006Emc, symObjAddr: 0x130EC, symBinAddr: 0x10001479C, symSize: 0x20C }
  - { offsetInCU: 0x312C7, offset: 0x312C7, size: 0x8, addend: 0x0, symName: __ZNSt3__112basic_stringIcNS_11char_traitsIcEENS_9allocatorIcEEE13__get_pointerB7v160006Ev, symObjAddr: 0x1330C, symBinAddr: 0x1000149BC, symSize: 0x54 }
  - { offsetInCU: 0x312ED, offset: 0x312ED, size: 0x8, addend: 0x0, symName: __ZNSt3__112basic_stringIcNS_11char_traitsIcEENS_9allocatorIcEEE18__get_long_pointerB7v160006Ev, symObjAddr: 0x13360, symBinAddr: 0x100014A10, symSize: 0x6C }
  - { offsetInCU: 0x31313, offset: 0x31313, size: 0x8, addend: 0x0, symName: __ZNSt3__112basic_stringIcNS_11char_traitsIcEENS_9allocatorIcEEE19__get_short_pointerB7v160006Ev, symObjAddr: 0x133CC, symBinAddr: 0x100014A7C, symSize: 0x28 }
  - { offsetInCU: 0x31339, offset: 0x31339, size: 0x8, addend: 0x0, symName: __ZNSt3__114pointer_traitsIPcE10pointer_toB7v160006ERc, symObjAddr: 0x133F4, symBinAddr: 0x100014AA4, symSize: 0x14 }
  - { offsetInCU: 0x3135C, offset: 0x3135C, size: 0x8, addend: 0x0, symName: __ZNSt3__119ostreambuf_iteratorIcNS_11char_traitsIcEEEC2B7v160006ERNS_13basic_ostreamIcS2_EE, symObjAddr: 0x13408, symBinAddr: 0x100014AB8, symSize: 0x10C }
  - { offsetInCU: 0x31394, offset: 0x31394, size: 0x8, addend: 0x0, symName: __ZNKSt3__19basic_iosIcNS_11char_traitsIcEEE5rdbufB7v160006Ev, symObjAddr: 0x13514, symBinAddr: 0x100014BC4, symSize: 0x24 }
  - { offsetInCU: 0x313BC, offset: 0x313BC, size: 0x8, addend: 0x0, symName: __ZNKSt3__18ios_base5rdbufB7v160006Ev, symObjAddr: 0x13538, symBinAddr: 0x100014BE8, symSize: 0x64 }
  - { offsetInCU: 0x313E2, offset: 0x313E2, size: 0x8, addend: 0x0, symName: __ZNSt3__111char_traitsIcE11eq_int_typeEii, symObjAddr: 0x1359C, symBinAddr: 0x100014C4C, symSize: 0x28 }
  - { offsetInCU: 0x31413, offset: 0x31413, size: 0x8, addend: 0x0, symName: __ZNKSt3__19basic_iosIcNS_11char_traitsIcEEE5widenB7v160006Ec, symObjAddr: 0x135C4, symBinAddr: 0x100014C74, symSize: 0x2A4 }
  - { offsetInCU: 0x3147F, offset: 0x3147F, size: 0x8, addend: 0x0, symName: __ZNKSt3__15ctypeIcE5widenB7v160006Ec, symObjAddr: 0x13894, symBinAddr: 0x100014F44, symSize: 0xBC }
  - { offsetInCU: 0x314D7, offset: 0x314D7, size: 0x8, addend: 0x0, symName: __ZNKSt3__113basic_istreamIcNS_11char_traitsIcEEE6sentrycvbB7v160006Ev, symObjAddr: 0x13FFC, symBinAddr: 0x1000156AC, symSize: 0x88 }
  - { offsetInCU: 0x314FD, offset: 0x314FD, size: 0x8, addend: 0x0, symName: __ZNSt3__112basic_stringIcNS_11char_traitsIcEENS_9allocatorIcEEE5clearB7v160006Ev, symObjAddr: 0x14084, symBinAddr: 0x100015734, symSize: 0x328 }
  - { offsetInCU: 0x31526, offset: 0x31526, size: 0x8, addend: 0x0, symName: __ZNSt3__115basic_streambufIcNS_11char_traitsIcEEE6sbumpcB7v160006Ev, symObjAddr: 0x143AC, symBinAddr: 0x100015A5C, symSize: 0x1EC }
  - { offsetInCU: 0x3154C, offset: 0x3154C, size: 0x8, addend: 0x0, symName: __ZNSt3__111char_traitsIcE12to_char_typeEi, symObjAddr: 0x14598, symBinAddr: 0x100015C48, symSize: 0x18 }
  - { offsetInCU: 0x3156F, offset: 0x3156F, size: 0x8, addend: 0x0, symName: __ZNSt3__111char_traitsIcE2eqEcc, symObjAddr: 0x145B0, symBinAddr: 0x100015C60, symSize: 0x28 }
  - { offsetInCU: 0x315A0, offset: 0x315A0, size: 0x8, addend: 0x0, symName: __ZNKSt3__112basic_stringIcNS_11char_traitsIcEENS_9allocatorIcEEE8max_sizeB7v160006Ev, symObjAddr: 0x145D8, symBinAddr: 0x100015C88, symSize: 0xBC }
  - { offsetInCU: 0x315F3, offset: 0x315F3, size: 0x8, addend: 0x0, symName: __ZNSt3__18ios_base18__setstate_nothrowB7v160006Ej, symObjAddr: 0x14694, symBinAddr: 0x100015D44, symSize: 0x178 }
  - { offsetInCU: 0x31628, offset: 0x31628, size: 0x8, addend: 0x0, symName: __ZNKSt3__19basic_iosIcNS_11char_traitsIcEEE10exceptionsB7v160006Ev, symObjAddr: 0x1480C, symBinAddr: 0x100015EBC, symSize: 0x24 }
  - { offsetInCU: 0x3164E, offset: 0x3164E, size: 0x8, addend: 0x0, symName: __ZNSt3__111char_traitsIcE6assignERcRKc, symObjAddr: 0x14840, symBinAddr: 0x100015EF0, symSize: 0xF4 }
  - { offsetInCU: 0x3167F, offset: 0x3167F, size: 0x8, addend: 0x0, symName: __ZNSt3__112basic_stringIcNS_11char_traitsIcEENS_9allocatorIcEEE15__set_long_sizeB7v160006Em, symObjAddr: 0x14934, symBinAddr: 0x100015FE4, symSize: 0x80 }
  - { offsetInCU: 0x316B4, offset: 0x316B4, size: 0x8, addend: 0x0, symName: __ZNSt3__112basic_stringIcNS_11char_traitsIcEENS_9allocatorIcEEE16__set_short_sizeB7v160006Em, symObjAddr: 0x149B4, symBinAddr: 0x100016064, symSize: 0x130 }
  - { offsetInCU: 0x316E9, offset: 0x316E9, size: 0x8, addend: 0x0, symName: __ZNSt3__111char_traitsIcE11to_int_typeEc, symObjAddr: 0x14AE4, symBinAddr: 0x100016194, symSize: 0x14 }
  - { offsetInCU: 0x31717, offset: 0x31717, size: 0x8, addend: 0x0, symName: __ZNSt3__116allocator_traitsINS_9allocatorIcEEE8max_sizeB7v160006IS2_vEEmRKS2_, symObjAddr: 0x14AF8, symBinAddr: 0x1000161A8, symSize: 0x24 }
  - { offsetInCU: 0x31745, offset: 0x31745, size: 0x8, addend: 0x0, symName: __ZNKSt3__112basic_stringIcNS_11char_traitsIcEENS_9allocatorIcEEE7__allocB7v160006Ev, symObjAddr: 0x14B1C, symBinAddr: 0x1000161CC, symSize: 0x24 }
  - { offsetInCU: 0x3176B, offset: 0x3176B, size: 0x8, addend: 0x0, symName: __ZNSt3__114numeric_limitsImE3maxB7v160006Ev, symObjAddr: 0x14B40, symBinAddr: 0x1000161F0, symSize: 0x14 }
  - { offsetInCU: 0x3177F, offset: 0x3177F, size: 0x8, addend: 0x0, symName: __ZNKSt3__19allocatorIcE8max_sizeB7v160006Ev, symObjAddr: 0x14B54, symBinAddr: 0x100016204, symSize: 0x14 }
  - { offsetInCU: 0x317A5, offset: 0x317A5, size: 0x8, addend: 0x0, symName: __ZNKSt3__117__compressed_pairINS_12basic_stringIcNS_11char_traitsIcEENS_9allocatorIcEEE5__repES5_E6secondB7v160006Ev, symObjAddr: 0x14B68, symBinAddr: 0x100016218, symSize: 0x24 }
  - { offsetInCU: 0x317CB, offset: 0x317CB, size: 0x8, addend: 0x0, symName: __ZNKSt3__122__compressed_pair_elemINS_9allocatorIcEELi1ELb1EE5__getB7v160006Ev, symObjAddr: 0x14B8C, symBinAddr: 0x10001623C, symSize: 0x14 }
  - { offsetInCU: 0x317F1, offset: 0x317F1, size: 0x8, addend: 0x0, symName: __ZNSt3__123__libcpp_numeric_limitsImLb1EE3maxB7v160006Ev, symObjAddr: 0x14BA0, symBinAddr: 0x100016250, symSize: 0x8 }
  - { offsetInCU: 0x31805, offset: 0x31805, size: 0x8, addend: 0x0, symName: __ZNKSt3__18ios_base10exceptionsB7v160006Ev, symObjAddr: 0x14BA8, symBinAddr: 0x100016258, symSize: 0x8C }
  - { offsetInCU: 0x3182D, offset: 0x3182D, size: 0x8, addend: 0x0, symName: __ZNKSt3__19basic_iosIcNS_11char_traitsIcEEE4failB7v160006Ev, symObjAddr: 0x14C34, symBinAddr: 0x1000162E4, symSize: 0x28 }
  - { offsetInCU: 0x31853, offset: 0x31853, size: 0x8, addend: 0x0, symName: __ZNKSt3__18ios_base4failB7v160006Ev, symObjAddr: 0x14C5C, symBinAddr: 0x10001630C, symSize: 0x9C }
  - { offsetInCU: 0x3187B, offset: 0x3187B, size: 0x8, addend: 0x0, symName: __ZNSt3__16vectorINS_12basic_stringIcNS_11char_traitsIcEENS_9allocatorIcEEEENS4_IS6_EEE9__end_capB7v160006Ev, symObjAddr: 0x14CF8, symBinAddr: 0x1000163A8, symSize: 0x28 }
  - { offsetInCU: 0x318A1, offset: 0x318A1, size: 0x8, addend: 0x0, symName: __ZNSt3__16vectorINS_12basic_stringIcNS_11char_traitsIcEENS_9allocatorIcEEEENS4_IS6_EEE22__construct_one_at_endB7v160006IJRKS6_EEEvDpOT_, symObjAddr: 0x14D20, symBinAddr: 0x1000163D0, symSize: 0x36C }
  - { offsetInCU: 0x318F6, offset: 0x318F6, size: 0x8, addend: 0x0, symName: __ZNSt3__16vectorINS_12basic_stringIcNS_11char_traitsIcEENS_9allocatorIcEEEENS4_IS6_EEE21__push_back_slow_pathIRKS6_EEvOT_, symObjAddr: 0x1508C, symBinAddr: 0x10001673C, symSize: 0x3C0 }
  - { offsetInCU: 0x3195B, offset: 0x3195B, size: 0x8, addend: 0x0, symName: __ZNSt3__117__compressed_pairIPNS_12basic_stringIcNS_11char_traitsIcEENS_9allocatorIcEEEENS4_IS6_EEE5firstB7v160006Ev, symObjAddr: 0x1544C, symBinAddr: 0x100016AFC, symSize: 0x24 }
  - { offsetInCU: 0x31981, offset: 0x31981, size: 0x8, addend: 0x0, symName: __ZNSt3__122__compressed_pair_elemIPNS_12basic_stringIcNS_11char_traitsIcEENS_9allocatorIcEEEELi0ELb0EE5__getB7v160006Ev, symObjAddr: 0x15470, symBinAddr: 0x100016B20, symSize: 0x14 }
  - { offsetInCU: 0x319C3, offset: 0x319C3, size: 0x8, addend: 0x0, symName: __ZNSt3__16vectorINS_12basic_stringIcNS_11char_traitsIcEENS_9allocatorIcEEEENS4_IS6_EEE21_ConstructTransactionC1B7v160006ERS8_m, symObjAddr: 0x15484, symBinAddr: 0x100016B34, symSize: 0x3C }
  - { offsetInCU: 0x31A0B, offset: 0x31A0B, size: 0x8, addend: 0x0, symName: __ZNSt3__116allocator_traitsINS_9allocatorINS_12basic_stringIcNS_11char_traitsIcEENS1_IcEEEEEEE9constructB7v160006IS6_JRKS6_EvEEvRS7_PT_DpOT0_, symObjAddr: 0x154C0, symBinAddr: 0x100016B70, symSize: 0x34 }
  - { offsetInCU: 0x31A62, offset: 0x31A62, size: 0x8, addend: 0x0, symName: __ZNSt3__16vectorINS_12basic_stringIcNS_11char_traitsIcEENS_9allocatorIcEEEENS4_IS6_EEE21_ConstructTransactionD1B7v160006Ev, symObjAddr: 0x154F4, symBinAddr: 0x100016BA4, symSize: 0x2C }
  - { offsetInCU: 0x31A8C, offset: 0x31A8C, size: 0x8, addend: 0x0, symName: __ZNSt3__16vectorINS_12basic_stringIcNS_11char_traitsIcEENS_9allocatorIcEEEENS4_IS6_EEE21_ConstructTransactionC2B7v160006ERS8_m, symObjAddr: 0x15520, symBinAddr: 0x100016BD0, symSize: 0x1D8 }
  - { offsetInCU: 0x31AD4, offset: 0x31AD4, size: 0x8, addend: 0x0, symName: __ZNKSt3__16vectorINS_12basic_stringIcNS_11char_traitsIcEENS_9allocatorIcEEEENS4_IS6_EEE19__annotate_increaseB7v160006Em, symObjAddr: 0x156F8, symBinAddr: 0x100016DA8, symSize: 0xF8 }
  - { offsetInCU: 0x31B09, offset: 0x31B09, size: 0x8, addend: 0x0, symName: __ZNSt3__19allocatorINS_12basic_stringIcNS_11char_traitsIcEENS0_IcEEEEE9constructB7v160006IS5_JRKS5_EEEvPT_DpOT0_, symObjAddr: 0x157F0, symBinAddr: 0x100016EA0, symSize: 0x30 }
  - { offsetInCU: 0x31B5F, offset: 0x31B5F, size: 0x8, addend: 0x0, symName: __ZNSt3__16vectorINS_12basic_stringIcNS_11char_traitsIcEENS_9allocatorIcEEEENS4_IS6_EEE21_ConstructTransactionD2B7v160006Ev, symObjAddr: 0x15820, symBinAddr: 0x100016ED0, symSize: 0x278 }
  - { offsetInCU: 0x31B89, offset: 0x31B89, size: 0x8, addend: 0x0, symName: __ZNKSt3__16vectorINS_12basic_stringIcNS_11char_traitsIcEENS_9allocatorIcEEEENS4_IS6_EEE17__annotate_shrinkB7v160006Em, symObjAddr: 0x15A98, symBinAddr: 0x100017148, symSize: 0xE4 }
  - { offsetInCU: 0x31BBE, offset: 0x31BBE, size: 0x8, addend: 0x0, symName: __ZNKSt3__16vectorINS_12basic_stringIcNS_11char_traitsIcEENS_9allocatorIcEEEENS4_IS6_EEE11__recommendB7v160006Em, symObjAddr: 0x15B7C, symBinAddr: 0x10001722C, symSize: 0x384 }
  - { offsetInCU: 0x31C1A, offset: 0x31C1A, size: 0x8, addend: 0x0, symName: __ZNSt3__114__split_bufferINS_12basic_stringIcNS_11char_traitsIcEENS_9allocatorIcEEEERNS4_IS6_EEEC1EmmS8_, symObjAddr: 0x15F00, symBinAddr: 0x1000175B0, symSize: 0x44 }
  - { offsetInCU: 0x31C70, offset: 0x31C70, size: 0x8, addend: 0x0, symName: __ZNSt3__114__split_bufferINS_12basic_stringIcNS_11char_traitsIcEENS_9allocatorIcEEEERNS4_IS6_EEED1Ev, symObjAddr: 0x164B8, symBinAddr: 0x100017B68, symSize: 0x2C }
  - { offsetInCU: 0x31C9C, offset: 0x31C9C, size: 0x8, addend: 0x0, symName: __ZNKSt3__16vectorINS_12basic_stringIcNS_11char_traitsIcEENS_9allocatorIcEEEENS4_IS6_EEE8max_sizeEv, symObjAddr: 0x164E4, symBinAddr: 0x100017B94, symSize: 0x2FC }
  - { offsetInCU: 0x31CC5, offset: 0x31CC5, size: 0x8, addend: 0x0, symName: __ZNKSt3__16vectorINS_12basic_stringIcNS_11char_traitsIcEENS_9allocatorIcEEEENS4_IS6_EEE20__throw_length_errorB7v160006Ev, symObjAddr: 0x167E0, symBinAddr: 0x100017E90, symSize: 0x20 }
  - { offsetInCU: 0x31CF6, offset: 0x31CF6, size: 0x8, addend: 0x0, symName: __ZNSt3__116allocator_traitsINS_9allocatorINS_12basic_stringIcNS_11char_traitsIcEENS1_IcEEEEEEE8max_sizeB7v160006IS7_vEEmRKS7_, symObjAddr: 0x16858, symBinAddr: 0x100017F08, symSize: 0x24 }
  - { offsetInCU: 0x31D24, offset: 0x31D24, size: 0x8, addend: 0x0, symName: __ZNKSt3__16vectorINS_12basic_stringIcNS_11char_traitsIcEENS_9allocatorIcEEEENS4_IS6_EEE7__allocB7v160006Ev, symObjAddr: 0x1687C, symBinAddr: 0x100017F2C, symSize: 0x28 }
  - { offsetInCU: 0x31D4A, offset: 0x31D4A, size: 0x8, addend: 0x0, symName: __ZNSt3__114numeric_limitsIlE3maxB7v160006Ev, symObjAddr: 0x168A4, symBinAddr: 0x100017F54, symSize: 0x14 }
  - { offsetInCU: 0x31D69, offset: 0x31D69, size: 0x8, addend: 0x0, symName: __ZNKSt3__16__lessImmEclB7v160006ERKmS3_, symObjAddr: 0x16AA0, symBinAddr: 0x100018150, symSize: 0xBC }
  - { offsetInCU: 0x31DAB, offset: 0x31DAB, size: 0x8, addend: 0x0, symName: __ZNKSt3__19allocatorINS_12basic_stringIcNS_11char_traitsIcEENS0_IcEEEEE8max_sizeB7v160006Ev, symObjAddr: 0x16B5C, symBinAddr: 0x10001820C, symSize: 0x18 }
  - { offsetInCU: 0x31DD1, offset: 0x31DD1, size: 0x8, addend: 0x0, symName: __ZNKSt3__117__compressed_pairIPNS_12basic_stringIcNS_11char_traitsIcEENS_9allocatorIcEEEENS4_IS6_EEE6secondB7v160006Ev, symObjAddr: 0x16B74, symBinAddr: 0x100018224, symSize: 0x24 }
  - { offsetInCU: 0x31DF7, offset: 0x31DF7, size: 0x8, addend: 0x0, symName: __ZNKSt3__122__compressed_pair_elemINS_9allocatorINS_12basic_stringIcNS_11char_traitsIcEENS1_IcEEEEEELi1ELb1EE5__getB7v160006Ev, symObjAddr: 0x16B98, symBinAddr: 0x100018248, symSize: 0x14 }
  - { offsetInCU: 0x31E1D, offset: 0x31E1D, size: 0x8, addend: 0x0, symName: __ZNSt3__123__libcpp_numeric_limitsIlLb1EE3maxB7v160006Ev, symObjAddr: 0x16BAC, symBinAddr: 0x10001825C, symSize: 0x8 }
  - { offsetInCU: 0x31E31, offset: 0x31E31, size: 0x8, addend: 0x0, symName: __ZNSt12length_errorC1B7v160006EPKc, symObjAddr: 0x16C1C, symBinAddr: 0x1000182CC, symSize: 0x34 }
  - { offsetInCU: 0x31E69, offset: 0x31E69, size: 0x8, addend: 0x0, symName: __ZNSt12length_errorC2B7v160006EPKc, symObjAddr: 0x16C50, symBinAddr: 0x100018300, symSize: 0x8C }
  - { offsetInCU: 0x31EA1, offset: 0x31EA1, size: 0x8, addend: 0x0, symName: __ZNSt3__114__split_bufferINS_12basic_stringIcNS_11char_traitsIcEENS_9allocatorIcEEEERNS4_IS6_EEEC2EmmS8_, symObjAddr: 0x16EC4, symBinAddr: 0x100018574, symSize: 0x530 }
  - { offsetInCU: 0x31F1D, offset: 0x31F1D, size: 0x8, addend: 0x0, symName: __ZNSt3__117__compressed_pairIPNS_12basic_stringIcNS_11char_traitsIcEENS_9allocatorIcEEEERNS4_IS6_EEEC1B7v160006IDnS9_EEOT_OT0_, symObjAddr: 0x173F4, symBinAddr: 0x100018AA4, symSize: 0x3C }
  - { offsetInCU: 0x31F75, offset: 0x31F75, size: 0x8, addend: 0x0, symName: __ZNSt3__114__split_bufferINS_12basic_stringIcNS_11char_traitsIcEENS_9allocatorIcEEEERNS4_IS6_EEE7__allocB7v160006Ev, symObjAddr: 0x176BC, symBinAddr: 0x100018D6C, symSize: 0x28 }
  - { offsetInCU: 0x31F9B, offset: 0x31F9B, size: 0x8, addend: 0x0, symName: __ZNSt3__114__split_bufferINS_12basic_stringIcNS_11char_traitsIcEENS_9allocatorIcEEEERNS4_IS6_EEE9__end_capB7v160006Ev, symObjAddr: 0x176E4, symBinAddr: 0x100018D94, symSize: 0x28 }
  - { offsetInCU: 0x31FC1, offset: 0x31FC1, size: 0x8, addend: 0x0, symName: __ZNSt3__117__compressed_pairIPNS_12basic_stringIcNS_11char_traitsIcEENS_9allocatorIcEEEERNS4_IS6_EEEC2B7v160006IDnS9_EEOT_OT0_, symObjAddr: 0x1770C, symBinAddr: 0x100018DBC, symSize: 0x48 }
  - { offsetInCU: 0x32019, offset: 0x32019, size: 0x8, addend: 0x0, symName: __ZNSt3__122__compressed_pair_elemIRNS_9allocatorINS_12basic_stringIcNS_11char_traitsIcEENS1_IcEEEEEELi1ELb0EEC2B7v160006IS8_vEEOT_, symObjAddr: 0x17754, symBinAddr: 0x100018E04, symSize: 0x70 }
  - { offsetInCU: 0x3205B, offset: 0x3205B, size: 0x8, addend: 0x0, symName: __ZNSt3__19allocatorINS_12basic_stringIcNS_11char_traitsIcEENS0_IcEEEEE8allocateB7v160006Em, symObjAddr: 0x177C4, symBinAddr: 0x100018E74, symSize: 0x60 }
  - { offsetInCU: 0x3208F, offset: 0x3208F, size: 0x8, addend: 0x0, symName: __ZNSt3__117__compressed_pairIPNS_12basic_stringIcNS_11char_traitsIcEENS_9allocatorIcEEEERNS4_IS6_EEE6secondB7v160006Ev, symObjAddr: 0x1790C, symBinAddr: 0x100018FBC, symSize: 0x28 }
  - { offsetInCU: 0x320B5, offset: 0x320B5, size: 0x8, addend: 0x0, symName: __ZNSt3__122__compressed_pair_elemIRNS_9allocatorINS_12basic_stringIcNS_11char_traitsIcEENS1_IcEEEEEELi1ELb0EE5__getB7v160006Ev, symObjAddr: 0x17934, symBinAddr: 0x100018FE4, symSize: 0x60 }
  - { offsetInCU: 0x320DB, offset: 0x320DB, size: 0x8, addend: 0x0, symName: __ZNSt3__117__compressed_pairIPNS_12basic_stringIcNS_11char_traitsIcEENS_9allocatorIcEEEERNS4_IS6_EEE5firstB7v160006Ev, symObjAddr: 0x17994, symBinAddr: 0x100019044, symSize: 0x24 }
  - { offsetInCU: 0x32101, offset: 0x32101, size: 0x8, addend: 0x0, symName: __ZNSt3__116reverse_iteratorIPNS_12basic_stringIcNS_11char_traitsIcEENS_9allocatorIcEEEEEC1B7v160006ES7_, symObjAddr: 0x17EFC, symBinAddr: 0x1000195AC, symSize: 0x34 }
  - { offsetInCU: 0x32139, offset: 0x32139, size: 0x8, addend: 0x0, symName: __ZNKSt3__116reverse_iteratorIPNS_12basic_stringIcNS_11char_traitsIcEENS_9allocatorIcEEEEE4baseB7v160006Ev, symObjAddr: 0x17F30, symBinAddr: 0x1000195E0, symSize: 0x64 }
  - { offsetInCU: 0x3215F, offset: 0x3215F, size: 0x8, addend: 0x0, symName: __ZNKSt3__16vectorINS_12basic_stringIcNS_11char_traitsIcEENS_9allocatorIcEEEENS4_IS6_EEE14__annotate_newB7v160006Em, symObjAddr: 0x180C8, symBinAddr: 0x100019778, symSize: 0xDC }
  - { offsetInCU: 0x32194, offset: 0x32194, size: 0x8, addend: 0x0, symName: __ZNSt3__129_AllocatorDestroyRangeReverseINS_9allocatorINS_12basic_stringIcNS_11char_traitsIcEENS1_IcEEEEEENS_16reverse_iteratorIPS6_EEEC1B7v160006ERS7_RSA_SD_, symObjAddr: 0x183AC, symBinAddr: 0x100019A5C, symSize: 0x44 }
  - { offsetInCU: 0x321F1, offset: 0x321F1, size: 0x8, addend: 0x0, symName: __ZNSt3__116allocator_traitsINS_9allocatorINS_12basic_stringIcNS_11char_traitsIcEENS1_IcEEEEEEE9constructB7v160006IS6_JS6_EvEEvRS7_PT_DpOT0_, symObjAddr: 0x18438, symBinAddr: 0x100019AE8, symSize: 0x34 }
  - { offsetInCU: 0x32248, offset: 0x32248, size: 0x8, addend: 0x0, symName: __ZNKSt3__116reverse_iteratorIPNS_12basic_stringIcNS_11char_traitsIcEENS_9allocatorIcEEEEEdeB7v160006Ev, symObjAddr: 0x18490, symBinAddr: 0x100019B40, symSize: 0x74 }
  - { offsetInCU: 0x3227D, offset: 0x3227D, size: 0x8, addend: 0x0, symName: __ZNSt3__116reverse_iteratorIPNS_12basic_stringIcNS_11char_traitsIcEENS_9allocatorIcEEEEEppB7v160006Ev, symObjAddr: 0x18504, symBinAddr: 0x100019BB4, symSize: 0x6C }
  - { offsetInCU: 0x322A3, offset: 0x322A3, size: 0x8, addend: 0x0, symName: __ZNSt3__128__exception_guard_exceptionsINS_29_AllocatorDestroyRangeReverseINS_9allocatorINS_12basic_stringIcNS_11char_traitsIcEENS2_IcEEEEEENS_16reverse_iteratorIPS7_EEEEE10__completeB7v160006Ev, symObjAddr: 0x18570, symBinAddr: 0x100019C20, symSize: 0x8C }
  - { offsetInCU: 0x322C9, offset: 0x322C9, size: 0x8, addend: 0x0, symName: __ZNSt3__128__exception_guard_exceptionsINS_29_AllocatorDestroyRangeReverseINS_9allocatorINS_12basic_stringIcNS_11char_traitsIcEENS2_IcEEEEEENS_16reverse_iteratorIPS7_EEEEED1B7v160006Ev, symObjAddr: 0x185FC, symBinAddr: 0x100019CAC, symSize: 0x2C }
  - { offsetInCU: 0x322F3, offset: 0x322F3, size: 0x8, addend: 0x0, symName: __ZNSt3__128__exception_guard_exceptionsINS_29_AllocatorDestroyRangeReverseINS_9allocatorINS_12basic_stringIcNS_11char_traitsIcEENS2_IcEEEEEENS_16reverse_iteratorIPS7_EEEEEC1B7v160006ESC_, symObjAddr: 0x18628, symBinAddr: 0x100019CD8, symSize: 0x34 }
  - { offsetInCU: 0x3232C, offset: 0x3232C, size: 0x8, addend: 0x0, symName: __ZNSt3__128__exception_guard_exceptionsINS_29_AllocatorDestroyRangeReverseINS_9allocatorINS_12basic_stringIcNS_11char_traitsIcEENS2_IcEEEEEENS_16reverse_iteratorIPS7_EEEEEC2B7v160006ESC_, symObjAddr: 0x1865C, symBinAddr: 0x100019D0C, symSize: 0xA4 }
  - { offsetInCU: 0x32365, offset: 0x32365, size: 0x8, addend: 0x0, symName: __ZNSt3__129_AllocatorDestroyRangeReverseINS_9allocatorINS_12basic_stringIcNS_11char_traitsIcEENS1_IcEEEEEENS_16reverse_iteratorIPS6_EEEC2B7v160006ERS7_RSA_SD_, symObjAddr: 0x18700, symBinAddr: 0x100019DB0, symSize: 0x104 }
  - { offsetInCU: 0x323BC, offset: 0x323BC, size: 0x8, addend: 0x0, symName: __ZNSt3__19allocatorINS_12basic_stringIcNS_11char_traitsIcEENS0_IcEEEEE9constructB7v160006IS5_JS5_EEEvPT_DpOT0_, symObjAddr: 0x18804, symBinAddr: 0x100019EB4, symSize: 0x30 }
  - { offsetInCU: 0x32412, offset: 0x32412, size: 0x8, addend: 0x0, symName: __ZNSt3__112basic_stringIcNS_11char_traitsIcEENS_9allocatorIcEEEC1B7v160006EOS5_, symObjAddr: 0x18834, symBinAddr: 0x100019EE4, symSize: 0x34 }
  - { offsetInCU: 0x3244B, offset: 0x3244B, size: 0x8, addend: 0x0, symName: __ZNSt3__112basic_stringIcNS_11char_traitsIcEENS_9allocatorIcEEEC2B7v160006EOS5_, symObjAddr: 0x18868, symBinAddr: 0x100019F18, symSize: 0x80 }
  - { offsetInCU: 0x3248A, offset: 0x3248A, size: 0x8, addend: 0x0, symName: __ZNSt3__119__to_address_helperINS_16reverse_iteratorIPNS_12basic_stringIcNS_11char_traitsIcEENS_9allocatorIcEEEEEEvE6__callB7v160006ERKS9_, symObjAddr: 0x188FC, symBinAddr: 0x100019FAC, symSize: 0x44 }
  - { offsetInCU: 0x324AD, offset: 0x324AD, size: 0x8, addend: 0x0, symName: __ZNKSt3__116reverse_iteratorIPNS_12basic_stringIcNS_11char_traitsIcEENS_9allocatorIcEEEEEptB7v160006Ev, symObjAddr: 0x18940, symBinAddr: 0x100019FF0, symSize: 0x24 }
  - { offsetInCU: 0x324D3, offset: 0x324D3, size: 0x8, addend: 0x0, symName: __ZNSt3__128__exception_guard_exceptionsINS_29_AllocatorDestroyRangeReverseINS_9allocatorINS_12basic_stringIcNS_11char_traitsIcEENS2_IcEEEEEENS_16reverse_iteratorIPS7_EEEEED2B7v160006Ev, symObjAddr: 0x18964, symBinAddr: 0x10001A014, symSize: 0xBC }
  - { offsetInCU: 0x324FD, offset: 0x324FD, size: 0x8, addend: 0x0, symName: __ZNKSt3__129_AllocatorDestroyRangeReverseINS_9allocatorINS_12basic_stringIcNS_11char_traitsIcEENS1_IcEEEEEENS_16reverse_iteratorIPS6_EEEclB7v160006Ev, symObjAddr: 0x18A20, symBinAddr: 0x10001A0D0, symSize: 0x3A8 }
  - { offsetInCU: 0x32524, offset: 0x32524, size: 0x8, addend: 0x0, symName: __ZNSt3__116reverse_iteratorINS0_IPNS_12basic_stringIcNS_11char_traitsIcEENS_9allocatorIcEEEEEEEC1B7v160006ES8_, symObjAddr: 0x18E38, symBinAddr: 0x10001A4E8, symSize: 0x248 }
  - { offsetInCU: 0x32561, offset: 0x32561, size: 0x8, addend: 0x0, symName: __ZNSt3__116reverse_iteratorINS0_IPNS_12basic_stringIcNS_11char_traitsIcEENS_9allocatorIcEEEEEEEppB7v160006Ev, symObjAddr: 0x19370, symBinAddr: 0x10001AA20, symSize: 0x30 }
  - { offsetInCU: 0x32587, offset: 0x32587, size: 0x8, addend: 0x0, symName: __ZNKSt3__116reverse_iteratorINS0_IPNS_12basic_stringIcNS_11char_traitsIcEENS_9allocatorIcEEEEEEE4baseB7v160006Ev, symObjAddr: 0x193A0, symBinAddr: 0x10001AA50, symSize: 0x20C }
  - { offsetInCU: 0x325B4, offset: 0x325B4, size: 0x8, addend: 0x0, symName: __ZNSt3__119__to_address_helperINS_16reverse_iteratorINS1_IPNS_12basic_stringIcNS_11char_traitsIcEENS_9allocatorIcEEEEEEEEvE6__callB7v160006ERKSA_, symObjAddr: 0x195AC, symBinAddr: 0x10001AC5C, symSize: 0x44 }
  - { offsetInCU: 0x325D7, offset: 0x325D7, size: 0x8, addend: 0x0, symName: __ZNKSt3__116reverse_iteratorINS0_IPNS_12basic_stringIcNS_11char_traitsIcEENS_9allocatorIcEEEEEEEptB7v160006Ev, symObjAddr: 0x195F0, symBinAddr: 0x10001ACA0, symSize: 0x24 }
  - { offsetInCU: 0x325FD, offset: 0x325FD, size: 0x8, addend: 0x0, symName: __ZNKSt3__116reverse_iteratorINS0_IPNS_12basic_stringIcNS_11char_traitsIcEENS_9allocatorIcEEEEEEEdeB7v160006Ev, symObjAddr: 0x19614, symBinAddr: 0x10001ACC4, symSize: 0x1EC }
  - { offsetInCU: 0x32637, offset: 0x32637, size: 0x8, addend: 0x0, symName: __ZNSt3__116reverse_iteratorIPNS_12basic_stringIcNS_11char_traitsIcEENS_9allocatorIcEEEEEmmB7v160006Ev, symObjAddr: 0x19800, symBinAddr: 0x10001AEB0, symSize: 0x6C }
  - { offsetInCU: 0x3265D, offset: 0x3265D, size: 0x8, addend: 0x0, symName: __ZNSt3__116reverse_iteratorINS0_IPNS_12basic_stringIcNS_11char_traitsIcEENS_9allocatorIcEEEEEEEC2B7v160006ES8_, symObjAddr: 0x1986C, symBinAddr: 0x10001AF1C, symSize: 0x22C }
  - { offsetInCU: 0x3269A, offset: 0x3269A, size: 0x8, addend: 0x0, symName: __ZNSt3__116reverse_iteratorIPNS_12basic_stringIcNS_11char_traitsIcEENS_9allocatorIcEEEEEC2B7v160006ES7_, symObjAddr: 0x19A98, symBinAddr: 0x10001B148, symSize: 0xB8 }
  - { offsetInCU: 0x326D2, offset: 0x326D2, size: 0x8, addend: 0x0, symName: __ZNSt3__114__split_bufferINS_12basic_stringIcNS_11char_traitsIcEENS_9allocatorIcEEEERNS4_IS6_EEED2Ev, symObjAddr: 0x19B50, symBinAddr: 0x10001B200, symSize: 0x104 }
  - { offsetInCU: 0x326FE, offset: 0x326FE, size: 0x8, addend: 0x0, symName: __ZNSt3__114__split_bufferINS_12basic_stringIcNS_11char_traitsIcEENS_9allocatorIcEEEERNS4_IS6_EEE5clearB7v160006Ev, symObjAddr: 0x19C54, symBinAddr: 0x10001B304, symSize: 0x68 }
  - { offsetInCU: 0x32724, offset: 0x32724, size: 0x8, addend: 0x0, symName: __ZNKSt3__114__split_bufferINS_12basic_stringIcNS_11char_traitsIcEENS_9allocatorIcEEEERNS4_IS6_EEE8capacityB7v160006Ev, symObjAddr: 0x19CBC, symBinAddr: 0x10001B36C, symSize: 0xBC }
  - { offsetInCU: 0x3274A, offset: 0x3274A, size: 0x8, addend: 0x0, symName: __ZNSt3__114__split_bufferINS_12basic_stringIcNS_11char_traitsIcEENS_9allocatorIcEEEERNS4_IS6_EEE17__destruct_at_endB7v160006EPS6_, symObjAddr: 0x19D78, symBinAddr: 0x10001B428, symSize: 0x2C }
  - { offsetInCU: 0x3277E, offset: 0x3277E, size: 0x8, addend: 0x0, symName: __ZNSt3__114__split_bufferINS_12basic_stringIcNS_11char_traitsIcEENS_9allocatorIcEEEERNS4_IS6_EEE17__destruct_at_endB7v160006EPS6_NS_17integral_constantIbLb0EEE, symObjAddr: 0x19DA4, symBinAddr: 0x10001B454, symSize: 0x10C }
  - { offsetInCU: 0x327BE, offset: 0x327BE, size: 0x8, addend: 0x0, symName: __ZNKSt3__114__split_bufferINS_12basic_stringIcNS_11char_traitsIcEENS_9allocatorIcEEEERNS4_IS6_EEE9__end_capB7v160006Ev, symObjAddr: 0x19EB0, symBinAddr: 0x10001B560, symSize: 0x28 }
  - { offsetInCU: 0x327E4, offset: 0x327E4, size: 0x8, addend: 0x0, symName: __ZNKSt3__117__compressed_pairIPNS_12basic_stringIcNS_11char_traitsIcEENS_9allocatorIcEEEERNS4_IS6_EEE5firstB7v160006Ev, symObjAddr: 0x19ED8, symBinAddr: 0x10001B588, symSize: 0x24 }
  - { offsetInCU: 0x3280A, offset: 0x3280A, size: 0x8, addend: 0x0, symName: __ZNSt3__112basic_stringIcNS_11char_traitsIcEENS_9allocatorIcEEEC2B7v160006IDnEEPKc, symObjAddr: 0x19EFC, symBinAddr: 0x10001B5AC, symSize: 0x218 }
  - { offsetInCU: 0x3284A, offset: 0x3284A, size: 0x8, addend: 0x0, symName: __ZNSt3__16vectorINS_12basic_stringIcNS_11char_traitsIcEENS_9allocatorIcEEEENS4_IS6_EEE22__construct_one_at_endB7v160006IJS6_EEEvDpOT_, symObjAddr: 0x1A114, symBinAddr: 0x10001B7C4, symSize: 0x36C }
  - { offsetInCU: 0x3289F, offset: 0x3289F, size: 0x8, addend: 0x0, symName: __ZNSt3__16vectorINS_12basic_stringIcNS_11char_traitsIcEENS_9allocatorIcEEEENS4_IS6_EEE21__push_back_slow_pathIS6_EEvOT_, symObjAddr: 0x1A480, symBinAddr: 0x10001BB30, symSize: 0x3C0 }
  - { offsetInCU: 0x32904, offset: 0x32904, size: 0x8, addend: 0x0, symName: __ZNKSt3__16vectorINS_12basic_stringIcNS_11char_traitsIcEENS_9allocatorIcEEEENS4_IS6_EEE11__make_iterB7v160006EPKS6_, symObjAddr: 0x1A840, symBinAddr: 0x10001BEF0, symSize: 0x200 }
  - { offsetInCU: 0x3293B, offset: 0x3293B, size: 0x8, addend: 0x0, symName: __ZNSt3__111__wrap_iterIPKNS_12basic_stringIcNS_11char_traitsIcEENS_9allocatorIcEEEEEC1B7v160006EPKvS8_, symObjAddr: 0x1AA40, symBinAddr: 0x10001C0F0, symSize: 0x3C }
  - { offsetInCU: 0x32981, offset: 0x32981, size: 0x8, addend: 0x0, symName: __ZNSt3__111__wrap_iterIPKNS_12basic_stringIcNS_11char_traitsIcEENS_9allocatorIcEEEEEC2B7v160006EPKvS8_, symObjAddr: 0x1AA7C, symBinAddr: 0x10001C12C, symSize: 0x74 }
  - { offsetInCU: 0x329C7, offset: 0x329C7, size: 0x8, addend: 0x0, symName: __ZNSt3__16vectorINS_12basic_stringIcNS_11char_traitsIcEENS_9allocatorIcEEEENS4_IS6_EEEC2ERKS8_, symObjAddr: 0x1AAF0, symBinAddr: 0x10001C1A0, symSize: 0x538 }
  - { offsetInCU: 0x32A2D, offset: 0x32A2D, size: 0x8, addend: 0x0, symName: __ZNSt3__116allocator_traitsINS_9allocatorINS_12basic_stringIcNS_11char_traitsIcEENS1_IcEEEEEEE37select_on_container_copy_constructionB7v160006IS7_vvEES7_RKS7_, symObjAddr: 0x1B028, symBinAddr: 0x10001C6D8, symSize: 0x10 }
  - { offsetInCU: 0x32A62, offset: 0x32A62, size: 0x8, addend: 0x0, symName: __ZNSt3__117__compressed_pairIPNS_12basic_stringIcNS_11char_traitsIcEENS_9allocatorIcEEEENS4_IS6_EEEC1B7v160006IDnS8_EEOT_OT0_, symObjAddr: 0x1B038, symBinAddr: 0x10001C6E8, symSize: 0x3C }
  - { offsetInCU: 0x32ABA, offset: 0x32ABA, size: 0x8, addend: 0x0, symName: __ZNSt3__16vectorINS_12basic_stringIcNS_11char_traitsIcEENS_9allocatorIcEEEENS4_IS6_EEE11__vallocateB7v160006Em, symObjAddr: 0x1B2EC, symBinAddr: 0x10001C99C, symSize: 0x428 }
  - { offsetInCU: 0x32B04, offset: 0x32B04, size: 0x8, addend: 0x0, symName: __ZNSt3__16vectorINS_12basic_stringIcNS_11char_traitsIcEENS_9allocatorIcEEEENS4_IS6_EEE18__construct_at_endIPS6_Li0EEEvT_SB_m, symObjAddr: 0x1B714, symBinAddr: 0x10001CDC4, symSize: 0x380 }
  - { offsetInCU: 0x32B7F, offset: 0x32B7F, size: 0x8, addend: 0x0, symName: __ZNSt3__128__exception_guard_exceptionsINS_6vectorINS_12basic_stringIcNS_11char_traitsIcEENS_9allocatorIcEEEENS5_IS7_EEE16__destroy_vectorEE10__completeB7v160006Ev, symObjAddr: 0x1BA94, symBinAddr: 0x10001D144, symSize: 0x8C }
  - { offsetInCU: 0x32BA5, offset: 0x32BA5, size: 0x8, addend: 0x0, symName: __ZNSt3__128__exception_guard_exceptionsINS_6vectorINS_12basic_stringIcNS_11char_traitsIcEENS_9allocatorIcEEEENS5_IS7_EEE16__destroy_vectorEED1B7v160006Ev, symObjAddr: 0x1BB20, symBinAddr: 0x10001D1D0, symSize: 0x2C }
  - { offsetInCU: 0x32BCF, offset: 0x32BCF, size: 0x8, addend: 0x0, symName: __ZNSt3__117__compressed_pairIPNS_12basic_stringIcNS_11char_traitsIcEENS_9allocatorIcEEEENS4_IS6_EEEC2B7v160006IDnS8_EEOT_OT0_, symObjAddr: 0x1BB4C, symBinAddr: 0x10001D1FC, symSize: 0x44 }
  - { offsetInCU: 0x32C27, offset: 0x32C27, size: 0x8, addend: 0x0, symName: __ZNSt3__122__compressed_pair_elemINS_9allocatorINS_12basic_stringIcNS_11char_traitsIcEENS1_IcEEEEEELi1ELb1EEC2B7v160006IS7_vEEOT_, symObjAddr: 0x1BB90, symBinAddr: 0x10001D240, symSize: 0x18 }
  - { offsetInCU: 0x32C69, offset: 0x32C69, size: 0x8, addend: 0x0, symName: __ZNSt3__128__exception_guard_exceptionsINS_6vectorINS_12basic_stringIcNS_11char_traitsIcEENS_9allocatorIcEEEENS5_IS7_EEE16__destroy_vectorEEC1B7v160006ESA_, symObjAddr: 0x1BBA8, symBinAddr: 0x10001D258, symSize: 0x238 }
  - { offsetInCU: 0x32CA6, offset: 0x32CA6, size: 0x8, addend: 0x0, symName: __ZNSt3__128__exception_guard_exceptionsINS_6vectorINS_12basic_stringIcNS_11char_traitsIcEENS_9allocatorIcEEEENS5_IS7_EEE16__destroy_vectorEEC2B7v160006ESA_, symObjAddr: 0x1BDE0, symBinAddr: 0x10001D490, symSize: 0x264 }
  - { offsetInCU: 0x32CE3, offset: 0x32CE3, size: 0x8, addend: 0x0, symName: __ZNSt3__129_AllocatorDestroyRangeReverseINS_9allocatorINS_12basic_stringIcNS_11char_traitsIcEENS1_IcEEEEEEPS6_EC1B7v160006ERS7_RS8_SB_, symObjAddr: 0x1C75C, symBinAddr: 0x10001DE0C, symSize: 0x44 }
  - { offsetInCU: 0x32D3A, offset: 0x32D3A, size: 0x8, addend: 0x0, symName: __ZNSt3__116allocator_traitsINS_9allocatorINS_12basic_stringIcNS_11char_traitsIcEENS1_IcEEEEEEE9constructB7v160006IS6_JRS6_EvEEvRS7_PT_DpOT0_, symObjAddr: 0x1C7A0, symBinAddr: 0x10001DE50, symSize: 0x34 }
  - { offsetInCU: 0x32D91, offset: 0x32D91, size: 0x8, addend: 0x0, symName: __ZNSt3__128__exception_guard_exceptionsINS_29_AllocatorDestroyRangeReverseINS_9allocatorINS_12basic_stringIcNS_11char_traitsIcEENS2_IcEEEEEEPS7_EEE10__completeB7v160006Ev, symObjAddr: 0x1C7D4, symBinAddr: 0x10001DE84, symSize: 0x8C }
  - { offsetInCU: 0x32DB7, offset: 0x32DB7, size: 0x8, addend: 0x0, symName: __ZNSt3__128__exception_guard_exceptionsINS_29_AllocatorDestroyRangeReverseINS_9allocatorINS_12basic_stringIcNS_11char_traitsIcEENS2_IcEEEEEEPS7_EEED1B7v160006Ev, symObjAddr: 0x1C860, symBinAddr: 0x10001DF10, symSize: 0x2C }
  - { offsetInCU: 0x32DE1, offset: 0x32DE1, size: 0x8, addend: 0x0, symName: __ZNSt3__128__exception_guard_exceptionsINS_29_AllocatorDestroyRangeReverseINS_9allocatorINS_12basic_stringIcNS_11char_traitsIcEENS2_IcEEEEEEPS7_EEEC1B7v160006ESA_, symObjAddr: 0x1C88C, symBinAddr: 0x10001DF3C, symSize: 0x34 }
  - { offsetInCU: 0x32E1A, offset: 0x32E1A, size: 0x8, addend: 0x0, symName: __ZNSt3__128__exception_guard_exceptionsINS_29_AllocatorDestroyRangeReverseINS_9allocatorINS_12basic_stringIcNS_11char_traitsIcEENS2_IcEEEEEEPS7_EEEC2B7v160006ESA_, symObjAddr: 0x1C8C0, symBinAddr: 0x10001DF70, symSize: 0xA4 }
  - { offsetInCU: 0x32E53, offset: 0x32E53, size: 0x8, addend: 0x0, symName: __ZNSt3__129_AllocatorDestroyRangeReverseINS_9allocatorINS_12basic_stringIcNS_11char_traitsIcEENS1_IcEEEEEEPS6_EC2B7v160006ERS7_RS8_SB_, symObjAddr: 0x1C964, symBinAddr: 0x10001E014, symSize: 0x104 }
  - { offsetInCU: 0x32EAA, offset: 0x32EAA, size: 0x8, addend: 0x0, symName: __ZNSt3__19allocatorINS_12basic_stringIcNS_11char_traitsIcEENS0_IcEEEEE9constructB7v160006IS5_JRS5_EEEvPT_DpOT0_, symObjAddr: 0x1CA68, symBinAddr: 0x10001E118, symSize: 0x30 }
  - { offsetInCU: 0x32F00, offset: 0x32F00, size: 0x8, addend: 0x0, symName: __ZNSt3__128__exception_guard_exceptionsINS_29_AllocatorDestroyRangeReverseINS_9allocatorINS_12basic_stringIcNS_11char_traitsIcEENS2_IcEEEEEEPS7_EEED2B7v160006Ev, symObjAddr: 0x1CA98, symBinAddr: 0x10001E148, symSize: 0xBC }
  - { offsetInCU: 0x32F2A, offset: 0x32F2A, size: 0x8, addend: 0x0, symName: __ZNKSt3__129_AllocatorDestroyRangeReverseINS_9allocatorINS_12basic_stringIcNS_11char_traitsIcEENS1_IcEEEEEEPS6_EclB7v160006Ev, symObjAddr: 0x1CB54, symBinAddr: 0x10001E204, symSize: 0x39C }
  - { offsetInCU: 0x32F51, offset: 0x32F51, size: 0x8, addend: 0x0, symName: __ZNSt3__128__exception_guard_exceptionsINS_6vectorINS_12basic_stringIcNS_11char_traitsIcEENS_9allocatorIcEEEENS5_IS7_EEE16__destroy_vectorEED2B7v160006Ev, symObjAddr: 0x1D1A8, symBinAddr: 0x10001E858, symSize: 0xBC }
  - { offsetInCU: 0x32F7B, offset: 0x32F7B, size: 0x8, addend: 0x0, symName: __ZNSt3__16vectorINS_6threadENS_9allocatorIS1_EEEC2B7v160006Ev, symObjAddr: 0x1D264, symBinAddr: 0x10001E914, symSize: 0x2F4 }
  - { offsetInCU: 0x32FA6, offset: 0x32FA6, size: 0x8, addend: 0x0, symName: __ZNSt3__117__compressed_pairIPNS_6threadENS_9allocatorIS1_EEEC1B7v160006IDnNS_18__default_init_tagEEEOT_OT0_, symObjAddr: 0x1D558, symBinAddr: 0x10001EC08, symSize: 0x3C }
  - { offsetInCU: 0x32FFE, offset: 0x32FFE, size: 0x8, addend: 0x0, symName: __ZNSt3__117__compressed_pairIPNS_6threadENS_9allocatorIS1_EEEC2B7v160006IDnNS_18__default_init_tagEEEOT_OT0_, symObjAddr: 0x1D5A4, symBinAddr: 0x10001EC54, symSize: 0x40 }
  - { offsetInCU: 0x33056, offset: 0x33056, size: 0x8, addend: 0x0, symName: __ZNSt3__122__compressed_pair_elemIPNS_6threadELi0ELb0EEC2B7v160006IDnvEEOT_, symObjAddr: 0x1D5E4, symBinAddr: 0x10001EC94, symSize: 0x64 }
  - { offsetInCU: 0x33098, offset: 0x33098, size: 0x8, addend: 0x0, symName: __ZNSt3__122__compressed_pair_elemINS_9allocatorINS_6threadEEELi1ELb1EEC2B7v160006ENS_18__default_init_tagE, symObjAddr: 0x1D648, symBinAddr: 0x10001ECF8, symSize: 0x2C }
  - { offsetInCU: 0x330CC, offset: 0x330CC, size: 0x8, addend: 0x0, symName: __ZNSt3__19allocatorINS_6threadEEC2B7v160006Ev, symObjAddr: 0x1D674, symBinAddr: 0x10001ED24, symSize: 0x2C }
  - { offsetInCU: 0x330F6, offset: 0x330F6, size: 0x8, addend: 0x0, symName: __ZNSt3__116__non_trivial_ifILb1ENS_9allocatorINS_6threadEEEEC2B7v160006Ev, symObjAddr: 0x1D6A0, symBinAddr: 0x10001ED50, symSize: 0x14 }
  - { offsetInCU: 0x33120, offset: 0x33120, size: 0x8, addend: 0x0, symName: __ZNSt3__16vectorINS_6threadENS_9allocatorIS1_EEED2B7v160006Ev, symObjAddr: 0x1D6B4, symBinAddr: 0x10001ED64, symSize: 0x1F8 }
  - { offsetInCU: 0x3314B, offset: 0x3314B, size: 0x8, addend: 0x0, symName: __ZNSt3__16vectorINS_6threadENS_9allocatorIS1_EEE16__destroy_vectorC1ERS4_, symObjAddr: 0x1D8AC, symBinAddr: 0x10001EF5C, symSize: 0x34 }
  - { offsetInCU: 0x33184, offset: 0x33184, size: 0x8, addend: 0x0, symName: __ZNSt3__16vectorINS_6threadENS_9allocatorIS1_EEE16__destroy_vectorclB7v160006Ev, symObjAddr: 0x1D8E0, symBinAddr: 0x10001EF90, symSize: 0x264 }
  - { offsetInCU: 0x331AA, offset: 0x331AA, size: 0x8, addend: 0x0, symName: __ZNSt3__16vectorINS_6threadENS_9allocatorIS1_EEE16__destroy_vectorC2ERS4_, symObjAddr: 0x1DB44, symBinAddr: 0x10001F1F4, symSize: 0x70 }
  - { offsetInCU: 0x331E3, offset: 0x331E3, size: 0x8, addend: 0x0, symName: __ZNKSt3__16vectorINS_6threadENS_9allocatorIS1_EEE17__annotate_deleteB7v160006Ev, symObjAddr: 0x1DBB4, symBinAddr: 0x10001F264, symSize: 0xCC }
  - { offsetInCU: 0x33209, offset: 0x33209, size: 0x8, addend: 0x0, symName: __ZNSt3__16vectorINS_6threadENS_9allocatorIS1_EEE7__clearB7v160006Ev, symObjAddr: 0x1DC90, symBinAddr: 0x10001F340, symSize: 0x64 }
  - { offsetInCU: 0x3322F, offset: 0x3322F, size: 0x8, addend: 0x0, symName: __ZNSt3__116allocator_traitsINS_9allocatorINS_6threadEEEE10deallocateB7v160006ERS3_PS2_m, symObjAddr: 0x1DCF4, symBinAddr: 0x10001F3A4, symSize: 0x34 }
  - { offsetInCU: 0x33271, offset: 0x33271, size: 0x8, addend: 0x0, symName: __ZNSt3__16vectorINS_6threadENS_9allocatorIS1_EEE7__allocB7v160006Ev, symObjAddr: 0x1DD28, symBinAddr: 0x10001F3D8, symSize: 0x28 }
  - { offsetInCU: 0x33297, offset: 0x33297, size: 0x8, addend: 0x0, symName: __ZNKSt3__16vectorINS_6threadENS_9allocatorIS1_EEE8capacityB7v160006Ev, symObjAddr: 0x1DD50, symBinAddr: 0x10001F400, symSize: 0xBC }
  - { offsetInCU: 0x332BD, offset: 0x332BD, size: 0x8, addend: 0x0, symName: __ZNKSt3__16vectorINS_6threadENS_9allocatorIS1_EEE31__annotate_contiguous_containerEPKvS6_S6_S6_, symObjAddr: 0x1DE0C, symBinAddr: 0x10001F4BC, symSize: 0x58 }
  - { offsetInCU: 0x3331F, offset: 0x3331F, size: 0x8, addend: 0x0, symName: __ZNKSt3__16vectorINS_6threadENS_9allocatorIS1_EEE4dataB7v160006Ev, symObjAddr: 0x1DE64, symBinAddr: 0x10001F514, symSize: 0x64 }
  - { offsetInCU: 0x33345, offset: 0x33345, size: 0x8, addend: 0x0, symName: __ZNKSt3__16vectorINS_6threadENS_9allocatorIS1_EEE4sizeB7v160006Ev, symObjAddr: 0x1DEC8, symBinAddr: 0x10001F578, symSize: 0xB0 }
  - { offsetInCU: 0x3336B, offset: 0x3336B, size: 0x8, addend: 0x0, symName: __ZNSt3__16vectorINS_6threadENS_9allocatorIS1_EEE22__base_destruct_at_endB7v160006EPS1_, symObjAddr: 0x1DF8C, symBinAddr: 0x10001F63C, symSize: 0x114 }
  - { offsetInCU: 0x333AF, offset: 0x333AF, size: 0x8, addend: 0x0, symName: __ZNSt3__116allocator_traitsINS_9allocatorINS_6threadEEEE7destroyB7v160006IS2_vEEvRS3_PT_, symObjAddr: 0x1E0A0, symBinAddr: 0x10001F750, symSize: 0x2C }
  - { offsetInCU: 0x333EC, offset: 0x333EC, size: 0x8, addend: 0x0, symName: __ZNSt3__19allocatorINS_6threadEE7destroyB7v160006EPS1_, symObjAddr: 0x1E0CC, symBinAddr: 0x10001F77C, symSize: 0x28 }
  - { offsetInCU: 0x33420, offset: 0x33420, size: 0x8, addend: 0x0, symName: __ZNSt3__19allocatorINS_6threadEE10deallocateB7v160006EPS1_m, symObjAddr: 0x1E0F4, symBinAddr: 0x10001F7A4, symSize: 0x4C }
  - { offsetInCU: 0x33462, offset: 0x33462, size: 0x8, addend: 0x0, symName: __ZNSt3__117__compressed_pairIPNS_6threadENS_9allocatorIS1_EEE6secondB7v160006Ev, symObjAddr: 0x1E140, symBinAddr: 0x10001F7F0, symSize: 0x24 }
  - { offsetInCU: 0x33488, offset: 0x33488, size: 0x8, addend: 0x0, symName: __ZNSt3__122__compressed_pair_elemINS_9allocatorINS_6threadEEELi1ELb1EE5__getB7v160006Ev, symObjAddr: 0x1E164, symBinAddr: 0x10001F814, symSize: 0x14 }
  - { offsetInCU: 0x334AE, offset: 0x334AE, size: 0x8, addend: 0x0, symName: __ZNKSt3__16vectorINS_6threadENS_9allocatorIS1_EEE9__end_capB7v160006Ev, symObjAddr: 0x1E178, symBinAddr: 0x10001F828, symSize: 0x28 }
  - { offsetInCU: 0x334D4, offset: 0x334D4, size: 0x8, addend: 0x0, symName: __ZNKSt3__117__compressed_pairIPNS_6threadENS_9allocatorIS1_EEE5firstB7v160006Ev, symObjAddr: 0x1E1A0, symBinAddr: 0x10001F850, symSize: 0x24 }
  - { offsetInCU: 0x334FA, offset: 0x334FA, size: 0x8, addend: 0x0, symName: __ZNKSt3__122__compressed_pair_elemIPNS_6threadELi0ELb0EE5__getB7v160006Ev, symObjAddr: 0x1E1C4, symBinAddr: 0x10001F874, symSize: 0x14 }
  - { offsetInCU: 0x33520, offset: 0x33520, size: 0x8, addend: 0x0, symName: __ZNSt3__16vectorINS_12basic_stringIcNS_11char_traitsIcEENS_9allocatorIcEEEENS4_IS6_EEE11__make_iterB7v160006EPS6_, symObjAddr: 0x1E1D8, symBinAddr: 0x10001F888, symSize: 0x200 }
  - { offsetInCU: 0x33557, offset: 0x33557, size: 0x8, addend: 0x0, symName: __ZNSt3__111__wrap_iterIPNS_12basic_stringIcNS_11char_traitsIcEENS_9allocatorIcEEEEEC1B7v160006EPKvS7_, symObjAddr: 0x1E3D8, symBinAddr: 0x10001FA88, symSize: 0x3C }
  - { offsetInCU: 0x3359D, offset: 0x3359D, size: 0x8, addend: 0x0, symName: __ZNSt3__111__wrap_iterIPNS_12basic_stringIcNS_11char_traitsIcEENS_9allocatorIcEEEEEC2B7v160006EPKvS7_, symObjAddr: 0x1E414, symBinAddr: 0x10001FAC4, symSize: 0x74 }
  - { offsetInCU: 0x335E3, offset: 0x335E3, size: 0x8, addend: 0x0, symName: __ZNSt3__19allocatorI15WordCountMapperINS_12basic_stringIcNS_11char_traitsIcEENS0_IcEEEES6_S6_iEEC1B7v160006Ev, symObjAddr: 0x1E788, symBinAddr: 0x10001FE38, symSize: 0x2C }
  - { offsetInCU: 0x33652, offset: 0x33652, size: 0x8, addend: 0x0, symName: __ZNSt3__118__allocation_guardINS_9allocatorINS_20__shared_ptr_emplaceI15WordCountMapperINS_12basic_stringIcNS_11char_traitsIcEENS1_IcEEEES8_S8_iENS1_IS9_EEEEEEEC1B7v160006ISA_EET_m, symObjAddr: 0x1E7B4, symBinAddr: 0x10001FE64, symSize: 0x34 }
  - { offsetInCU: 0x336A1, offset: 0x336A1, size: 0x8, addend: 0x0, symName: __ZNKSt3__118__allocation_guardINS_9allocatorINS_20__shared_ptr_emplaceI15WordCountMapperINS_12basic_stringIcNS_11char_traitsIcEENS1_IcEEEES8_S8_iENS1_IS9_EEEEEEE5__getB7v160006Ev, symObjAddr: 0x1E7E8, symBinAddr: 0x10001FE98, symSize: 0x64 }
  - { offsetInCU: 0x336C7, offset: 0x336C7, size: 0x8, addend: 0x0, symName: __ZNSt3__120__shared_ptr_emplaceI15WordCountMapperINS_12basic_stringIcNS_11char_traitsIcEENS_9allocatorIcEEEES7_S7_iENS5_IS8_EEEC1B7v160006IJRiEEES9_DpOT_, symObjAddr: 0x1E84C, symBinAddr: 0x10001FEFC, symSize: 0x34 }
  - { offsetInCU: 0x3371A, offset: 0x3371A, size: 0x8, addend: 0x0, symName: __ZNSt3__118__allocation_guardINS_9allocatorINS_20__shared_ptr_emplaceI15WordCountMapperINS_12basic_stringIcNS_11char_traitsIcEENS1_IcEEEES8_S8_iENS1_IS9_EEEEEEE13__release_ptrB7v160006Ev, symObjAddr: 0x1E880, symBinAddr: 0x10001FF30, symSize: 0xA8 }
  - { offsetInCU: 0x3374F, offset: 0x3374F, size: 0x8, addend: 0x0, symName: __ZNSt3__110shared_ptrI15WordCountMapperINS_12basic_stringIcNS_11char_traitsIcEENS_9allocatorIcEEEES7_S7_iEE27__create_with_control_blockB7v160006IS8_NS_20__shared_ptr_emplaceIS8_NS5_IS8_EEEEEES9_PT_PT0_, symObjAddr: 0x1E928, symBinAddr: 0x10001FFD8, symSize: 0x188 }
  - { offsetInCU: 0x337A4, offset: 0x337A4, size: 0x8, addend: 0x0, symName: __ZNSt3__120__shared_ptr_emplaceI15WordCountMapperINS_12basic_stringIcNS_11char_traitsIcEENS_9allocatorIcEEEES7_S7_iENS5_IS8_EEE10__get_elemB7v160006Ev, symObjAddr: 0x1EAB0, symBinAddr: 0x100020160, symSize: 0x28 }
  - { offsetInCU: 0x337CA, offset: 0x337CA, size: 0x8, addend: 0x0, symName: __ZNSt3__118__allocation_guardINS_9allocatorINS_20__shared_ptr_emplaceI15WordCountMapperINS_12basic_stringIcNS_11char_traitsIcEENS1_IcEEEES8_S8_iENS1_IS9_EEEEEEED1B7v160006Ev, symObjAddr: 0x1EAD8, symBinAddr: 0x100020188, symSize: 0x2C }
  - { offsetInCU: 0x337F4, offset: 0x337F4, size: 0x8, addend: 0x0, symName: __ZNSt3__118__allocation_guardINS_9allocatorINS_20__shared_ptr_emplaceI15WordCountMapperINS_12basic_stringIcNS_11char_traitsIcEENS1_IcEEEES8_S8_iENS1_IS9_EEEEEEEC2B7v160006ISA_EET_m, symObjAddr: 0x1EB04, symBinAddr: 0x1000201B4, symSize: 0x28C }
  - { offsetInCU: 0x33849, offset: 0x33849, size: 0x8, addend: 0x0, symName: __ZNSt3__19allocatorINS_20__shared_ptr_emplaceI15WordCountMapperINS_12basic_stringIcNS_11char_traitsIcEENS0_IcEEEES7_S7_iENS0_IS8_EEEEEC1B7v160006IS8_EERKNS0_IT_EE, symObjAddr: 0x1ED90, symBinAddr: 0x100020440, symSize: 0x34 }
  - { offsetInCU: 0x33886, offset: 0x33886, size: 0x8, addend: 0x0, symName: __ZNSt3__116allocator_traitsINS_9allocatorINS_20__shared_ptr_emplaceI15WordCountMapperINS_12basic_stringIcNS_11char_traitsIcEENS1_IcEEEES8_S8_iENS1_IS9_EEEEEEE8allocateB7v160006ERSC_m, symObjAddr: 0x1EDC4, symBinAddr: 0x100020474, symSize: 0x2C }
  - { offsetInCU: 0x338B9, offset: 0x338B9, size: 0x8, addend: 0x0, symName: __ZNSt3__19allocatorINS_20__shared_ptr_emplaceI15WordCountMapperINS_12basic_stringIcNS_11char_traitsIcEENS0_IcEEEES7_S7_iENS0_IS8_EEEEEC2B7v160006IS8_EERKNS0_IT_EE, symObjAddr: 0x1EDF0, symBinAddr: 0x1000204A0, symSize: 0x30 }
  - { offsetInCU: 0x338F6, offset: 0x338F6, size: 0x8, addend: 0x0, symName: __ZNSt3__116__non_trivial_ifILb1ENS_9allocatorINS_20__shared_ptr_emplaceI15WordCountMapperINS_12basic_stringIcNS_11char_traitsIcEENS1_IcEEEES8_S8_iENS1_IS9_EEEEEEEC2B7v160006Ev, symObjAddr: 0x1EE20, symBinAddr: 0x1000204D0, symSize: 0x14 }
  - { offsetInCU: 0x33920, offset: 0x33920, size: 0x8, addend: 0x0, symName: __ZNSt3__19allocatorINS_20__shared_ptr_emplaceI15WordCountMapperINS_12basic_stringIcNS_11char_traitsIcEENS0_IcEEEES7_S7_iENS0_IS8_EEEEE8allocateB7v160006Em, symObjAddr: 0x1EE34, symBinAddr: 0x1000204E4, symSize: 0x60 }
  - { offsetInCU: 0x3395F, offset: 0x3395F, size: 0x8, addend: 0x0, symName: __ZNSt3__116allocator_traitsINS_9allocatorINS_20__shared_ptr_emplaceI15WordCountMapperINS_12basic_stringIcNS_11char_traitsIcEENS1_IcEEEES8_S8_iENS1_IS9_EEEEEEE8max_sizeB7v160006ISC_vEEmRKSC_, symObjAddr: 0x1EE94, symBinAddr: 0x100020544, symSize: 0x24 }
  - { offsetInCU: 0x3398D, offset: 0x3398D, size: 0x8, addend: 0x0, symName: __ZNKSt3__19allocatorINS_20__shared_ptr_emplaceI15WordCountMapperINS_12basic_stringIcNS_11char_traitsIcEENS0_IcEEEES7_S7_iENS0_IS8_EEEEE8max_sizeB7v160006Ev, symObjAddr: 0x1EEB8, symBinAddr: 0x100020568, symSize: 0x20 }
  - { offsetInCU: 0x339B3, offset: 0x339B3, size: 0x8, addend: 0x0, symName: __ZNSt3__120__shared_ptr_emplaceI15WordCountMapperINS_12basic_stringIcNS_11char_traitsIcEENS_9allocatorIcEEEES7_S7_iENS5_IS8_EEEC2B7v160006IJRiEEES9_DpOT_, symObjAddr: 0x1EED8, symBinAddr: 0x100020588, symSize: 0x34C }
  - { offsetInCU: 0x33A0C, offset: 0x33A0C, size: 0x8, addend: 0x0, symName: __ZNSt3__119__shared_weak_countC2B7v160006El, symObjAddr: 0x1F224, symBinAddr: 0x1000208D4, symSize: 0xD0 }
  - { offsetInCU: 0x33A44, offset: 0x33A44, size: 0x8, addend: 0x0, symName: __ZNSt3__120__shared_ptr_emplaceI15WordCountMapperINS_12basic_stringIcNS_11char_traitsIcEENS_9allocatorIcEEEES7_S7_iENS5_IS8_EEE8_StorageC1B7v160006EOS9_, symObjAddr: 0x1F2F4, symBinAddr: 0x1000209A4, symSize: 0x34 }
  - { offsetInCU: 0x33A7D, offset: 0x33A7D, size: 0x8, addend: 0x0, symName: __ZN15WordCountMapperINSt3__112basic_stringIcNS0_11char_traitsIcEENS0_9allocatorIcEEEES6_S6_iEC1Ei, symObjAddr: 0x1F328, symBinAddr: 0x1000209D8, symSize: 0x34 }
  - { offsetInCU: 0x33AB5, offset: 0x33AB5, size: 0x8, addend: 0x0, symName: __ZNSt3__120__shared_ptr_emplaceI15WordCountMapperINS_12basic_stringIcNS_11char_traitsIcEENS_9allocatorIcEEEES7_S7_iENS5_IS8_EEE8_StorageD1B7v160006Ev, symObjAddr: 0x1F35C, symBinAddr: 0x100020A0C, symSize: 0x2C }
  - { offsetInCU: 0x33ADF, offset: 0x33ADF, size: 0x8, addend: 0x0, symName: __ZNSt3__120__shared_ptr_emplaceI15WordCountMapperINS_12basic_stringIcNS_11char_traitsIcEENS_9allocatorIcEEEES7_S7_iENS5_IS8_EEED1Ev, symObjAddr: 0x1F388, symBinAddr: 0x100020A38, symSize: 0x2C }
  - { offsetInCU: 0x33B0C, offset: 0x33B0C, size: 0x8, addend: 0x0, symName: __ZNSt3__120__shared_ptr_emplaceI15WordCountMapperINS_12basic_stringIcNS_11char_traitsIcEENS_9allocatorIcEEEES7_S7_iENS5_IS8_EEED0Ev, symObjAddr: 0x1F3B4, symBinAddr: 0x100020A64, symSize: 0x30 }
  - { offsetInCU: 0x33B39, offset: 0x33B39, size: 0x8, addend: 0x0, symName: __ZNSt3__120__shared_ptr_emplaceI15WordCountMapperINS_12basic_stringIcNS_11char_traitsIcEENS_9allocatorIcEEEES7_S7_iENS5_IS8_EEE16__on_zero_sharedEv, symObjAddr: 0x1F3E4, symBinAddr: 0x100020A94, symSize: 0x28 }
  - { offsetInCU: 0x33B5F, offset: 0x33B5F, size: 0x8, addend: 0x0, symName: __ZNSt3__120__shared_ptr_emplaceI15WordCountMapperINS_12basic_stringIcNS_11char_traitsIcEENS_9allocatorIcEEEES7_S7_iENS5_IS8_EEE21__on_zero_shared_weakEv, symObjAddr: 0x1F40C, symBinAddr: 0x100020ABC, symSize: 0x208 }
  - { offsetInCU: 0x33BA5, offset: 0x33BA5, size: 0x8, addend: 0x0, symName: __ZNSt3__114__shared_countC2B7v160006El, symObjAddr: 0x1F614, symBinAddr: 0x100020CC4, symSize: 0xC0 }
  - { offsetInCU: 0x33BDD, offset: 0x33BDD, size: 0x8, addend: 0x0, symName: __ZNSt3__120__shared_ptr_emplaceI15WordCountMapperINS_12basic_stringIcNS_11char_traitsIcEENS_9allocatorIcEEEES7_S7_iENS5_IS8_EEE8_StorageC2B7v160006EOS9_, symObjAddr: 0x1F6D4, symBinAddr: 0x100020D84, symSize: 0x30 }
  - { offsetInCU: 0x33C16, offset: 0x33C16, size: 0x8, addend: 0x0, symName: __ZNSt3__120__shared_ptr_emplaceI15WordCountMapperINS_12basic_stringIcNS_11char_traitsIcEENS_9allocatorIcEEEES7_S7_iENS5_IS8_EEE8_Storage11__get_allocEv, symObjAddr: 0x1F704, symBinAddr: 0x100020DB4, symSize: 0x3C }
  - { offsetInCU: 0x33C69, offset: 0x33C69, size: 0x8, addend: 0x0, symName: __ZNSt3__117__compressed_pairINS_9allocatorI15WordCountMapperINS_12basic_stringIcNS_11char_traitsIcEENS1_IcEEEES7_S7_iEEES8_E16__get_first_baseB7v160006EPSA_, symObjAddr: 0x1F740, symBinAddr: 0x100020DF0, symSize: 0x14 }
  - { offsetInCU: 0x33C8C, offset: 0x33C8C, size: 0x8, addend: 0x0, symName: __ZN15WordCountMapperINSt3__112basic_stringIcNS0_11char_traitsIcEENS0_9allocatorIcEEEES6_S6_iEC2Ei, symObjAddr: 0x1F754, symBinAddr: 0x100020E04, symSize: 0x8C }
  - { offsetInCU: 0x33CC4, offset: 0x33CC4, size: 0x8, addend: 0x0, symName: __ZN6MapperINSt3__112basic_stringIcNS0_11char_traitsIcEENS0_9allocatorIcEEEES6_S6_iEC2Ei, symObjAddr: 0x1F7E0, symBinAddr: 0x100020E90, symSize: 0x88 }
  - { offsetInCU: 0x33CFC, offset: 0x33CFC, size: 0x8, addend: 0x0, symName: __ZN15WordCountMapperINSt3__112basic_stringIcNS0_11char_traitsIcEENS0_9allocatorIcEEEES6_S6_iE3mapERKS6_S9_, symObjAddr: 0x1F868, symBinAddr: 0x100020F18, symSize: 0x538 }
  - { offsetInCU: 0x33DA2, offset: 0x33DA2, size: 0x8, addend: 0x0, symName: __ZN4PairINSt3__112basic_stringIcNS0_11char_traitsIcEENS0_9allocatorIcEEEEiEC1Ei, symObjAddr: 0x1FDA0, symBinAddr: 0x100021450, symSize: 0x34 }
  - { offsetInCU: 0x33DDA, offset: 0x33DDA, size: 0x8, addend: 0x0, symName: __ZN4PairINSt3__112basic_stringIcNS0_11char_traitsIcEENS0_9allocatorIcEEEEiEC2Ei, symObjAddr: 0x1FDD4, symBinAddr: 0x100021484, symSize: 0x154 }
  - { offsetInCU: 0x33E12, offset: 0x33E12, size: 0x8, addend: 0x0, symName: __ZNSt3__113unordered_mapINS_12basic_stringIcNS_11char_traitsIcEENS_9allocatorIcEEEENS_6vectorIiNS4_IiEEEENS_4hashIS6_EENS_8equal_toIS6_EENS4_INS_4pairIKS6_S9_EEEEEC1B7v160006Ev, symObjAddr: 0x1FF28, symBinAddr: 0x1000215D8, symSize: 0x2C }
  - { offsetInCU: 0x33E3C, offset: 0x33E3C, size: 0x8, addend: 0x0, symName: __ZNSt3__113unordered_mapINS_12basic_stringIcNS_11char_traitsIcEENS_9allocatorIcEEEENS_6vectorIiNS4_IiEEEENS_4hashIS6_EENS_8equal_toIS6_EENS4_INS_4pairIKS6_S9_EEEEED1B7v160006Ev, symObjAddr: 0x1FF54, symBinAddr: 0x100021604, symSize: 0x2C }
  - { offsetInCU: 0x33E66, offset: 0x33E66, size: 0x8, addend: 0x0, symName: __ZNSt3__113unordered_mapINS_12basic_stringIcNS_11char_traitsIcEENS_9allocatorIcEEEENS_6vectorIiNS4_IiEEEENS_4hashIS6_EENS_8equal_toIS6_EENS4_INS_4pairIKS6_S9_EEEEEC2B7v160006Ev, symObjAddr: 0x1FF80, symBinAddr: 0x100021630, symSize: 0x48 }
  - { offsetInCU: 0x33E90, offset: 0x33E90, size: 0x8, addend: 0x0, symName: __ZNSt3__112__hash_tableINS_17__hash_value_typeINS_12basic_stringIcNS_11char_traitsIcEENS_9allocatorIcEEEENS_6vectorIiNS5_IiEEEEEENS_22__unordered_map_hasherIS7_SB_NS_4hashIS7_EENS_8equal_toIS7_EELb1EEENS_21__unordered_map_equalIS7_SB_SG_SE_Lb1EEENS5_ISB_EEEC1Ev, symObjAddr: 0x1FFC8, symBinAddr: 0x100021678, symSize: 0x2C }
  - { offsetInCU: 0x33EBC, offset: 0x33EBC, size: 0x8, addend: 0x0, symName: __ZNSt3__112__hash_tableINS_17__hash_value_typeINS_12basic_stringIcNS_11char_traitsIcEENS_9allocatorIcEEEENS_6vectorIiNS5_IiEEEEEENS_22__unordered_map_hasherIS7_SB_NS_4hashIS7_EENS_8equal_toIS7_EELb1EEENS_21__unordered_map_equalIS7_SB_SG_SE_Lb1EEENS5_ISB_EEEC2Ev, symObjAddr: 0x20004, symBinAddr: 0x1000216B4, symSize: 0x38C }
  - { offsetInCU: 0x33EE9, offset: 0x33EE9, size: 0x8, addend: 0x0, symName: __ZNSt3__110unique_ptrIA_PNS_16__hash_node_baseIPNS_11__hash_nodeINS_17__hash_value_typeINS_12basic_stringIcNS_11char_traitsIcEENS_9allocatorIcEEEENS_6vectorIiNS7_IiEEEEEEPvEEEENS_25__bucket_list_deallocatorINS7_ISI_EEEEEC1B7v160006ILb1EvEEv, symObjAddr: 0x20390, symBinAddr: 0x100021A40, symSize: 0x2C }
  - { offsetInCU: 0x33F1E, offset: 0x33F1E, size: 0x8, addend: 0x0, symName: __ZNSt3__117__compressed_pairINS_16__hash_node_baseIPNS_11__hash_nodeINS_17__hash_value_typeINS_12basic_stringIcNS_11char_traitsIcEENS_9allocatorIcEEEENS_6vectorIiNS7_IiEEEEEEPvEEEENS7_ISF_EEEC1B7v160006ILb1EvEEv, symObjAddr: 0x203BC, symBinAddr: 0x100021A6C, symSize: 0x2C }
  - { offsetInCU: 0x33F53, offset: 0x33F53, size: 0x8, addend: 0x0, symName: __ZNSt3__117__compressed_pairImNS_22__unordered_map_hasherINS_12basic_stringIcNS_11char_traitsIcEENS_9allocatorIcEEEENS_17__hash_value_typeIS7_NS_6vectorIiNS5_IiEEEEEENS_4hashIS7_EENS_8equal_toIS7_EELb1EEEEC1B7v160006IiNS_18__default_init_tagEEEOT_OT0_, symObjAddr: 0x203E8, symBinAddr: 0x100021A98, symSize: 0x3C }
  - { offsetInCU: 0x33FAB, offset: 0x33FAB, size: 0x8, addend: 0x0, symName: __ZNSt3__117__compressed_pairIfNS_21__unordered_map_equalINS_12basic_stringIcNS_11char_traitsIcEENS_9allocatorIcEEEENS_17__hash_value_typeIS7_NS_6vectorIiNS5_IiEEEEEENS_8equal_toIS7_EENS_4hashIS7_EELb1EEEEC1B7v160006IfNS_18__default_init_tagEEEOT_OT0_, symObjAddr: 0x20424, symBinAddr: 0x100021AD4, symSize: 0x3C }
  - { offsetInCU: 0x34003, offset: 0x34003, size: 0x8, addend: 0x0, symName: __ZNSt3__110unique_ptrIA_PNS_16__hash_node_baseIPNS_11__hash_nodeINS_17__hash_value_typeINS_12basic_stringIcNS_11char_traitsIcEENS_9allocatorIcEEEENS_6vectorIiNS7_IiEEEEEEPvEEEENS_25__bucket_list_deallocatorINS7_ISI_EEEEEC2B7v160006ILb1EvEEv, symObjAddr: 0x20460, symBinAddr: 0x100021B10, symSize: 0x200 }
  - { offsetInCU: 0x34039, offset: 0x34039, size: 0x8, addend: 0x0, symName: __ZNSt3__117__compressed_pairIPPNS_16__hash_node_baseIPNS_11__hash_nodeINS_17__hash_value_typeINS_12basic_stringIcNS_11char_traitsIcEENS_9allocatorIcEEEENS_6vectorIiNS7_IiEEEEEEPvEEEENS_25__bucket_list_deallocatorINS7_ISI_EEEEEC1B7v160006INS_16__value_init_tagESP_EEOT_OT0_, symObjAddr: 0x20660, symBinAddr: 0x100021D10, symSize: 0x3C }
  - { offsetInCU: 0x34091, offset: 0x34091, size: 0x8, addend: 0x0, symName: __ZNSt3__117__compressed_pairIPPNS_16__hash_node_baseIPNS_11__hash_nodeINS_17__hash_value_typeINS_12basic_stringIcNS_11char_traitsIcEENS_9allocatorIcEEEENS_6vectorIiNS7_IiEEEEEEPvEEEENS_25__bucket_list_deallocatorINS7_ISI_EEEEEC2B7v160006INS_16__value_init_tagESP_EEOT_OT0_, symObjAddr: 0x2069C, symBinAddr: 0x100021D4C, symSize: 0x40 }
  - { offsetInCU: 0x340E9, offset: 0x340E9, size: 0x8, addend: 0x0, symName: __ZNSt3__122__compressed_pair_elemIPPNS_16__hash_node_baseIPNS_11__hash_nodeINS_17__hash_value_typeINS_12basic_stringIcNS_11char_traitsIcEENS_9allocatorIcEEEENS_6vectorIiNS7_IiEEEEEEPvEEEELi0ELb0EEC2B7v160006ENS_16__value_init_tagE, symObjAddr: 0x206DC, symBinAddr: 0x100021D8C, symSize: 0x60 }
  - { offsetInCU: 0x3411D, offset: 0x3411D, size: 0x8, addend: 0x0, symName: __ZNSt3__122__compressed_pair_elemINS_25__bucket_list_deallocatorINS_9allocatorIPNS_16__hash_node_baseIPNS_11__hash_nodeINS_17__hash_value_typeINS_12basic_stringIcNS_11char_traitsIcEENS2_IcEEEENS_6vectorIiNS2_IiEEEEEEPvEEEEEEEELi1ELb0EEC2B7v160006ENS_16__value_init_tagE, symObjAddr: 0x2073C, symBinAddr: 0x100021DEC, symSize: 0x2C }
  - { offsetInCU: 0x34151, offset: 0x34151, size: 0x8, addend: 0x0, symName: __ZNSt3__125__bucket_list_deallocatorINS_9allocatorIPNS_16__hash_node_baseIPNS_11__hash_nodeINS_17__hash_value_typeINS_12basic_stringIcNS_11char_traitsIcEENS1_IcEEEENS_6vectorIiNS1_IiEEEEEEPvEEEEEEEC1B7v160006Ev, symObjAddr: 0x20768, symBinAddr: 0x100021E18, symSize: 0x2C }
  - { offsetInCU: 0x3417B, offset: 0x3417B, size: 0x8, addend: 0x0, symName: __ZNSt3__125__bucket_list_deallocatorINS_9allocatorIPNS_16__hash_node_baseIPNS_11__hash_nodeINS_17__hash_value_typeINS_12basic_stringIcNS_11char_traitsIcEENS1_IcEEEENS_6vectorIiNS1_IiEEEEEEPvEEEEEEEC2B7v160006Ev, symObjAddr: 0x20794, symBinAddr: 0x100021E44, symSize: 0x270 }
  - { offsetInCU: 0x341A6, offset: 0x341A6, size: 0x8, addend: 0x0, symName: __ZNSt3__117__compressed_pairImNS_9allocatorIPNS_16__hash_node_baseIPNS_11__hash_nodeINS_17__hash_value_typeINS_12basic_stringIcNS_11char_traitsIcEENS1_IcEEEENS_6vectorIiNS1_IiEEEEEEPvEEEEEEEC1B7v160006IiNS_18__default_init_tagEEEOT_OT0_, symObjAddr: 0x20A04, symBinAddr: 0x1000220B4, symSize: 0x3C }
  - { offsetInCU: 0x341FE, offset: 0x341FE, size: 0x8, addend: 0x0, symName: __ZNSt3__117__compressed_pairImNS_9allocatorIPNS_16__hash_node_baseIPNS_11__hash_nodeINS_17__hash_value_typeINS_12basic_stringIcNS_11char_traitsIcEENS1_IcEEEENS_6vectorIiNS1_IiEEEEEEPvEEEEEEEC2B7v160006IiNS_18__default_init_tagEEEOT_OT0_, symObjAddr: 0x20A40, symBinAddr: 0x1000220F0, symSize: 0x40 }
  - { offsetInCU: 0x34256, offset: 0x34256, size: 0x8, addend: 0x0, symName: __ZNSt3__122__compressed_pair_elemINS_9allocatorIPNS_16__hash_node_baseIPNS_11__hash_nodeINS_17__hash_value_typeINS_12basic_stringIcNS_11char_traitsIcEENS1_IcEEEENS_6vectorIiNS1_IiEEEEEEPvEEEEEELi1ELb1EEC2B7v160006ENS_18__default_init_tagE, symObjAddr: 0x20A80, symBinAddr: 0x100022130, symSize: 0x2C }
  - { offsetInCU: 0x3428A, offset: 0x3428A, size: 0x8, addend: 0x0, symName: __ZNSt3__19allocatorIPNS_16__hash_node_baseIPNS_11__hash_nodeINS_17__hash_value_typeINS_12basic_stringIcNS_11char_traitsIcEENS0_IcEEEENS_6vectorIiNS0_IiEEEEEEPvEEEEEC2B7v160006Ev, symObjAddr: 0x20AAC, symBinAddr: 0x10002215C, symSize: 0x2C }
  - { offsetInCU: 0x342B4, offset: 0x342B4, size: 0x8, addend: 0x0, symName: __ZNSt3__116__non_trivial_ifILb1ENS_9allocatorIPNS_16__hash_node_baseIPNS_11__hash_nodeINS_17__hash_value_typeINS_12basic_stringIcNS_11char_traitsIcEENS1_IcEEEENS_6vectorIiNS1_IiEEEEEEPvEEEEEEEC2B7v160006Ev, symObjAddr: 0x20AD8, symBinAddr: 0x100022188, symSize: 0x14 }
  - { offsetInCU: 0x342DE, offset: 0x342DE, size: 0x8, addend: 0x0, symName: __ZNSt3__117__compressed_pairINS_16__hash_node_baseIPNS_11__hash_nodeINS_17__hash_value_typeINS_12basic_stringIcNS_11char_traitsIcEENS_9allocatorIcEEEENS_6vectorIiNS7_IiEEEEEEPvEEEENS7_ISF_EEEC2B7v160006ILb1EvEEv, symObjAddr: 0x20AEC, symBinAddr: 0x10002219C, symSize: 0x34 }
  - { offsetInCU: 0x34313, offset: 0x34313, size: 0x8, addend: 0x0, symName: __ZNSt3__122__compressed_pair_elemINS_16__hash_node_baseIPNS_11__hash_nodeINS_17__hash_value_typeINS_12basic_stringIcNS_11char_traitsIcEENS_9allocatorIcEEEENS_6vectorIiNS7_IiEEEEEEPvEEEELi0ELb0EEC2B7v160006ENS_16__value_init_tagE, symObjAddr: 0x20B20, symBinAddr: 0x1000221D0, symSize: 0x2C }
  - { offsetInCU: 0x34347, offset: 0x34347, size: 0x8, addend: 0x0, symName: __ZNSt3__122__compressed_pair_elemINS_9allocatorINS_11__hash_nodeINS_17__hash_value_typeINS_12basic_stringIcNS_11char_traitsIcEENS1_IcEEEENS_6vectorIiNS1_IiEEEEEEPvEEEELi1ELb1EEC2B7v160006ENS_16__value_init_tagE, symObjAddr: 0x20B4C, symBinAddr: 0x1000221FC, symSize: 0x2C }
  - { offsetInCU: 0x3437B, offset: 0x3437B, size: 0x8, addend: 0x0, symName: __ZNSt3__116__hash_node_baseIPNS_11__hash_nodeINS_17__hash_value_typeINS_12basic_stringIcNS_11char_traitsIcEENS_9allocatorIcEEEENS_6vectorIiNS6_IiEEEEEEPvEEEC1B7v160006Ev, symObjAddr: 0x20B78, symBinAddr: 0x100022228, symSize: 0x2C }
  - { offsetInCU: 0x343A5, offset: 0x343A5, size: 0x8, addend: 0x0, symName: __ZNSt3__116__hash_node_baseIPNS_11__hash_nodeINS_17__hash_value_typeINS_12basic_stringIcNS_11char_traitsIcEENS_9allocatorIcEEEENS_6vectorIiNS6_IiEEEEEEPvEEEC2B7v160006Ev, symObjAddr: 0x20BA4, symBinAddr: 0x100022254, symSize: 0x60 }
  - { offsetInCU: 0x343CF, offset: 0x343CF, size: 0x8, addend: 0x0, symName: __ZNSt3__19allocatorINS_11__hash_nodeINS_17__hash_value_typeINS_12basic_stringIcNS_11char_traitsIcEENS0_IcEEEENS_6vectorIiNS0_IiEEEEEEPvEEEC2B7v160006Ev, symObjAddr: 0x20C04, symBinAddr: 0x1000222B4, symSize: 0x2C }
  - { offsetInCU: 0x343F9, offset: 0x343F9, size: 0x8, addend: 0x0, symName: __ZNSt3__116__non_trivial_ifILb1ENS_9allocatorINS_11__hash_nodeINS_17__hash_value_typeINS_12basic_stringIcNS_11char_traitsIcEENS1_IcEEEENS_6vectorIiNS1_IiEEEEEEPvEEEEEC2B7v160006Ev, symObjAddr: 0x20C30, symBinAddr: 0x1000222E0, symSize: 0x14 }
  - { offsetInCU: 0x34423, offset: 0x34423, size: 0x8, addend: 0x0, symName: __ZNSt3__117__compressed_pairImNS_22__unordered_map_hasherINS_12basic_stringIcNS_11char_traitsIcEENS_9allocatorIcEEEENS_17__hash_value_typeIS7_NS_6vectorIiNS5_IiEEEEEENS_4hashIS7_EENS_8equal_toIS7_EELb1EEEEC2B7v160006IiNS_18__default_init_tagEEEOT_OT0_, symObjAddr: 0x20C44, symBinAddr: 0x1000222F4, symSize: 0x40 }
  - { offsetInCU: 0x3447B, offset: 0x3447B, size: 0x8, addend: 0x0, symName: __ZNSt3__122__compressed_pair_elemINS_22__unordered_map_hasherINS_12basic_stringIcNS_11char_traitsIcEENS_9allocatorIcEEEENS_17__hash_value_typeIS7_NS_6vectorIiNS5_IiEEEEEENS_4hashIS7_EENS_8equal_toIS7_EELb1EEELi1ELb1EEC2B7v160006ENS_18__default_init_tagE, symObjAddr: 0x20C84, symBinAddr: 0x100022334, symSize: 0x2C }
  - { offsetInCU: 0x344AF, offset: 0x344AF, size: 0x8, addend: 0x0, symName: __ZNSt3__122__unordered_map_hasherINS_12basic_stringIcNS_11char_traitsIcEENS_9allocatorIcEEEENS_17__hash_value_typeIS6_NS_6vectorIiNS4_IiEEEEEENS_4hashIS6_EENS_8equal_toIS6_EELb1EEC2B7v160006Ev, symObjAddr: 0x20CB0, symBinAddr: 0x100022360, symSize: 0x14 }
  - { offsetInCU: 0x344D9, offset: 0x344D9, size: 0x8, addend: 0x0, symName: __ZNSt3__117__compressed_pairIfNS_21__unordered_map_equalINS_12basic_stringIcNS_11char_traitsIcEENS_9allocatorIcEEEENS_17__hash_value_typeIS7_NS_6vectorIiNS5_IiEEEEEENS_8equal_toIS7_EENS_4hashIS7_EELb1EEEEC2B7v160006IfNS_18__default_init_tagEEEOT_OT0_, symObjAddr: 0x20CC4, symBinAddr: 0x100022374, symSize: 0x40 }
  - { offsetInCU: 0x34531, offset: 0x34531, size: 0x8, addend: 0x0, symName: __ZNSt3__122__compressed_pair_elemINS_21__unordered_map_equalINS_12basic_stringIcNS_11char_traitsIcEENS_9allocatorIcEEEENS_17__hash_value_typeIS7_NS_6vectorIiNS5_IiEEEEEENS_8equal_toIS7_EENS_4hashIS7_EELb1EEELi1ELb1EEC2B7v160006ENS_18__default_init_tagE, symObjAddr: 0x20D04, symBinAddr: 0x1000223B4, symSize: 0x2C }
  - { offsetInCU: 0x34565, offset: 0x34565, size: 0x8, addend: 0x0, symName: __ZNSt3__121__unordered_map_equalINS_12basic_stringIcNS_11char_traitsIcEENS_9allocatorIcEEEENS_17__hash_value_typeIS6_NS_6vectorIiNS4_IiEEEEEENS_8equal_toIS6_EENS_4hashIS6_EELb1EEC2B7v160006Ev, symObjAddr: 0x20D30, symBinAddr: 0x1000223E0, symSize: 0x14 }
  - { offsetInCU: 0x3458F, offset: 0x3458F, size: 0x8, addend: 0x0, symName: __ZNSt3__113unordered_mapINS_12basic_stringIcNS_11char_traitsIcEENS_9allocatorIcEEEENS_6vectorIiNS4_IiEEEENS_4hashIS6_EENS_8equal_toIS6_EENS4_INS_4pairIKS6_S9_EEEEED2B7v160006Ev, symObjAddr: 0x20D44, symBinAddr: 0x1000223F4, symSize: 0x2C }
  - { offsetInCU: 0x345B9, offset: 0x345B9, size: 0x8, addend: 0x0, symName: __ZNSt3__112__hash_tableINS_17__hash_value_typeINS_12basic_stringIcNS_11char_traitsIcEENS_9allocatorIcEEEENS_6vectorIiNS5_IiEEEEEENS_22__unordered_map_hasherIS7_SB_NS_4hashIS7_EENS_8equal_toIS7_EELb1EEENS_21__unordered_map_equalIS7_SB_SG_SE_Lb1EEENS5_ISB_EEED1Ev, symObjAddr: 0x20D70, symBinAddr: 0x100022420, symSize: 0x2C }
  - { offsetInCU: 0x345E5, offset: 0x345E5, size: 0x8, addend: 0x0, symName: __ZNSt3__112__hash_tableINS_17__hash_value_typeINS_12basic_stringIcNS_11char_traitsIcEENS_9allocatorIcEEEENS_6vectorIiNS5_IiEEEEEENS_22__unordered_map_hasherIS7_SB_NS_4hashIS7_EENS_8equal_toIS7_EELb1EEENS_21__unordered_map_equalIS7_SB_SG_SE_Lb1EEENS5_ISB_EEED2Ev, symObjAddr: 0x20D9C, symBinAddr: 0x10002244C, symSize: 0xA4 }
  - { offsetInCU: 0x34611, offset: 0x34611, size: 0x8, addend: 0x0, symName: __ZNSt3__112__hash_tableINS_17__hash_value_typeINS_12basic_stringIcNS_11char_traitsIcEENS_9allocatorIcEEEENS_6vectorIiNS5_IiEEEEEENS_22__unordered_map_hasherIS7_SB_NS_4hashIS7_EENS_8equal_toIS7_EELb1EEENS_21__unordered_map_equalIS7_SB_SG_SE_Lb1EEENS5_ISB_EEE17__deallocate_nodeEPNS_16__hash_node_baseIPNS_11__hash_nodeISB_PvEEEE, symObjAddr: 0x20E40, symBinAddr: 0x1000224F0, symSize: 0xF8 }
  - { offsetInCU: 0x3467B, offset: 0x3467B, size: 0x8, addend: 0x0, symName: __ZNSt3__117__compressed_pairINS_16__hash_node_baseIPNS_11__hash_nodeINS_17__hash_value_typeINS_12basic_stringIcNS_11char_traitsIcEENS_9allocatorIcEEEENS_6vectorIiNS7_IiEEEEEEPvEEEENS7_ISF_EEE5firstB7v160006Ev, symObjAddr: 0x20F38, symBinAddr: 0x1000225E8, symSize: 0x24 }
  - { offsetInCU: 0x346A1, offset: 0x346A1, size: 0x8, addend: 0x0, symName: __ZNSt3__110unique_ptrIA_PNS_16__hash_node_baseIPNS_11__hash_nodeINS_17__hash_value_typeINS_12basic_stringIcNS_11char_traitsIcEENS_9allocatorIcEEEENS_6vectorIiNS7_IiEEEEEEPvEEEENS_25__bucket_list_deallocatorINS7_ISI_EEEEED1B7v160006Ev, symObjAddr: 0x20F6C, symBinAddr: 0x10002261C, symSize: 0x2C }
  - { offsetInCU: 0x346CB, offset: 0x346CB, size: 0x8, addend: 0x0, symName: __ZNSt3__112__hash_tableINS_17__hash_value_typeINS_12basic_stringIcNS_11char_traitsIcEENS_9allocatorIcEEEENS_6vectorIiNS5_IiEEEEEENS_22__unordered_map_hasherIS7_SB_NS_4hashIS7_EENS_8equal_toIS7_EELb1EEENS_21__unordered_map_equalIS7_SB_SG_SE_Lb1EEENS5_ISB_EEE12__node_allocB7v160006Ev, symObjAddr: 0x20F98, symBinAddr: 0x100022648, symSize: 0x28 }
  - { offsetInCU: 0x346F1, offset: 0x346F1, size: 0x8, addend: 0x0, symName: __ZNSt3__116__hash_node_baseIPNS_11__hash_nodeINS_17__hash_value_typeINS_12basic_stringIcNS_11char_traitsIcEENS_9allocatorIcEEEENS_6vectorIiNS6_IiEEEEEEPvEEE8__upcastB7v160006Ev, symObjAddr: 0x20FC0, symBinAddr: 0x100022670, symSize: 0x24 }
  - { offsetInCU: 0x34717, offset: 0x34717, size: 0x8, addend: 0x0, symName: __ZNSt3__116allocator_traitsINS_9allocatorINS_11__hash_nodeINS_17__hash_value_typeINS_12basic_stringIcNS_11char_traitsIcEENS1_IcEEEENS_6vectorIiNS1_IiEEEEEEPvEEEEE7destroyB7v160006INS_4pairIKS8_SB_EEvvEEvRSF_PT_, symObjAddr: 0x20FE4, symBinAddr: 0x100022694, symSize: 0x28 }
  - { offsetInCU: 0x34752, offset: 0x34752, size: 0x8, addend: 0x0, symName: __ZNSt3__122__hash_key_value_typesINS_17__hash_value_typeINS_12basic_stringIcNS_11char_traitsIcEENS_9allocatorIcEEEENS_6vectorIiNS5_IiEEEEEEE9__get_ptrB7v160006ERSB_, symObjAddr: 0x2100C, symBinAddr: 0x1000226BC, symSize: 0x24 }
  - { offsetInCU: 0x34775, offset: 0x34775, size: 0x8, addend: 0x0, symName: __ZNSt3__116allocator_traitsINS_9allocatorINS_11__hash_nodeINS_17__hash_value_typeINS_12basic_stringIcNS_11char_traitsIcEENS1_IcEEEENS_6vectorIiNS1_IiEEEEEEPvEEEEE10deallocateB7v160006ERSF_PSE_m, symObjAddr: 0x21030, symBinAddr: 0x1000226E0, symSize: 0x34 }
  - { offsetInCU: 0x347B7, offset: 0x347B7, size: 0x8, addend: 0x0, symName: __ZNSt3__117__compressed_pairINS_16__hash_node_baseIPNS_11__hash_nodeINS_17__hash_value_typeINS_12basic_stringIcNS_11char_traitsIcEENS_9allocatorIcEEEENS_6vectorIiNS7_IiEEEEEEPvEEEENS7_ISF_EEE6secondB7v160006Ev, symObjAddr: 0x21064, symBinAddr: 0x100022714, symSize: 0x24 }
  - { offsetInCU: 0x347DD, offset: 0x347DD, size: 0x8, addend: 0x0, symName: __ZNSt3__122__compressed_pair_elemINS_9allocatorINS_11__hash_nodeINS_17__hash_value_typeINS_12basic_stringIcNS_11char_traitsIcEENS1_IcEEEENS_6vectorIiNS1_IiEEEEEEPvEEEELi1ELb1EE5__getB7v160006Ev, symObjAddr: 0x21088, symBinAddr: 0x100022738, symSize: 0x14 }
  - { offsetInCU: 0x34803, offset: 0x34803, size: 0x8, addend: 0x0, symName: __ZNSt3__114pointer_traitsIPNS_16__hash_node_baseIPNS_11__hash_nodeINS_17__hash_value_typeINS_12basic_stringIcNS_11char_traitsIcEENS_9allocatorIcEEEENS_6vectorIiNS7_IiEEEEEEPvEEEEE10pointer_toB7v160006ERSH_, symObjAddr: 0x2109C, symBinAddr: 0x10002274C, symSize: 0x14 }
  - { offsetInCU: 0x34826, offset: 0x34826, size: 0x8, addend: 0x0, symName: __ZNSt3__14pairIKNS_12basic_stringIcNS_11char_traitsIcEENS_9allocatorIcEEEENS_6vectorIiNS4_IiEEEEED1Ev, symObjAddr: 0x210B0, symBinAddr: 0x100022760, symSize: 0x2C }
  - { offsetInCU: 0x34852, offset: 0x34852, size: 0x8, addend: 0x0, symName: __ZNSt3__14pairIKNS_12basic_stringIcNS_11char_traitsIcEENS_9allocatorIcEEEENS_6vectorIiNS4_IiEEEEED2Ev, symObjAddr: 0x210DC, symBinAddr: 0x10002278C, symSize: 0x38 }
  - { offsetInCU: 0x3487E, offset: 0x3487E, size: 0x8, addend: 0x0, symName: __ZNSt3__16vectorIiNS_9allocatorIiEEED1B7v160006Ev, symObjAddr: 0x21114, symBinAddr: 0x1000227C4, symSize: 0x2C }
  - { offsetInCU: 0x348A8, offset: 0x348A8, size: 0x8, addend: 0x0, symName: __ZNSt3__16vectorIiNS_9allocatorIiEEED2B7v160006Ev, symObjAddr: 0x21140, symBinAddr: 0x1000227F0, symSize: 0x1F8 }
  - { offsetInCU: 0x348D3, offset: 0x348D3, size: 0x8, addend: 0x0, symName: __ZNSt3__16vectorIiNS_9allocatorIiEEE16__destroy_vectorC1ERS3_, symObjAddr: 0x21338, symBinAddr: 0x1000229E8, symSize: 0x34 }
  - { offsetInCU: 0x3490C, offset: 0x3490C, size: 0x8, addend: 0x0, symName: __ZNSt3__16vectorIiNS_9allocatorIiEEE16__destroy_vectorclB7v160006Ev, symObjAddr: 0x2136C, symBinAddr: 0x100022A1C, symSize: 0x264 }
  - { offsetInCU: 0x34932, offset: 0x34932, size: 0x8, addend: 0x0, symName: __ZNSt3__16vectorIiNS_9allocatorIiEEE16__destroy_vectorC2ERS3_, symObjAddr: 0x215D0, symBinAddr: 0x100022C80, symSize: 0x70 }
  - { offsetInCU: 0x3496B, offset: 0x3496B, size: 0x8, addend: 0x0, symName: __ZNKSt3__16vectorIiNS_9allocatorIiEEE17__annotate_deleteB7v160006Ev, symObjAddr: 0x21640, symBinAddr: 0x100022CF0, symSize: 0xCC }
  - { offsetInCU: 0x34991, offset: 0x34991, size: 0x8, addend: 0x0, symName: __ZNSt3__16vectorIiNS_9allocatorIiEEE7__clearB7v160006Ev, symObjAddr: 0x2171C, symBinAddr: 0x100022DCC, symSize: 0x64 }
  - { offsetInCU: 0x349B7, offset: 0x349B7, size: 0x8, addend: 0x0, symName: __ZNSt3__116allocator_traitsINS_9allocatorIiEEE10deallocateB7v160006ERS2_Pim, symObjAddr: 0x21780, symBinAddr: 0x100022E30, symSize: 0x34 }
  - { offsetInCU: 0x349F9, offset: 0x349F9, size: 0x8, addend: 0x0, symName: __ZNSt3__16vectorIiNS_9allocatorIiEEE7__allocB7v160006Ev, symObjAddr: 0x217B4, symBinAddr: 0x100022E64, symSize: 0x28 }
  - { offsetInCU: 0x34A1F, offset: 0x34A1F, size: 0x8, addend: 0x0, symName: __ZNKSt3__16vectorIiNS_9allocatorIiEEE8capacityB7v160006Ev, symObjAddr: 0x217DC, symBinAddr: 0x100022E8C, symSize: 0xBC }
  - { offsetInCU: 0x34A45, offset: 0x34A45, size: 0x8, addend: 0x0, symName: __ZNKSt3__16vectorIiNS_9allocatorIiEEE31__annotate_contiguous_containerEPKvS5_S5_S5_, symObjAddr: 0x21898, symBinAddr: 0x100022F48, symSize: 0x58 }
  - { offsetInCU: 0x34AA7, offset: 0x34AA7, size: 0x8, addend: 0x0, symName: __ZNKSt3__16vectorIiNS_9allocatorIiEEE4dataB7v160006Ev, symObjAddr: 0x218F0, symBinAddr: 0x100022FA0, symSize: 0x64 }
  - { offsetInCU: 0x34ACD, offset: 0x34ACD, size: 0x8, addend: 0x0, symName: __ZNKSt3__16vectorIiNS_9allocatorIiEEE4sizeB7v160006Ev, symObjAddr: 0x21954, symBinAddr: 0x100023004, symSize: 0xB0 }
  - { offsetInCU: 0x34AF3, offset: 0x34AF3, size: 0x8, addend: 0x0, symName: __ZNSt3__16vectorIiNS_9allocatorIiEEE22__base_destruct_at_endB7v160006EPi, symObjAddr: 0x21A18, symBinAddr: 0x1000230C8, symSize: 0x114 }
  - { offsetInCU: 0x34B37, offset: 0x34B37, size: 0x8, addend: 0x0, symName: __ZNSt3__116allocator_traitsINS_9allocatorIiEEE7destroyB7v160006IivEEvRS2_PT_, symObjAddr: 0x21B2C, symBinAddr: 0x1000231DC, symSize: 0x2C }
  - { offsetInCU: 0x34B74, offset: 0x34B74, size: 0x8, addend: 0x0, symName: __ZNSt3__19allocatorIiE7destroyB7v160006EPi, symObjAddr: 0x21B58, symBinAddr: 0x100023208, symSize: 0x14 }
  - { offsetInCU: 0x34BA8, offset: 0x34BA8, size: 0x8, addend: 0x0, symName: __ZNSt3__19allocatorIiE10deallocateB7v160006EPim, symObjAddr: 0x21B6C, symBinAddr: 0x10002321C, symSize: 0x4C }
  - { offsetInCU: 0x34BEA, offset: 0x34BEA, size: 0x8, addend: 0x0, symName: __ZNSt3__117__compressed_pairIPiNS_9allocatorIiEEE6secondB7v160006Ev, symObjAddr: 0x21BB8, symBinAddr: 0x100023268, symSize: 0x24 }
  - { offsetInCU: 0x34C10, offset: 0x34C10, size: 0x8, addend: 0x0, symName: __ZNSt3__122__compressed_pair_elemINS_9allocatorIiEELi1ELb1EE5__getB7v160006Ev, symObjAddr: 0x21BDC, symBinAddr: 0x10002328C, symSize: 0x14 }
  - { offsetInCU: 0x34C36, offset: 0x34C36, size: 0x8, addend: 0x0, symName: __ZNKSt3__16vectorIiNS_9allocatorIiEEE9__end_capB7v160006Ev, symObjAddr: 0x21BF0, symBinAddr: 0x1000232A0, symSize: 0x28 }
  - { offsetInCU: 0x34C5C, offset: 0x34C5C, size: 0x8, addend: 0x0, symName: __ZNKSt3__117__compressed_pairIPiNS_9allocatorIiEEE5firstB7v160006Ev, symObjAddr: 0x21C18, symBinAddr: 0x1000232C8, symSize: 0x24 }
  - { offsetInCU: 0x34C82, offset: 0x34C82, size: 0x8, addend: 0x0, symName: __ZNKSt3__122__compressed_pair_elemIPiLi0ELb0EE5__getB7v160006Ev, symObjAddr: 0x21C3C, symBinAddr: 0x1000232EC, symSize: 0x14 }
  - { offsetInCU: 0x34CA8, offset: 0x34CA8, size: 0x8, addend: 0x0, symName: __ZNSt3__117__hash_value_typeINS_12basic_stringIcNS_11char_traitsIcEENS_9allocatorIcEEEENS_6vectorIiNS4_IiEEEEE11__get_valueB7v160006Ev, symObjAddr: 0x21C50, symBinAddr: 0x100023300, symSize: 0x24 }
  - { offsetInCU: 0x34CCE, offset: 0x34CCE, size: 0x8, addend: 0x0, symName: __ZNSt3__19allocatorINS_11__hash_nodeINS_17__hash_value_typeINS_12basic_stringIcNS_11char_traitsIcEENS0_IcEEEENS_6vectorIiNS0_IiEEEEEEPvEEE10deallocateB7v160006EPSD_m, symObjAddr: 0x21CAC, symBinAddr: 0x10002335C, symSize: 0x4C }
  - { offsetInCU: 0x34D10, offset: 0x34D10, size: 0x8, addend: 0x0, symName: __ZNSt3__122__compressed_pair_elemINS_16__hash_node_baseIPNS_11__hash_nodeINS_17__hash_value_typeINS_12basic_stringIcNS_11char_traitsIcEENS_9allocatorIcEEEENS_6vectorIiNS7_IiEEEEEEPvEEEELi0ELb0EE5__getB7v160006Ev, symObjAddr: 0x21CF8, symBinAddr: 0x1000233A8, symSize: 0x14 }
  - { offsetInCU: 0x34D36, offset: 0x34D36, size: 0x8, addend: 0x0, symName: __ZNSt3__110unique_ptrIA_PNS_16__hash_node_baseIPNS_11__hash_nodeINS_17__hash_value_typeINS_12basic_stringIcNS_11char_traitsIcEENS_9allocatorIcEEEENS_6vectorIiNS7_IiEEEEEEPvEEEENS_25__bucket_list_deallocatorINS7_ISI_EEEEED2B7v160006Ev, symObjAddr: 0x21D0C, symBinAddr: 0x1000233BC, symSize: 0x30 }
  - { offsetInCU: 0x34D60, offset: 0x34D60, size: 0x8, addend: 0x0, symName: __ZNSt3__110unique_ptrIA_PNS_16__hash_node_baseIPNS_11__hash_nodeINS_17__hash_value_typeINS_12basic_stringIcNS_11char_traitsIcEENS_9allocatorIcEEEENS_6vectorIiNS7_IiEEEEEEPvEEEENS_25__bucket_list_deallocatorINS7_ISI_EEEEE5resetB7v160006EDn, symObjAddr: 0x21D3C, symBinAddr: 0x1000233EC, symSize: 0xE0 }
  - { offsetInCU: 0x34DA1, offset: 0x34DA1, size: 0x8, addend: 0x0, symName: __ZNSt3__117__compressed_pairIPPNS_16__hash_node_baseIPNS_11__hash_nodeINS_17__hash_value_typeINS_12basic_stringIcNS_11char_traitsIcEENS_9allocatorIcEEEENS_6vectorIiNS7_IiEEEEEEPvEEEENS_25__bucket_list_deallocatorINS7_ISI_EEEEE5firstB7v160006Ev, symObjAddr: 0x21E1C, symBinAddr: 0x1000234CC, symSize: 0x24 }
  - { offsetInCU: 0x34DC7, offset: 0x34DC7, size: 0x8, addend: 0x0, symName: __ZNSt3__117__compressed_pairIPPNS_16__hash_node_baseIPNS_11__hash_nodeINS_17__hash_value_typeINS_12basic_stringIcNS_11char_traitsIcEENS_9allocatorIcEEEENS_6vectorIiNS7_IiEEEEEEPvEEEENS_25__bucket_list_deallocatorINS7_ISI_EEEEE6secondB7v160006Ev, symObjAddr: 0x21E40, symBinAddr: 0x1000234F0, symSize: 0x28 }
  - { offsetInCU: 0x34DED, offset: 0x34DED, size: 0x8, addend: 0x0, symName: __ZNSt3__125__bucket_list_deallocatorINS_9allocatorIPNS_16__hash_node_baseIPNS_11__hash_nodeINS_17__hash_value_typeINS_12basic_stringIcNS_11char_traitsIcEENS1_IcEEEENS_6vectorIiNS1_IiEEEEEEPvEEEEEEEclB7v160006EPSI_, symObjAddr: 0x21E68, symBinAddr: 0x100023518, symSize: 0x98 }
  - { offsetInCU: 0x34E22, offset: 0x34E22, size: 0x8, addend: 0x0, symName: __ZNSt3__122__compressed_pair_elemIPPNS_16__hash_node_baseIPNS_11__hash_nodeINS_17__hash_value_typeINS_12basic_stringIcNS_11char_traitsIcEENS_9allocatorIcEEEENS_6vectorIiNS7_IiEEEEEEPvEEEELi0ELb0EE5__getB7v160006Ev, symObjAddr: 0x21F00, symBinAddr: 0x1000235B0, symSize: 0x14 }
  - { offsetInCU: 0x34E48, offset: 0x34E48, size: 0x8, addend: 0x0, symName: __ZNSt3__122__compressed_pair_elemINS_25__bucket_list_deallocatorINS_9allocatorIPNS_16__hash_node_baseIPNS_11__hash_nodeINS_17__hash_value_typeINS_12basic_stringIcNS_11char_traitsIcEENS2_IcEEEENS_6vectorIiNS2_IiEEEEEEPvEEEEEEEELi1ELb0EE5__getB7v160006Ev, symObjAddr: 0x21F14, symBinAddr: 0x1000235C4, symSize: 0x14 }
  - { offsetInCU: 0x34E6E, offset: 0x34E6E, size: 0x8, addend: 0x0, symName: __ZNSt3__116allocator_traitsINS_9allocatorIPNS_16__hash_node_baseIPNS_11__hash_nodeINS_17__hash_value_typeINS_12basic_stringIcNS_11char_traitsIcEENS1_IcEEEENS_6vectorIiNS1_IiEEEEEEPvEEEEEEE10deallocateB7v160006ERSJ_PSI_m, symObjAddr: 0x21F28, symBinAddr: 0x1000235D8, symSize: 0x34 }
  - { offsetInCU: 0x34EB0, offset: 0x34EB0, size: 0x8, addend: 0x0, symName: __ZNSt3__125__bucket_list_deallocatorINS_9allocatorIPNS_16__hash_node_baseIPNS_11__hash_nodeINS_17__hash_value_typeINS_12basic_stringIcNS_11char_traitsIcEENS1_IcEEEENS_6vectorIiNS1_IiEEEEEEPvEEEEEEE7__allocB7v160006Ev, symObjAddr: 0x21F5C, symBinAddr: 0x10002360C, symSize: 0x24 }
  - { offsetInCU: 0x34ED6, offset: 0x34ED6, size: 0x8, addend: 0x0, symName: __ZNSt3__125__bucket_list_deallocatorINS_9allocatorIPNS_16__hash_node_baseIPNS_11__hash_nodeINS_17__hash_value_typeINS_12basic_stringIcNS_11char_traitsIcEENS1_IcEEEENS_6vectorIiNS1_IiEEEEEEPvEEEEEEE4sizeB7v160006Ev, symObjAddr: 0x21F80, symBinAddr: 0x100023630, symSize: 0x24 }
  - { offsetInCU: 0x34EFC, offset: 0x34EFC, size: 0x8, addend: 0x0, symName: __ZNSt3__19allocatorIPNS_16__hash_node_baseIPNS_11__hash_nodeINS_17__hash_value_typeINS_12basic_stringIcNS_11char_traitsIcEENS0_IcEEEENS_6vectorIiNS0_IiEEEEEEPvEEEEE10deallocateB7v160006EPSH_m, symObjAddr: 0x21FA4, symBinAddr: 0x100023654, symSize: 0x4C }
  - { offsetInCU: 0x34F3E, offset: 0x34F3E, size: 0x8, addend: 0x0, symName: __ZNSt3__117__compressed_pairImNS_9allocatorIPNS_16__hash_node_baseIPNS_11__hash_nodeINS_17__hash_value_typeINS_12basic_stringIcNS_11char_traitsIcEENS1_IcEEEENS_6vectorIiNS1_IiEEEEEEPvEEEEEEE6secondB7v160006Ev, symObjAddr: 0x21FF0, symBinAddr: 0x1000236A0, symSize: 0x24 }
  - { offsetInCU: 0x34F64, offset: 0x34F64, size: 0x8, addend: 0x0, symName: __ZNSt3__122__compressed_pair_elemINS_9allocatorIPNS_16__hash_node_baseIPNS_11__hash_nodeINS_17__hash_value_typeINS_12basic_stringIcNS_11char_traitsIcEENS1_IcEEEENS_6vectorIiNS1_IiEEEEEEPvEEEEEELi1ELb1EE5__getB7v160006Ev, symObjAddr: 0x22014, symBinAddr: 0x1000236C4, symSize: 0x14 }
  - { offsetInCU: 0x34F8A, offset: 0x34F8A, size: 0x8, addend: 0x0, symName: __ZNSt3__117__compressed_pairImNS_9allocatorIPNS_16__hash_node_baseIPNS_11__hash_nodeINS_17__hash_value_typeINS_12basic_stringIcNS_11char_traitsIcEENS1_IcEEEENS_6vectorIiNS1_IiEEEEEEPvEEEEEEE5firstB7v160006Ev, symObjAddr: 0x22028, symBinAddr: 0x1000236D8, symSize: 0x24 }
  - { offsetInCU: 0x34FB0, offset: 0x34FB0, size: 0x8, addend: 0x0, symName: __ZN4PairINSt3__112basic_stringIcNS0_11char_traitsIcEENS0_9allocatorIcEEEEiE6setKeyES6_, symObjAddr: 0x2204C, symBinAddr: 0x1000236FC, symSize: 0x30 }
  - { offsetInCU: 0x34FE5, offset: 0x34FE5, size: 0x8, addend: 0x0, symName: __ZN4PairINSt3__112basic_stringIcNS0_11char_traitsIcEENS0_9allocatorIcEEEEiE8setValueEi, symObjAddr: 0x2207C, symBinAddr: 0x10002372C, symSize: 0x9C }
  - { offsetInCU: 0x35019, offset: 0x35019, size: 0x8, addend: 0x0, symName: __ZN4PairINSt3__112basic_stringIcNS0_11char_traitsIcEENS0_9allocatorIcEEEEiE5writeEv, symObjAddr: 0x22118, symBinAddr: 0x1000237C8, symSize: 0x6B0 }
  - { offsetInCU: 0x35053, offset: 0x35053, size: 0x8, addend: 0x0, symName: __ZN6MapperINSt3__112basic_stringIcNS0_11char_traitsIcEENS0_9allocatorIcEEEES6_S6_iE5flushEv, symObjAddr: 0x227C8, symBinAddr: 0x100023E78, symSize: 0x28 }
  - { offsetInCU: 0x35079, offset: 0x35079, size: 0x8, addend: 0x0, symName: __ZNSt3__113unordered_mapINS_12basic_stringIcNS_11char_traitsIcEENS_9allocatorIcEEEENS_6vectorIiNS4_IiEEEENS_4hashIS6_EENS_8equal_toIS6_EENS4_INS_4pairIKS6_S9_EEEEE4findB7v160006ERSF_, symObjAddr: 0x227F0, symBinAddr: 0x100023EA0, symSize: 0x2BC }
  - { offsetInCU: 0x350B0, offset: 0x350B0, size: 0x8, addend: 0x0, symName: __ZNSt3__113unordered_mapINS_12basic_stringIcNS_11char_traitsIcEENS_9allocatorIcEEEENS_6vectorIiNS4_IiEEEENS_4hashIS6_EENS_8equal_toIS6_EENS4_INS_4pairIKS6_S9_EEEEE3endB7v160006Ev, symObjAddr: 0x22ADC, symBinAddr: 0x10002418C, symSize: 0x2B4 }
  - { offsetInCU: 0x350D7, offset: 0x350D7, size: 0x8, addend: 0x0, symName: __ZNKSt3__119__hash_map_iteratorINS_15__hash_iteratorIPNS_11__hash_nodeINS_17__hash_value_typeINS_12basic_stringIcNS_11char_traitsIcEENS_9allocatorIcEEEENS_6vectorIiNS7_IiEEEEEEPvEEEEEptB7v160006Ev, symObjAddr: 0x22D90, symBinAddr: 0x100024440, symSize: 0x2C }
  - { offsetInCU: 0x350FD, offset: 0x350FD, size: 0x8, addend: 0x0, symName: __ZNSt3__16vectorIiNS_9allocatorIiEEE9push_backB7v160006ERKi, symObjAddr: 0x22DBC, symBinAddr: 0x10002446C, symSize: 0xE0 }
  - { offsetInCU: 0x35134, offset: 0x35134, size: 0x8, addend: 0x0, symName: __ZNSt3__16vectorIiNS_9allocatorIiEEEC1B7v160006ESt16initializer_listIiE, symObjAddr: 0x22E9C, symBinAddr: 0x10002454C, symSize: 0x248 }
  - { offsetInCU: 0x35174, offset: 0x35174, size: 0x8, addend: 0x0, symName: __ZNSt3__113unordered_mapINS_12basic_stringIcNS_11char_traitsIcEENS_9allocatorIcEEEENS_6vectorIiNS4_IiEEEENS_4hashIS6_EENS_8equal_toIS6_EENS4_INS_4pairIKS6_S9_EEEEEixERSF_, symObjAddr: 0x230E4, symBinAddr: 0x100024794, symSize: 0x314 }
  - { offsetInCU: 0x351AD, offset: 0x351AD, size: 0x8, addend: 0x0, symName: __ZNSt3__16vectorIiNS_9allocatorIiEEEaSB7v160006EOS3_, symObjAddr: 0x233F8, symBinAddr: 0x100024AA8, symSize: 0x34 }
  - { offsetInCU: 0x351E4, offset: 0x351E4, size: 0x8, addend: 0x0, symName: __ZNKSt3__113unordered_mapINS_12basic_stringIcNS_11char_traitsIcEENS_9allocatorIcEEEENS_6vectorIiNS4_IiEEEENS_4hashIS6_EENS_8equal_toIS6_EENS4_INS_4pairIKS6_S9_EEEEE4sizeB7v160006Ev, symObjAddr: 0x2342C, symBinAddr: 0x100024ADC, symSize: 0x24 }
  - { offsetInCU: 0x3520A, offset: 0x3520A, size: 0x8, addend: 0x0, symName: __ZN4PairINSt3__112basic_stringIcNS0_11char_traitsIcEENS0_9allocatorIcEEEEiE5flushEv, symObjAddr: 0x23450, symBinAddr: 0x100024B00, symSize: 0x808 }
  - { offsetInCU: 0x35339, offset: 0x35339, size: 0x8, addend: 0x0, symName: __ZNSt3__112__hash_tableINS_17__hash_value_typeINS_12basic_stringIcNS_11char_traitsIcEENS_9allocatorIcEEEENS_6vectorIiNS5_IiEEEEEENS_22__unordered_map_hasherIS7_SB_NS_4hashIS7_EENS_8equal_toIS7_EELb1EEENS_21__unordered_map_equalIS7_SB_SG_SE_Lb1EEENS5_ISB_EEE4findIS7_EENS_15__hash_iteratorIPNS_11__hash_nodeISB_PvEEEERKT_, symObjAddr: 0x23C58, symBinAddr: 0x100025308, symSize: 0x488 }
  - { offsetInCU: 0x353C1, offset: 0x353C1, size: 0x8, addend: 0x0, symName: __ZNSt3__119__hash_map_iteratorINS_15__hash_iteratorIPNS_11__hash_nodeINS_17__hash_value_typeINS_12basic_stringIcNS_11char_traitsIcEENS_9allocatorIcEEEENS_6vectorIiNS7_IiEEEEEEPvEEEEEC1B7v160006ESH_, symObjAddr: 0x240E0, symBinAddr: 0x100025790, symSize: 0x238 }
  - { offsetInCU: 0x353FF, offset: 0x353FF, size: 0x8, addend: 0x0, symName: __ZNSt3__112__hash_tableINS_17__hash_value_typeINS_12basic_stringIcNS_11char_traitsIcEENS_9allocatorIcEEEENS_6vectorIiNS5_IiEEEEEENS_22__unordered_map_hasherIS7_SB_NS_4hashIS7_EENS_8equal_toIS7_EELb1EEENS_21__unordered_map_equalIS7_SB_SG_SE_Lb1EEENS5_ISB_EEE13hash_functionB7v160006Ev, symObjAddr: 0x24318, symBinAddr: 0x1000259C8, symSize: 0x28 }
  - { offsetInCU: 0x35425, offset: 0x35425, size: 0x8, addend: 0x0, symName: __ZNKSt3__122__unordered_map_hasherINS_12basic_stringIcNS_11char_traitsIcEENS_9allocatorIcEEEENS_17__hash_value_typeIS6_NS_6vectorIiNS4_IiEEEEEENS_4hashIS6_EENS_8equal_toIS6_EELb1EEclB7v160006ERKS6_, symObjAddr: 0x24340, symBinAddr: 0x1000259F0, symSize: 0x2C }
  - { offsetInCU: 0x3545A, offset: 0x3545A, size: 0x8, addend: 0x0, symName: __ZNKSt3__112__hash_tableINS_17__hash_value_typeINS_12basic_stringIcNS_11char_traitsIcEENS_9allocatorIcEEEENS_6vectorIiNS5_IiEEEEEENS_22__unordered_map_hasherIS7_SB_NS_4hashIS7_EENS_8equal_toIS7_EELb1EEENS_21__unordered_map_equalIS7_SB_SG_SE_Lb1EEENS5_ISB_EEE12bucket_countB7v160006Ev, symObjAddr: 0x2436C, symBinAddr: 0x100025A1C, symSize: 0x28 }
  - { offsetInCU: 0x35480, offset: 0x35480, size: 0x8, addend: 0x0, symName: __ZNKSt3__110unique_ptrIA_PNS_16__hash_node_baseIPNS_11__hash_nodeINS_17__hash_value_typeINS_12basic_stringIcNS_11char_traitsIcEENS_9allocatorIcEEEENS_6vectorIiNS7_IiEEEEEEPvEEEENS_25__bucket_list_deallocatorINS7_ISI_EEEEEixB7v160006Em, symObjAddr: 0x2442C, symBinAddr: 0x100025ADC, symSize: 0x78 }
  - { offsetInCU: 0x354B5, offset: 0x354B5, size: 0x8, addend: 0x0, symName: __ZNKSt3__116__hash_node_baseIPNS_11__hash_nodeINS_17__hash_value_typeINS_12basic_stringIcNS_11char_traitsIcEENS_9allocatorIcEEEENS_6vectorIiNS6_IiEEEEEEPvEEE6__hashB7v160006Ev, symObjAddr: 0x244A4, symBinAddr: 0x100025B54, symSize: 0x64 }
  - { offsetInCU: 0x354DB, offset: 0x354DB, size: 0x8, addend: 0x0, symName: __ZNSt3__112__hash_tableINS_17__hash_value_typeINS_12basic_stringIcNS_11char_traitsIcEENS_9allocatorIcEEEENS_6vectorIiNS5_IiEEEEEENS_22__unordered_map_hasherIS7_SB_NS_4hashIS7_EENS_8equal_toIS7_EELb1EEENS_21__unordered_map_equalIS7_SB_SG_SE_Lb1EEENS5_ISB_EEE6key_eqB7v160006Ev, symObjAddr: 0x24508, symBinAddr: 0x100025BB8, symSize: 0x28 }
  - { offsetInCU: 0x35501, offset: 0x35501, size: 0x8, addend: 0x0, symName: __ZNKSt3__121__unordered_map_equalINS_12basic_stringIcNS_11char_traitsIcEENS_9allocatorIcEEEENS_17__hash_value_typeIS6_NS_6vectorIiNS4_IiEEEEEENS_8equal_toIS6_EENS_4hashIS6_EELb1EEclB7v160006ERKSB_RKS6_, symObjAddr: 0x24530, symBinAddr: 0x100025BE0, symSize: 0x48 }
  - { offsetInCU: 0x35545, offset: 0x35545, size: 0x8, addend: 0x0, symName: __ZNSt3__115__hash_iteratorIPNS_11__hash_nodeINS_17__hash_value_typeINS_12basic_stringIcNS_11char_traitsIcEENS_9allocatorIcEEEENS_6vectorIiNS6_IiEEEEEEPvEEEC1B7v160006EPNS_16__hash_node_baseISF_EEPKv, symObjAddr: 0x24578, symBinAddr: 0x100025C28, symSize: 0x3C }
  - { offsetInCU: 0x3558D, offset: 0x3558D, size: 0x8, addend: 0x0, symName: __ZNSt3__112__hash_tableINS_17__hash_value_typeINS_12basic_stringIcNS_11char_traitsIcEENS_9allocatorIcEEEENS_6vectorIiNS5_IiEEEEEENS_22__unordered_map_hasherIS7_SB_NS_4hashIS7_EENS_8equal_toIS7_EELb1EEENS_21__unordered_map_equalIS7_SB_SG_SE_Lb1EEENS5_ISB_EEE3endEv, symObjAddr: 0x245B4, symBinAddr: 0x100025C64, symSize: 0x1FC }
  - { offsetInCU: 0x355B6, offset: 0x355B6, size: 0x8, addend: 0x0, symName: __ZNSt3__117__compressed_pairImNS_22__unordered_map_hasherINS_12basic_stringIcNS_11char_traitsIcEENS_9allocatorIcEEEENS_17__hash_value_typeIS7_NS_6vectorIiNS5_IiEEEEEENS_4hashIS7_EENS_8equal_toIS7_EELb1EEEE6secondB7v160006Ev, symObjAddr: 0x247B0, symBinAddr: 0x100025E60, symSize: 0x24 }
  - { offsetInCU: 0x355DC, offset: 0x355DC, size: 0x8, addend: 0x0, symName: __ZNSt3__122__compressed_pair_elemINS_22__unordered_map_hasherINS_12basic_stringIcNS_11char_traitsIcEENS_9allocatorIcEEEENS_17__hash_value_typeIS7_NS_6vectorIiNS5_IiEEEEEENS_4hashIS7_EENS_8equal_toIS7_EELb1EEELi1ELb1EE5__getB7v160006Ev, symObjAddr: 0x247D4, symBinAddr: 0x100025E84, symSize: 0x14 }
  - { offsetInCU: 0x35602, offset: 0x35602, size: 0x8, addend: 0x0, symName: __ZNKSt3__113__string_hashIcNS_9allocatorIcEEEclERKNS_12basic_stringIcNS_11char_traitsIcEES2_EE, symObjAddr: 0x247E8, symBinAddr: 0x100025E98, symSize: 0x70 }
  - { offsetInCU: 0x35637, offset: 0x35637, size: 0x8, addend: 0x0, symName: __ZNSt3__121__murmur2_or_cityhashImLm64EEclEPKvm, symObjAddr: 0x24A44, symBinAddr: 0x1000260F4, symSize: 0xE04 }
  - { offsetInCU: 0x356EA, offset: 0x356EA, size: 0x8, addend: 0x0, symName: __ZNSt3__121__murmur2_or_cityhashImLm64EE18__hash_len_0_to_16EPKcm, symObjAddr: 0x25848, symBinAddr: 0x100026EF8, symSize: 0x2D8 }
  - { offsetInCU: 0x357CF, offset: 0x357CF, size: 0x8, addend: 0x0, symName: __ZNSt3__121__murmur2_or_cityhashImLm64EE19__hash_len_17_to_32EPKcm, symObjAddr: 0x25B20, symBinAddr: 0x1000271D0, symSize: 0x130 }
  - { offsetInCU: 0x3583C, offset: 0x3583C, size: 0x8, addend: 0x0, symName: __ZNSt3__121__murmur2_or_cityhashImLm64EE19__hash_len_33_to_64EPKcm, symObjAddr: 0x25C50, symBinAddr: 0x100027300, symSize: 0x2B8 }
  - { offsetInCU: 0x358F7, offset: 0x358F7, size: 0x8, addend: 0x0, symName: __ZNSt3__121__murmur2_or_cityhashImLm64EE13__hash_len_16Emm, symObjAddr: 0x2611C, symBinAddr: 0x1000277CC, symSize: 0x80 }
  - { offsetInCU: 0x35955, offset: 0x35955, size: 0x8, addend: 0x0, symName: __ZNSt3__121__murmur2_or_cityhashImLm64EE29__weak_hash_len_32_with_seedsEPKcmm, symObjAddr: 0x2619C, symBinAddr: 0x10002784C, symSize: 0x270 }
  - { offsetInCU: 0x35997, offset: 0x35997, size: 0x8, addend: 0x0, symName: __ZNSt3__121__murmur2_or_cityhashImLm64EE8__rotateEmi, symObjAddr: 0x2640C, symBinAddr: 0x100027ABC, symSize: 0x64 }
  - { offsetInCU: 0x359C8, offset: 0x359C8, size: 0x8, addend: 0x0, symName: __ZNSt3__14pairImmEaSB7v160006EOS1_, symObjAddr: 0x26470, symBinAddr: 0x100027B20, symSize: 0x134 }
  - { offsetInCU: 0x359FD, offset: 0x359FD, size: 0x8, addend: 0x0, symName: __ZNSt3__121__murmur2_or_cityhashImLm64EE11__shift_mixEm, symObjAddr: 0x266D8, symBinAddr: 0x100027D88, symSize: 0x1C }
  - { offsetInCU: 0x35A20, offset: 0x35A20, size: 0x8, addend: 0x0, symName: __ZNSt3__121__murmur2_or_cityhashImLm64EE22__rotate_by_at_least_1Emi, symObjAddr: 0x266F4, symBinAddr: 0x100027DA4, symSize: 0x38 }
  - { offsetInCU: 0x35A51, offset: 0x35A51, size: 0x8, addend: 0x0, symName: __ZNSt3__121__murmur2_or_cityhashImLm64EE29__weak_hash_len_32_with_seedsEmmmmmm, symObjAddr: 0x2696C, symBinAddr: 0x10002801C, symSize: 0x398 }
  - { offsetInCU: 0x35AD6, offset: 0x35AD6, size: 0x8, addend: 0x0, symName: __ZNSt3__14pairImmEC1B7v160006ImmLPv0EEEOT_OT0_, symObjAddr: 0x26D04, symBinAddr: 0x1000283B4, symSize: 0x3C }
  - { offsetInCU: 0x35B34, offset: 0x35B34, size: 0x8, addend: 0x0, symName: __ZNSt3__14pairImmEC2B7v160006ImmLPv0EEEOT_OT0_, symObjAddr: 0x26D40, symBinAddr: 0x1000283F0, symSize: 0x138 }
  - { offsetInCU: 0x35B92, offset: 0x35B92, size: 0x8, addend: 0x0, symName: __ZNKSt3__110unique_ptrIA_PNS_16__hash_node_baseIPNS_11__hash_nodeINS_17__hash_value_typeINS_12basic_stringIcNS_11char_traitsIcEENS_9allocatorIcEEEENS_6vectorIiNS7_IiEEEEEEPvEEEENS_25__bucket_list_deallocatorINS7_ISI_EEEEE11get_deleterB7v160006Ev, symObjAddr: 0x26E78, symBinAddr: 0x100028528, symSize: 0x24 }
  - { offsetInCU: 0x35BB8, offset: 0x35BB8, size: 0x8, addend: 0x0, symName: __ZNKSt3__125__bucket_list_deallocatorINS_9allocatorIPNS_16__hash_node_baseIPNS_11__hash_nodeINS_17__hash_value_typeINS_12basic_stringIcNS_11char_traitsIcEENS1_IcEEEENS_6vectorIiNS1_IiEEEEEEPvEEEEEEE4sizeB7v160006Ev, symObjAddr: 0x26E9C, symBinAddr: 0x10002854C, symSize: 0x6C }
  - { offsetInCU: 0x35BDE, offset: 0x35BDE, size: 0x8, addend: 0x0, symName: __ZNKSt3__117__compressed_pairIPPNS_16__hash_node_baseIPNS_11__hash_nodeINS_17__hash_value_typeINS_12basic_stringIcNS_11char_traitsIcEENS_9allocatorIcEEEENS_6vectorIiNS7_IiEEEEEEPvEEEENS_25__bucket_list_deallocatorINS7_ISI_EEEEE6secondB7v160006Ev, symObjAddr: 0x26F08, symBinAddr: 0x1000285B8, symSize: 0x28 }
  - { offsetInCU: 0x35C04, offset: 0x35C04, size: 0x8, addend: 0x0, symName: __ZNKSt3__122__compressed_pair_elemINS_25__bucket_list_deallocatorINS_9allocatorIPNS_16__hash_node_baseIPNS_11__hash_nodeINS_17__hash_value_typeINS_12basic_stringIcNS_11char_traitsIcEENS2_IcEEEENS_6vectorIiNS2_IiEEEEEEPvEEEEEEEELi1ELb0EE5__getB7v160006Ev, symObjAddr: 0x26F30, symBinAddr: 0x1000285E0, symSize: 0x14 }
  - { offsetInCU: 0x35C2A, offset: 0x35C2A, size: 0x8, addend: 0x0, symName: __ZNKSt3__117__compressed_pairImNS_9allocatorIPNS_16__hash_node_baseIPNS_11__hash_nodeINS_17__hash_value_typeINS_12basic_stringIcNS_11char_traitsIcEENS1_IcEEEENS_6vectorIiNS1_IiEEEEEEPvEEEEEEE5firstB7v160006Ev, symObjAddr: 0x26F44, symBinAddr: 0x1000285F4, symSize: 0x24 }
  - { offsetInCU: 0x35C50, offset: 0x35C50, size: 0x8, addend: 0x0, symName: __ZNKSt3__122__compressed_pair_elemImLi0ELb0EE5__getB7v160006Ev, symObjAddr: 0x26F68, symBinAddr: 0x100028618, symSize: 0x14 }
  - { offsetInCU: 0x35C76, offset: 0x35C76, size: 0x8, addend: 0x0, symName: __ZNKSt3__117__compressed_pairIPPNS_16__hash_node_baseIPNS_11__hash_nodeINS_17__hash_value_typeINS_12basic_stringIcNS_11char_traitsIcEENS_9allocatorIcEEEENS_6vectorIiNS7_IiEEEEEEPvEEEENS_25__bucket_list_deallocatorINS7_ISI_EEEEE5firstB7v160006Ev, symObjAddr: 0x26F7C, symBinAddr: 0x10002862C, symSize: 0x24 }
  - { offsetInCU: 0x35C9C, offset: 0x35C9C, size: 0x8, addend: 0x0, symName: __ZNKSt3__122__compressed_pair_elemIPPNS_16__hash_node_baseIPNS_11__hash_nodeINS_17__hash_value_typeINS_12basic_stringIcNS_11char_traitsIcEENS_9allocatorIcEEEENS_6vectorIiNS7_IiEEEEEEPvEEEELi0ELb0EE5__getB7v160006Ev, symObjAddr: 0x26FA0, symBinAddr: 0x100028650, symSize: 0x14 }
  - { offsetInCU: 0x35CC2, offset: 0x35CC2, size: 0x8, addend: 0x0, symName: __ZNSt3__117__compressed_pairIfNS_21__unordered_map_equalINS_12basic_stringIcNS_11char_traitsIcEENS_9allocatorIcEEEENS_17__hash_value_typeIS7_NS_6vectorIiNS5_IiEEEEEENS_8equal_toIS7_EENS_4hashIS7_EELb1EEEE6secondB7v160006Ev, symObjAddr: 0x26FB4, symBinAddr: 0x100028664, symSize: 0x24 }
  - { offsetInCU: 0x35CE8, offset: 0x35CE8, size: 0x8, addend: 0x0, symName: __ZNSt3__122__compressed_pair_elemINS_21__unordered_map_equalINS_12basic_stringIcNS_11char_traitsIcEENS_9allocatorIcEEEENS_17__hash_value_typeIS7_NS_6vectorIiNS5_IiEEEEEENS_8equal_toIS7_EENS_4hashIS7_EELb1EEELi1ELb1EE5__getB7v160006Ev, symObjAddr: 0x26FD8, symBinAddr: 0x100028688, symSize: 0x14 }
  - { offsetInCU: 0x35D0E, offset: 0x35D0E, size: 0x8, addend: 0x0, symName: __ZNKSt3__18equal_toINS_12basic_stringIcNS_11char_traitsIcEENS_9allocatorIcEEEEEclB7v160006ERKS6_S9_, symObjAddr: 0x26FEC, symBinAddr: 0x10002869C, symSize: 0x34 }
  - { offsetInCU: 0x35D52, offset: 0x35D52, size: 0x8, addend: 0x0, symName: __ZNKSt3__117__hash_value_typeINS_12basic_stringIcNS_11char_traitsIcEENS_9allocatorIcEEEENS_6vectorIiNS4_IiEEEEE11__get_valueB7v160006Ev, symObjAddr: 0x27020, symBinAddr: 0x1000286D0, symSize: 0x24 }
  - { offsetInCU: 0x35D78, offset: 0x35D78, size: 0x8, addend: 0x0, symName: __ZNSt3__111char_traitsIcE7compareEPKcS3_m, symObjAddr: 0x27278, symBinAddr: 0x100028928, symSize: 0x78 }
  - { offsetInCU: 0x35DB7, offset: 0x35DB7, size: 0x8, addend: 0x0, symName: __ZNSt3__115__hash_iteratorIPNS_11__hash_nodeINS_17__hash_value_typeINS_12basic_stringIcNS_11char_traitsIcEENS_9allocatorIcEEEENS_6vectorIiNS6_IiEEEEEEPvEEEC2B7v160006EPNS_16__hash_node_baseISF_EEPKv, symObjAddr: 0x2735C, symBinAddr: 0x100028A0C, symSize: 0x74 }
  - { offsetInCU: 0x35DFF, offset: 0x35DFF, size: 0x8, addend: 0x0, symName: __ZNSt3__119__hash_map_iteratorINS_15__hash_iteratorIPNS_11__hash_nodeINS_17__hash_value_typeINS_12basic_stringIcNS_11char_traitsIcEENS_9allocatorIcEEEENS_6vectorIiNS7_IiEEEEEEPvEEEEEC2B7v160006ESH_, symObjAddr: 0x273D0, symBinAddr: 0x100028A80, symSize: 0x204 }
  - { offsetInCU: 0x35E3D, offset: 0x35E3D, size: 0x8, addend: 0x0, symName: __ZNSt3__114pointer_traitsIPNS_4pairIKNS_12basic_stringIcNS_11char_traitsIcEENS_9allocatorIcEEEENS_6vectorIiNS5_IiEEEEEEE10pointer_toB7v160006ERSC_, symObjAddr: 0x276C0, symBinAddr: 0x100028D70, symSize: 0x14 }
  - { offsetInCU: 0x35E60, offset: 0x35E60, size: 0x8, addend: 0x0, symName: __ZNKSt3__115__hash_iteratorIPNS_11__hash_nodeINS_17__hash_value_typeINS_12basic_stringIcNS_11char_traitsIcEENS_9allocatorIcEEEENS_6vectorIiNS6_IiEEEEEEPvEEEptB7v160006Ev, symObjAddr: 0x276D4, symBinAddr: 0x100028D84, symSize: 0x6C }
  - { offsetInCU: 0x35E86, offset: 0x35E86, size: 0x8, addend: 0x0, symName: __ZNSt3__114pointer_traitsIPNS_17__hash_value_typeINS_12basic_stringIcNS_11char_traitsIcEENS_9allocatorIcEEEENS_6vectorIiNS5_IiEEEEEEE10pointer_toB7v160006ERSB_, symObjAddr: 0x27740, symBinAddr: 0x100028DF0, symSize: 0x14 }
  - { offsetInCU: 0x35EA9, offset: 0x35EA9, size: 0x8, addend: 0x0, symName: __ZNSt3__16vectorIiNS_9allocatorIiEEE9__end_capB7v160006Ev, symObjAddr: 0x27754, symBinAddr: 0x100028E04, symSize: 0x28 }
  - { offsetInCU: 0x35ECF, offset: 0x35ECF, size: 0x8, addend: 0x0, symName: __ZNSt3__16vectorIiNS_9allocatorIiEEE22__construct_one_at_endB7v160006IJRKiEEEvDpOT_, symObjAddr: 0x2777C, symBinAddr: 0x100028E2C, symSize: 0x36C }
  - { offsetInCU: 0x35F24, offset: 0x35F24, size: 0x8, addend: 0x0, symName: __ZNSt3__16vectorIiNS_9allocatorIiEEE21__push_back_slow_pathIRKiEEvOT_, symObjAddr: 0x27AE8, symBinAddr: 0x100029198, symSize: 0x3C0 }
  - { offsetInCU: 0x35F89, offset: 0x35F89, size: 0x8, addend: 0x0, symName: __ZNSt3__117__compressed_pairIPiNS_9allocatorIiEEE5firstB7v160006Ev, symObjAddr: 0x27EA8, symBinAddr: 0x100029558, symSize: 0x24 }
  - { offsetInCU: 0x35FAF, offset: 0x35FAF, size: 0x8, addend: 0x0, symName: __ZNSt3__122__compressed_pair_elemIPiLi0ELb0EE5__getB7v160006Ev, symObjAddr: 0x27ECC, symBinAddr: 0x10002957C, symSize: 0x14 }
  - { offsetInCU: 0x35FF1, offset: 0x35FF1, size: 0x8, addend: 0x0, symName: __ZNSt3__16vectorIiNS_9allocatorIiEEE21_ConstructTransactionC1B7v160006ERS3_m, symObjAddr: 0x27EE0, symBinAddr: 0x100029590, symSize: 0x3C }
  - { offsetInCU: 0x36039, offset: 0x36039, size: 0x8, addend: 0x0, symName: __ZNSt3__116allocator_traitsINS_9allocatorIiEEE9constructB7v160006IiJRKiEvEEvRS2_PT_DpOT0_, symObjAddr: 0x27F1C, symBinAddr: 0x1000295CC, symSize: 0x34 }
  - { offsetInCU: 0x36090, offset: 0x36090, size: 0x8, addend: 0x0, symName: __ZNSt3__16vectorIiNS_9allocatorIiEEE21_ConstructTransactionD1B7v160006Ev, symObjAddr: 0x27F50, symBinAddr: 0x100029600, symSize: 0x2C }
  - { offsetInCU: 0x360BA, offset: 0x360BA, size: 0x8, addend: 0x0, symName: __ZNSt3__16vectorIiNS_9allocatorIiEEE21_ConstructTransactionC2B7v160006ERS3_m, symObjAddr: 0x27F7C, symBinAddr: 0x10002962C, symSize: 0x1D0 }
  - { offsetInCU: 0x36102, offset: 0x36102, size: 0x8, addend: 0x0, symName: __ZNKSt3__16vectorIiNS_9allocatorIiEEE19__annotate_increaseB7v160006Em, symObjAddr: 0x2814C, symBinAddr: 0x1000297FC, symSize: 0xD8 }
  - { offsetInCU: 0x36137, offset: 0x36137, size: 0x8, addend: 0x0, symName: __ZNSt3__19allocatorIiE9constructB7v160006IiJRKiEEEvPT_DpOT0_, symObjAddr: 0x28224, symBinAddr: 0x1000298D4, symSize: 0x104 }
  - { offsetInCU: 0x3618D, offset: 0x3618D, size: 0x8, addend: 0x0, symName: __ZNSt3__16vectorIiNS_9allocatorIiEEE21_ConstructTransactionD2B7v160006Ev, symObjAddr: 0x28328, symBinAddr: 0x1000299D8, symSize: 0x278 }
  - { offsetInCU: 0x361B7, offset: 0x361B7, size: 0x8, addend: 0x0, symName: __ZNKSt3__16vectorIiNS_9allocatorIiEEE17__annotate_shrinkB7v160006Em, symObjAddr: 0x285A0, symBinAddr: 0x100029C50, symSize: 0xC8 }
  - { offsetInCU: 0x361EC, offset: 0x361EC, size: 0x8, addend: 0x0, symName: __ZNKSt3__16vectorIiNS_9allocatorIiEEE11__recommendB7v160006Em, symObjAddr: 0x28668, symBinAddr: 0x100029D18, symSize: 0x384 }
  - { offsetInCU: 0x36248, offset: 0x36248, size: 0x8, addend: 0x0, symName: __ZNSt3__114__split_bufferIiRNS_9allocatorIiEEEC1EmmS3_, symObjAddr: 0x289EC, symBinAddr: 0x10002A09C, symSize: 0x44 }
  - { offsetInCU: 0x3629E, offset: 0x3629E, size: 0x8, addend: 0x0, symName: __ZNSt3__114__split_bufferIiRNS_9allocatorIiEEED1Ev, symObjAddr: 0x28FA4, symBinAddr: 0x10002A654, symSize: 0x2C }
  - { offsetInCU: 0x362CA, offset: 0x362CA, size: 0x8, addend: 0x0, symName: __ZNKSt3__16vectorIiNS_9allocatorIiEEE8max_sizeEv, symObjAddr: 0x28FD0, symBinAddr: 0x10002A680, symSize: 0x2FC }
  - { offsetInCU: 0x362F3, offset: 0x362F3, size: 0x8, addend: 0x0, symName: __ZNKSt3__16vectorIiNS_9allocatorIiEEE20__throw_length_errorB7v160006Ev, symObjAddr: 0x292CC, symBinAddr: 0x10002A97C, symSize: 0x20 }
  - { offsetInCU: 0x36324, offset: 0x36324, size: 0x8, addend: 0x0, symName: __ZNSt3__116allocator_traitsINS_9allocatorIiEEE8max_sizeB7v160006IS2_vEEmRKS2_, symObjAddr: 0x292EC, symBinAddr: 0x10002A99C, symSize: 0x24 }
  - { offsetInCU: 0x36352, offset: 0x36352, size: 0x8, addend: 0x0, symName: __ZNKSt3__16vectorIiNS_9allocatorIiEEE7__allocB7v160006Ev, symObjAddr: 0x29310, symBinAddr: 0x10002A9C0, symSize: 0x28 }
  - { offsetInCU: 0x36378, offset: 0x36378, size: 0x8, addend: 0x0, symName: __ZNKSt3__19allocatorIiE8max_sizeB7v160006Ev, symObjAddr: 0x29338, symBinAddr: 0x10002A9E8, symSize: 0x14 }
  - { offsetInCU: 0x3639E, offset: 0x3639E, size: 0x8, addend: 0x0, symName: __ZNKSt3__117__compressed_pairIPiNS_9allocatorIiEEE6secondB7v160006Ev, symObjAddr: 0x2934C, symBinAddr: 0x10002A9FC, symSize: 0x24 }
  - { offsetInCU: 0x363C4, offset: 0x363C4, size: 0x8, addend: 0x0, symName: __ZNKSt3__122__compressed_pair_elemINS_9allocatorIiEELi1ELb1EE5__getB7v160006Ev, symObjAddr: 0x29370, symBinAddr: 0x10002AA20, symSize: 0x14 }
  - { offsetInCU: 0x363EA, offset: 0x363EA, size: 0x8, addend: 0x0, symName: __ZNSt3__114__split_bufferIiRNS_9allocatorIiEEEC2EmmS3_, symObjAddr: 0x29384, symBinAddr: 0x10002AA34, symSize: 0x520 }
  - { offsetInCU: 0x36466, offset: 0x36466, size: 0x8, addend: 0x0, symName: __ZNSt3__117__compressed_pairIPiRNS_9allocatorIiEEEC1B7v160006IDnS4_EEOT_OT0_, symObjAddr: 0x298A4, symBinAddr: 0x10002AF54, symSize: 0x3C }
  - { offsetInCU: 0x364BE, offset: 0x364BE, size: 0x8, addend: 0x0, symName: __ZNSt3__114__split_bufferIiRNS_9allocatorIiEEE7__allocB7v160006Ev, symObjAddr: 0x29B6C, symBinAddr: 0x10002B21C, symSize: 0x28 }
  - { offsetInCU: 0x364E4, offset: 0x364E4, size: 0x8, addend: 0x0, symName: __ZNSt3__114__split_bufferIiRNS_9allocatorIiEEE9__end_capB7v160006Ev, symObjAddr: 0x29B94, symBinAddr: 0x10002B244, symSize: 0x28 }
  - { offsetInCU: 0x3650A, offset: 0x3650A, size: 0x8, addend: 0x0, symName: __ZNSt3__117__compressed_pairIPiRNS_9allocatorIiEEEC2B7v160006IDnS4_EEOT_OT0_, symObjAddr: 0x29BBC, symBinAddr: 0x10002B26C, symSize: 0x48 }
  - { offsetInCU: 0x36562, offset: 0x36562, size: 0x8, addend: 0x0, symName: __ZNSt3__122__compressed_pair_elemIPiLi0ELb0EEC2B7v160006IDnvEEOT_, symObjAddr: 0x29C04, symBinAddr: 0x10002B2B4, symSize: 0x64 }
  - { offsetInCU: 0x365A4, offset: 0x365A4, size: 0x8, addend: 0x0, symName: __ZNSt3__122__compressed_pair_elemIRNS_9allocatorIiEELi1ELb0EEC2B7v160006IS3_vEEOT_, symObjAddr: 0x29C68, symBinAddr: 0x10002B318, symSize: 0x70 }
  - { offsetInCU: 0x365E6, offset: 0x365E6, size: 0x8, addend: 0x0, symName: __ZNSt3__19allocatorIiE8allocateB7v160006Em, symObjAddr: 0x29CD8, symBinAddr: 0x10002B388, symSize: 0x5C }
  - { offsetInCU: 0x3661A, offset: 0x3661A, size: 0x8, addend: 0x0, symName: __ZNSt3__117__compressed_pairIPiRNS_9allocatorIiEEE6secondB7v160006Ev, symObjAddr: 0x29D34, symBinAddr: 0x10002B3E4, symSize: 0x28 }
  - { offsetInCU: 0x36640, offset: 0x36640, size: 0x8, addend: 0x0, symName: __ZNSt3__122__compressed_pair_elemIRNS_9allocatorIiEELi1ELb0EE5__getB7v160006Ev, symObjAddr: 0x29D5C, symBinAddr: 0x10002B40C, symSize: 0x60 }
  - { offsetInCU: 0x36666, offset: 0x36666, size: 0x8, addend: 0x0, symName: __ZNSt3__117__compressed_pairIPiRNS_9allocatorIiEEE5firstB7v160006Ev, symObjAddr: 0x29DBC, symBinAddr: 0x10002B46C, symSize: 0x24 }
  - { offsetInCU: 0x3668C, offset: 0x3668C, size: 0x8, addend: 0x0, symName: __ZNSt3__116reverse_iteratorIPiEC1B7v160006ES1_, symObjAddr: 0x2A288, symBinAddr: 0x10002B938, symSize: 0x34 }
  - { offsetInCU: 0x366C4, offset: 0x366C4, size: 0x8, addend: 0x0, symName: __ZNKSt3__116reverse_iteratorIPiE4baseB7v160006Ev, symObjAddr: 0x2A2BC, symBinAddr: 0x10002B96C, symSize: 0x64 }
  - { offsetInCU: 0x366EA, offset: 0x366EA, size: 0x8, addend: 0x0, symName: __ZNKSt3__16vectorIiNS_9allocatorIiEEE14__annotate_newB7v160006Em, symObjAddr: 0x2A454, symBinAddr: 0x10002BB04, symSize: 0xC0 }
  - { offsetInCU: 0x36747, offset: 0x36747, size: 0x8, addend: 0x0, symName: __ZNKSt3__111__move_loopINS_17_ClassicAlgPolicyEEclB7v160006INS_16reverse_iteratorIPiEES6_S6_EENS_4pairIT_T1_EES8_T0_S9_, symObjAddr: 0x2BEE4, symBinAddr: 0x10002D594, symSize: 0x3F8 }
  - { offsetInCU: 0x367BF, offset: 0x367BF, size: 0x8, addend: 0x0, symName: __ZNSt3__18_IterOpsINS_17_ClassicAlgPolicyEE11__iter_moveB7v160006IRNS_16reverse_iteratorIPiEEEENS_9enable_ifIXsr12is_referenceIDTdeclsr3stdE7declvalIRT_EEEEE5valueEDTclsr3stdE4movedeclsr3stdE7declvalISA_EEEEE4typeEOS9_, symObjAddr: 0x2CE04, symBinAddr: 0x10002E4B4, symSize: 0x28 }
  - { offsetInCU: 0x367EB, offset: 0x367EB, size: 0x8, addend: 0x0, symName: __ZNKSt3__116reverse_iteratorIPiEdeB7v160006Ev, symObjAddr: 0x2CE2C, symBinAddr: 0x10002E4DC, symSize: 0x74 }
  - { offsetInCU: 0x36820, offset: 0x36820, size: 0x8, addend: 0x0, symName: __ZNSt3__116reverse_iteratorIPiEppB7v160006Ev, symObjAddr: 0x2CEA0, symBinAddr: 0x10002E550, symSize: 0x6C }
  - { offsetInCU: 0x36846, offset: 0x36846, size: 0x8, addend: 0x0, symName: __ZNSt3__18_IterOpsINS_17_ClassicAlgPolicyEE25__validate_iter_referenceB7v160006IRNS_16reverse_iteratorIPiEEEEvv, symObjAddr: 0x2CF0C, symBinAddr: 0x10002E5BC, symSize: 0x4 }
  - { offsetInCU: 0x36864, offset: 0x36864, size: 0x8, addend: 0x0, symName: __ZNSt3__118__unwrap_iter_implINS_16reverse_iteratorIPiEELb0EE8__unwrapB7v160006ES3_, symObjAddr: 0x2CF10, symBinAddr: 0x10002E5C0, symSize: 0x274 }
  - { offsetInCU: 0x36891, offset: 0x36891, size: 0x8, addend: 0x0, symName: __ZNSt3__14pairINS_16reverse_iteratorIPiEES3_EC1B7v160006IS3_S3_LPv0EEEOT_OT0_, symObjAddr: 0x2D184, symBinAddr: 0x10002E834, symSize: 0x3C }
  - { offsetInCU: 0x368EF, offset: 0x368EF, size: 0x8, addend: 0x0, symName: __ZNSt3__14pairINS_16reverse_iteratorIPiEES3_EC2B7v160006IS3_S3_LPv0EEEOT_OT0_, symObjAddr: 0x2D1C0, symBinAddr: 0x10002E870, symSize: 0x54 }
  - { offsetInCU: 0x3694D, offset: 0x3694D, size: 0x8, addend: 0x0, symName: __ZNSt3__118__unwrap_iter_implINS_16reverse_iteratorIPiEELb0EE8__rewrapB7v160006ES3_S3_, symObjAddr: 0x2D214, symBinAddr: 0x10002E8C4, symSize: 0x2E0 }
  - { offsetInCU: 0x36982, offset: 0x36982, size: 0x8, addend: 0x0, symName: __ZNSt3__116reverse_iteratorIPiEC2B7v160006ES1_, symObjAddr: 0x2D4F4, symBinAddr: 0x10002EBA4, symSize: 0xB8 }
  - { offsetInCU: 0x369BA, offset: 0x369BA, size: 0x8, addend: 0x0, symName: __ZNSt3__114__split_bufferIiRNS_9allocatorIiEEED2Ev, symObjAddr: 0x2D5AC, symBinAddr: 0x10002EC5C, symSize: 0x104 }
  - { offsetInCU: 0x369E6, offset: 0x369E6, size: 0x8, addend: 0x0, symName: __ZNSt3__114__split_bufferIiRNS_9allocatorIiEEE5clearB7v160006Ev, symObjAddr: 0x2D6B0, symBinAddr: 0x10002ED60, symSize: 0x68 }
  - { offsetInCU: 0x36A0C, offset: 0x36A0C, size: 0x8, addend: 0x0, symName: __ZNKSt3__114__split_bufferIiRNS_9allocatorIiEEE8capacityB7v160006Ev, symObjAddr: 0x2D718, symBinAddr: 0x10002EDC8, symSize: 0xBC }
  - { offsetInCU: 0x36A32, offset: 0x36A32, size: 0x8, addend: 0x0, symName: __ZNSt3__114__split_bufferIiRNS_9allocatorIiEEE17__destruct_at_endB7v160006EPi, symObjAddr: 0x2D7D4, symBinAddr: 0x10002EE84, symSize: 0x2C }
  - { offsetInCU: 0x36A66, offset: 0x36A66, size: 0x8, addend: 0x0, symName: __ZNSt3__114__split_bufferIiRNS_9allocatorIiEEE17__destruct_at_endB7v160006EPiNS_17integral_constantIbLb0EEE, symObjAddr: 0x2D800, symBinAddr: 0x10002EEB0, symSize: 0x10C }
  - { offsetInCU: 0x36AA6, offset: 0x36AA6, size: 0x8, addend: 0x0, symName: __ZNKSt3__114__split_bufferIiRNS_9allocatorIiEEE9__end_capB7v160006Ev, symObjAddr: 0x2D90C, symBinAddr: 0x10002EFBC, symSize: 0x28 }
  - { offsetInCU: 0x36ACC, offset: 0x36ACC, size: 0x8, addend: 0x0, symName: __ZNKSt3__117__compressed_pairIPiRNS_9allocatorIiEEE5firstB7v160006Ev, symObjAddr: 0x2D934, symBinAddr: 0x10002EFE4, symSize: 0x24 }
  - { offsetInCU: 0x36AF2, offset: 0x36AF2, size: 0x8, addend: 0x0, symName: __ZNSt3__16vectorIiNS_9allocatorIiEEEC2B7v160006ESt16initializer_listIiE, symObjAddr: 0x2D958, symBinAddr: 0x10002F008, symSize: 0x534 }
  - { offsetInCU: 0x36B4B, offset: 0x36B4B, size: 0x8, addend: 0x0, symName: __ZNSt3__117__compressed_pairIPiNS_9allocatorIiEEEC1B7v160006IDnNS_18__default_init_tagEEEOT_OT0_, symObjAddr: 0x2DE8C, symBinAddr: 0x10002F53C, symSize: 0x3C }
  - { offsetInCU: 0x36BA3, offset: 0x36BA3, size: 0x8, addend: 0x0, symName: __ZNKSt16initializer_listIiE4sizeB7v160006Ev, symObjAddr: 0x2E150, symBinAddr: 0x10002F800, symSize: 0x64 }
  - { offsetInCU: 0x36BC9, offset: 0x36BC9, size: 0x8, addend: 0x0, symName: __ZNSt3__16vectorIiNS_9allocatorIiEEE11__vallocateB7v160006Em, symObjAddr: 0x2E1B4, symBinAddr: 0x10002F864, symSize: 0x420 }
  - { offsetInCU: 0x36C13, offset: 0x36C13, size: 0x8, addend: 0x0, symName: __ZNSt3__16vectorIiNS_9allocatorIiEEE18__construct_at_endIPKiLi0EEEvT_S7_m, symObjAddr: 0x2E5D4, symBinAddr: 0x10002FC84, symSize: 0x380 }
  - { offsetInCU: 0x36C8E, offset: 0x36C8E, size: 0x8, addend: 0x0, symName: __ZNKSt16initializer_listIiE5beginB7v160006Ev, symObjAddr: 0x2E954, symBinAddr: 0x100030004, symSize: 0x60 }
  - { offsetInCU: 0x36CB4, offset: 0x36CB4, size: 0x8, addend: 0x0, symName: __ZNKSt16initializer_listIiE3endB7v160006Ev, symObjAddr: 0x2E9B4, symBinAddr: 0x100030064, symSize: 0xA8 }
  - { offsetInCU: 0x36CDA, offset: 0x36CDA, size: 0x8, addend: 0x0, symName: __ZNSt3__128__exception_guard_exceptionsINS_6vectorIiNS_9allocatorIiEEE16__destroy_vectorEE10__completeB7v160006Ev, symObjAddr: 0x2EA5C, symBinAddr: 0x10003010C, symSize: 0x8C }
  - { offsetInCU: 0x36D00, offset: 0x36D00, size: 0x8, addend: 0x0, symName: __ZNSt3__128__exception_guard_exceptionsINS_6vectorIiNS_9allocatorIiEEE16__destroy_vectorEED1B7v160006Ev, symObjAddr: 0x2EAE8, symBinAddr: 0x100030198, symSize: 0x2C }
  - { offsetInCU: 0x36D2A, offset: 0x36D2A, size: 0x8, addend: 0x0, symName: __ZNSt3__117__compressed_pairIPiNS_9allocatorIiEEEC2B7v160006IDnNS_18__default_init_tagEEEOT_OT0_, symObjAddr: 0x2EB14, symBinAddr: 0x1000301C4, symSize: 0x40 }
  - { offsetInCU: 0x36D82, offset: 0x36D82, size: 0x8, addend: 0x0, symName: __ZNSt3__122__compressed_pair_elemINS_9allocatorIiEELi1ELb1EEC2B7v160006ENS_18__default_init_tagE, symObjAddr: 0x2EB54, symBinAddr: 0x100030204, symSize: 0x2C }
  - { offsetInCU: 0x36DB6, offset: 0x36DB6, size: 0x8, addend: 0x0, symName: __ZNSt3__19allocatorIiEC2B7v160006Ev, symObjAddr: 0x2EB80, symBinAddr: 0x100030230, symSize: 0x2C }
  - { offsetInCU: 0x36DE0, offset: 0x36DE0, size: 0x8, addend: 0x0, symName: __ZNSt3__116__non_trivial_ifILb1ENS_9allocatorIiEEEC2B7v160006Ev, symObjAddr: 0x2EBAC, symBinAddr: 0x10003025C, symSize: 0x14 }
  - { offsetInCU: 0x36E0A, offset: 0x36E0A, size: 0x8, addend: 0x0, symName: __ZNSt3__128__exception_guard_exceptionsINS_6vectorIiNS_9allocatorIiEEE16__destroy_vectorEEC1B7v160006ES5_, symObjAddr: 0x2EBC0, symBinAddr: 0x100030270, symSize: 0x238 }
  - { offsetInCU: 0x36E47, offset: 0x36E47, size: 0x8, addend: 0x0, symName: __ZNSt3__128__exception_guard_exceptionsINS_6vectorIiNS_9allocatorIiEEE16__destroy_vectorEEC2B7v160006ES5_, symObjAddr: 0x2EDF8, symBinAddr: 0x1000304A8, symSize: 0x264 }
  - { offsetInCU: 0x36EAC, offset: 0x36EAC, size: 0x8, addend: 0x0, symName: __ZNKSt3__114__copy_trivialclB7v160006IKiiLi0EEENS_4pairIPT_PT0_EES5_S5_S7_, symObjAddr: 0x3004C, symBinAddr: 0x1000316FC, symSize: 0x230 }
  - { offsetInCU: 0x36F3B, offset: 0x36F3B, size: 0x8, addend: 0x0, symName: __ZNSt3__14pairIPKiS2_EC1B7v160006IS2_S2_LPv0EEEOT_OT0_, symObjAddr: 0x30750, symBinAddr: 0x100031E00, symSize: 0x3C }
  - { offsetInCU: 0x36F99, offset: 0x36F99, size: 0x8, addend: 0x0, symName: __ZNSt3__14pairIPKiS2_EC2B7v160006IS2_S2_LPv0EEEOT_OT0_, symObjAddr: 0x3078C, symBinAddr: 0x100031E3C, symSize: 0x138 }
  - { offsetInCU: 0x36FF7, offset: 0x36FF7, size: 0x8, addend: 0x0, symName: __ZNSt3__118__unwrap_iter_implIPKiLb1EE8__unwrapB7v160006ES2_, symObjAddr: 0x308C4, symBinAddr: 0x100031F74, symSize: 0x24 }
  - { offsetInCU: 0x37026, offset: 0x37026, size: 0x8, addend: 0x0, symName: __ZNSt3__14pairIPKiPiEC1B7v160006IRS2_S3_LPv0EEEOT_OT0_, symObjAddr: 0x30EC0, symBinAddr: 0x100032570, symSize: 0x3C }
  - { offsetInCU: 0x37084, offset: 0x37084, size: 0x8, addend: 0x0, symName: __ZNSt3__14pairIPKiPiEC2B7v160006IRS2_S3_LPv0EEEOT_OT0_, symObjAddr: 0x30EFC, symBinAddr: 0x1000325AC, symSize: 0x138 }
  - { offsetInCU: 0x370E2, offset: 0x370E2, size: 0x8, addend: 0x0, symName: __ZNSt3__118__unwrap_iter_implIPiLb1EE8__unwrapB7v160006ES1_, symObjAddr: 0x31034, symBinAddr: 0x1000326E4, symSize: 0x24 }
  - { offsetInCU: 0x37105, offset: 0x37105, size: 0x8, addend: 0x0, symName: __ZNSt3__14pairIPKiPiEC1B7v160006IS2_S3_LPv0EEEOT_OT0_, symObjAddr: 0x31058, symBinAddr: 0x100032708, symSize: 0x3C }
  - { offsetInCU: 0x37163, offset: 0x37163, size: 0x8, addend: 0x0, symName: __ZNSt3__14pairIPKiPiEC2B7v160006IS2_S3_LPv0EEEOT_OT0_, symObjAddr: 0x31094, symBinAddr: 0x100032744, symSize: 0x138 }
  - { offsetInCU: 0x371C1, offset: 0x371C1, size: 0x8, addend: 0x0, symName: __ZNSt3__118__unwrap_iter_implIPKiLb1EE8__rewrapB7v160006ES2_S2_, symObjAddr: 0x31214, symBinAddr: 0x1000328C4, symSize: 0x50 }
  - { offsetInCU: 0x371F2, offset: 0x371F2, size: 0x8, addend: 0x0, symName: __ZNSt3__118__unwrap_iter_implIPiLb1EE8__rewrapB7v160006ES1_S1_, symObjAddr: 0x31264, symBinAddr: 0x100032914, symSize: 0x50 }
  - { offsetInCU: 0x37223, offset: 0x37223, size: 0x8, addend: 0x0, symName: __ZNSt3__128__exception_guard_exceptionsINS_6vectorIiNS_9allocatorIiEEE16__destroy_vectorEED2B7v160006Ev, symObjAddr: 0x312B4, symBinAddr: 0x100032964, symSize: 0xBC }
  - { offsetInCU: 0x37265, offset: 0x37265, size: 0x8, addend: 0x0, symName: __ZNSt3__112__hash_tableINS_17__hash_value_typeINS_12basic_stringIcNS_11char_traitsIcEENS_9allocatorIcEEEENS_6vectorIiNS5_IiEEEEEENS_22__unordered_map_hasherIS7_SB_NS_4hashIS7_EENS_8equal_toIS7_EELb1EEENS_21__unordered_map_equalIS7_SB_SG_SE_Lb1EEENS5_ISB_EEE25__emplace_unique_key_argsIS7_JRKNS_21piecewise_construct_tENS_5tupleIJRKS7_EEENSQ_IJEEEEEENS_4pairINS_15__hash_iteratorIPNS_11__hash_nodeISB_PvEEEEbEERKT_DpOT0_, symObjAddr: 0x31370, symBinAddr: 0x100032A20, symSize: 0xDEC }
  - { offsetInCU: 0x37379, offset: 0x37379, size: 0x8, addend: 0x0, symName: __ZNSt3__112__hash_tableINS_17__hash_value_typeINS_12basic_stringIcNS_11char_traitsIcEENS_9allocatorIcEEEENS_6vectorIiNS5_IiEEEEEENS_22__unordered_map_hasherIS7_SB_NS_4hashIS7_EENS_8equal_toIS7_EELb1EEENS_21__unordered_map_equalIS7_SB_SG_SE_Lb1EEENS5_ISB_EEE21__construct_node_hashIRKNS_21piecewise_construct_tEJNS_5tupleIJRKS7_EEENSQ_IJEEEEEENS_10unique_ptrINS_11__hash_nodeISB_PvEENS_22__hash_node_destructorINS5_ISY_EEEEEEmOT_DpOT0_, symObjAddr: 0x32358, symBinAddr: 0x100033A08, symSize: 0x428 }
  - { offsetInCU: 0x3741C, offset: 0x3741C, size: 0x8, addend: 0x0, symName: __ZNSt3__112__hash_tableINS_17__hash_value_typeINS_12basic_stringIcNS_11char_traitsIcEENS_9allocatorIcEEEENS_6vectorIiNS5_IiEEEEEENS_22__unordered_map_hasherIS7_SB_NS_4hashIS7_EENS_8equal_toIS7_EELb1EEENS_21__unordered_map_equalIS7_SB_SG_SE_Lb1EEENS5_ISB_EEE4sizeB7v160006Ev, symObjAddr: 0x32780, symBinAddr: 0x100033E30, symSize: 0x28 }
  - { offsetInCU: 0x37442, offset: 0x37442, size: 0x8, addend: 0x0, symName: __ZNSt3__112__hash_tableINS_17__hash_value_typeINS_12basic_stringIcNS_11char_traitsIcEENS_9allocatorIcEEEENS_6vectorIiNS5_IiEEEEEENS_22__unordered_map_hasherIS7_SB_NS_4hashIS7_EENS_8equal_toIS7_EELb1EEENS_21__unordered_map_equalIS7_SB_SG_SE_Lb1EEENS5_ISB_EEE15max_load_factorB7v160006Ev, symObjAddr: 0x327A8, symBinAddr: 0x100033E58, symSize: 0x28 }
  - { offsetInCU: 0x37468, offset: 0x37468, size: 0x8, addend: 0x0, symName: __ZNSt3__112__hash_tableINS_17__hash_value_typeINS_12basic_stringIcNS_11char_traitsIcEENS_9allocatorIcEEEENS_6vectorIiNS5_IiEEEEEENS_22__unordered_map_hasherIS7_SB_NS_4hashIS7_EENS_8equal_toIS7_EELb1EEENS_21__unordered_map_equalIS7_SB_SG_SE_Lb1EEENS5_ISB_EEE15__rehash_uniqueB7v160006Em, symObjAddr: 0x327D0, symBinAddr: 0x100033E80, symSize: 0x2C }
  - { offsetInCU: 0x3749D, offset: 0x3749D, size: 0x8, addend: 0x0, symName: __Z4ceilB7v160006f, symObjAddr: 0x3284C, symBinAddr: 0x100033EFC, symSize: 0x18 }
  - { offsetInCU: 0x374CC, offset: 0x374CC, size: 0x8, addend: 0x0, symName: __ZNSt3__116__hash_node_baseIPNS_11__hash_nodeINS_17__hash_value_typeINS_12basic_stringIcNS_11char_traitsIcEENS_9allocatorIcEEEENS_6vectorIiNS6_IiEEEEEEPvEEE5__ptrB7v160006Ev, symObjAddr: 0x32864, symBinAddr: 0x100033F14, symSize: 0x24 }
  - { offsetInCU: 0x374F2, offset: 0x374F2, size: 0x8, addend: 0x0, symName: __ZNKSt3__110unique_ptrINS_11__hash_nodeINS_17__hash_value_typeINS_12basic_stringIcNS_11char_traitsIcEENS_9allocatorIcEEEENS_6vectorIiNS6_IiEEEEEEPvEENS_22__hash_node_destructorINS6_ISE_EEEEEptB7v160006Ev, symObjAddr: 0x32888, symBinAddr: 0x100033F38, symSize: 0x6C }
  - { offsetInCU: 0x37518, offset: 0x37518, size: 0x8, addend: 0x0, symName: __ZNKSt3__110unique_ptrINS_11__hash_nodeINS_17__hash_value_typeINS_12basic_stringIcNS_11char_traitsIcEENS_9allocatorIcEEEENS_6vectorIiNS6_IiEEEEEEPvEENS_22__hash_node_destructorINS6_ISE_EEEEE3getB7v160006Ev, symObjAddr: 0x328F4, symBinAddr: 0x100033FA4, symSize: 0x6C }
  - { offsetInCU: 0x3753E, offset: 0x3753E, size: 0x8, addend: 0x0, symName: __ZNSt3__110unique_ptrINS_11__hash_nodeINS_17__hash_value_typeINS_12basic_stringIcNS_11char_traitsIcEENS_9allocatorIcEEEENS_6vectorIiNS6_IiEEEEEEPvEENS_22__hash_node_destructorINS6_ISE_EEEEE7releaseB7v160006Ev, symObjAddr: 0x32960, symBinAddr: 0x100034010, symSize: 0xB8 }
  - { offsetInCU: 0x37573, offset: 0x37573, size: 0x8, addend: 0x0, symName: __ZNSt3__110unique_ptrINS_11__hash_nodeINS_17__hash_value_typeINS_12basic_stringIcNS_11char_traitsIcEENS_9allocatorIcEEEENS_6vectorIiNS6_IiEEEEEEPvEENS_22__hash_node_destructorINS6_ISE_EEEEED1B7v160006Ev, symObjAddr: 0x32A18, symBinAddr: 0x1000340C8, symSize: 0x2C }
  - { offsetInCU: 0x375A3, offset: 0x375A3, size: 0x8, addend: 0x0, symName: __ZNSt3__14pairINS_15__hash_iteratorIPNS_11__hash_nodeINS_17__hash_value_typeINS_12basic_stringIcNS_11char_traitsIcEENS_9allocatorIcEEEENS_6vectorIiNS7_IiEEEEEEPvEEEEbEC1B7v160006ISH_RbLSE_0EEEOT_OT0_, symObjAddr: 0x32A44, symBinAddr: 0x1000340F4, symSize: 0x3C }
  - { offsetInCU: 0x37601, offset: 0x37601, size: 0x8, addend: 0x0, symName: __ZNSt3__116allocator_traitsINS_9allocatorINS_11__hash_nodeINS_17__hash_value_typeINS_12basic_stringIcNS_11char_traitsIcEENS1_IcEEEENS_6vectorIiNS1_IiEEEEEEPvEEEEE8allocateB7v160006ERSF_m, symObjAddr: 0x32A80, symBinAddr: 0x100034130, symSize: 0x2C }
  - { offsetInCU: 0x37634, offset: 0x37634, size: 0x8, addend: 0x0, symName: __ZNSt3__122__hash_node_destructorINS_9allocatorINS_11__hash_nodeINS_17__hash_value_typeINS_12basic_stringIcNS_11char_traitsIcEENS1_IcEEEENS_6vectorIiNS1_IiEEEEEEPvEEEEEC1B7v160006ERSF_b, symObjAddr: 0x32AAC, symBinAddr: 0x10003415C, symSize: 0x48 }
  - { offsetInCU: 0x37682, offset: 0x37682, size: 0x8, addend: 0x0, symName: __ZNSt3__110unique_ptrINS_11__hash_nodeINS_17__hash_value_typeINS_12basic_stringIcNS_11char_traitsIcEENS_9allocatorIcEEEENS_6vectorIiNS6_IiEEEEEEPvEENS_22__hash_node_destructorINS6_ISE_EEEEEC1B7v160006ILb1EvEEPSE_NS_16__dependent_typeINS_27__unique_ptr_deleter_sfinaeISH_EEXT_EE20__good_rval_ref_typeE, symObjAddr: 0x32AF4, symBinAddr: 0x1000341A4, symSize: 0x3C }
  - { offsetInCU: 0x376D3, offset: 0x376D3, size: 0x8, addend: 0x0, symName: __ZNSt3__116allocator_traitsINS_9allocatorINS_11__hash_nodeINS_17__hash_value_typeINS_12basic_stringIcNS_11char_traitsIcEENS1_IcEEEENS_6vectorIiNS1_IiEEEEEEPvEEEEE9constructB7v160006INS_4pairIKS8_SB_EEJRKNS_21piecewise_construct_tENS_5tupleIJRSJ_EEENSO_IJEEEEvEEvRSF_PT_DpOT0_, symObjAddr: 0x32B30, symBinAddr: 0x1000341E0, symSize: 0x44 }
  - { offsetInCU: 0x37752, offset: 0x37752, size: 0x8, addend: 0x0, symName: __ZNSt3__110unique_ptrINS_11__hash_nodeINS_17__hash_value_typeINS_12basic_stringIcNS_11char_traitsIcEENS_9allocatorIcEEEENS_6vectorIiNS6_IiEEEEEEPvEENS_22__hash_node_destructorINS6_ISE_EEEEE11get_deleterB7v160006Ev, symObjAddr: 0x32B74, symBinAddr: 0x100034224, symSize: 0x24 }
  - { offsetInCU: 0x37778, offset: 0x37778, size: 0x8, addend: 0x0, symName: __ZNSt3__19allocatorINS_11__hash_nodeINS_17__hash_value_typeINS_12basic_stringIcNS_11char_traitsIcEENS0_IcEEEENS_6vectorIiNS0_IiEEEEEEPvEEE8allocateB7v160006Em, symObjAddr: 0x32B98, symBinAddr: 0x100034248, symSize: 0x5C }
  - { offsetInCU: 0x377B7, offset: 0x377B7, size: 0x8, addend: 0x0, symName: __ZNSt3__116allocator_traitsINS_9allocatorINS_11__hash_nodeINS_17__hash_value_typeINS_12basic_stringIcNS_11char_traitsIcEENS1_IcEEEENS_6vectorIiNS1_IiEEEEEEPvEEEEE8max_sizeB7v160006ISF_vEEmRKSF_, symObjAddr: 0x32BF4, symBinAddr: 0x1000342A4, symSize: 0x24 }
  - { offsetInCU: 0x377E5, offset: 0x377E5, size: 0x8, addend: 0x0, symName: __ZNKSt3__19allocatorINS_11__hash_nodeINS_17__hash_value_typeINS_12basic_stringIcNS_11char_traitsIcEENS0_IcEEEENS_6vectorIiNS0_IiEEEEEEPvEEE8max_sizeB7v160006Ev, symObjAddr: 0x32C18, symBinAddr: 0x1000342C8, symSize: 0x14 }
  - { offsetInCU: 0x3780B, offset: 0x3780B, size: 0x8, addend: 0x0, symName: __ZNSt3__122__hash_node_destructorINS_9allocatorINS_11__hash_nodeINS_17__hash_value_typeINS_12basic_stringIcNS_11char_traitsIcEENS1_IcEEEENS_6vectorIiNS1_IiEEEEEEPvEEEEEC2B7v160006ERSF_b, symObjAddr: 0x32C2C, symBinAddr: 0x1000342DC, symSize: 0xF0 }
  - { offsetInCU: 0x37853, offset: 0x37853, size: 0x8, addend: 0x0, symName: __ZNSt3__110unique_ptrINS_11__hash_nodeINS_17__hash_value_typeINS_12basic_stringIcNS_11char_traitsIcEENS_9allocatorIcEEEENS_6vectorIiNS6_IiEEEEEEPvEENS_22__hash_node_destructorINS6_ISE_EEEEEC2B7v160006ILb1EvEEPSE_NS_16__dependent_typeINS_27__unique_ptr_deleter_sfinaeISH_EEXT_EE20__good_rval_ref_typeE, symObjAddr: 0x32D1C, symBinAddr: 0x1000343CC, symSize: 0x21C }
  - { offsetInCU: 0x378AA, offset: 0x378AA, size: 0x8, addend: 0x0, symName: __ZNSt3__117__compressed_pairIPNS_11__hash_nodeINS_17__hash_value_typeINS_12basic_stringIcNS_11char_traitsIcEENS_9allocatorIcEEEENS_6vectorIiNS6_IiEEEEEEPvEENS_22__hash_node_destructorINS6_ISE_EEEEEC1B7v160006IRSF_SI_EEOT_OT0_, symObjAddr: 0x32F38, symBinAddr: 0x1000345E8, symSize: 0x3C }
  - { offsetInCU: 0x37902, offset: 0x37902, size: 0x8, addend: 0x0, symName: __ZNSt3__117__compressed_pairIPNS_11__hash_nodeINS_17__hash_value_typeINS_12basic_stringIcNS_11char_traitsIcEENS_9allocatorIcEEEENS_6vectorIiNS6_IiEEEEEEPvEENS_22__hash_node_destructorINS6_ISE_EEEEEC2B7v160006IRSF_SI_EEOT_OT0_, symObjAddr: 0x32F74, symBinAddr: 0x100034624, symSize: 0x48 }
  - { offsetInCU: 0x3795A, offset: 0x3795A, size: 0x8, addend: 0x0, symName: __ZNSt3__122__compressed_pair_elemIPNS_11__hash_nodeINS_17__hash_value_typeINS_12basic_stringIcNS_11char_traitsIcEENS_9allocatorIcEEEENS_6vectorIiNS6_IiEEEEEEPvEELi0ELb0EEC2B7v160006IRSF_vEEOT_, symObjAddr: 0x32FBC, symBinAddr: 0x10003466C, symSize: 0xB0 }
  - { offsetInCU: 0x3799C, offset: 0x3799C, size: 0x8, addend: 0x0, symName: __ZNSt3__122__compressed_pair_elemINS_22__hash_node_destructorINS_9allocatorINS_11__hash_nodeINS_17__hash_value_typeINS_12basic_stringIcNS_11char_traitsIcEENS2_IcEEEENS_6vectorIiNS2_IiEEEEEEPvEEEEEELi1ELb0EEC2B7v160006ISH_vEEOT_, symObjAddr: 0x3306C, symBinAddr: 0x10003471C, symSize: 0x38 }
  - { offsetInCU: 0x379DE, offset: 0x379DE, size: 0x8, addend: 0x0, symName: __ZNSt3__19allocatorINS_11__hash_nodeINS_17__hash_value_typeINS_12basic_stringIcNS_11char_traitsIcEENS0_IcEEEENS_6vectorIiNS0_IiEEEEEEPvEEE9constructB7v160006INS_4pairIKS7_SA_EEJRKNS_21piecewise_construct_tENS_5tupleIJRSH_EEENSM_IJEEEEEEvPT_DpOT0_, symObjAddr: 0x330A4, symBinAddr: 0x100034754, symSize: 0x214 }
  - { offsetInCU: 0x37A5F, offset: 0x37A5F, size: 0x8, addend: 0x0, symName: __ZNSt3__14pairIKNS_12basic_stringIcNS_11char_traitsIcEENS_9allocatorIcEEEENS_6vectorIiNS4_IiEEEEEC1B7v160006IJRS7_EJEEENS_21piecewise_construct_tENS_5tupleIJDpT_EEENSF_IJDpT0_EEE, symObjAddr: 0x332B8, symBinAddr: 0x100034968, symSize: 0x234 }
  - { offsetInCU: 0x37AD0, offset: 0x37AD0, size: 0x8, addend: 0x0, symName: __ZNSt3__14pairIKNS_12basic_stringIcNS_11char_traitsIcEENS_9allocatorIcEEEENS_6vectorIiNS4_IiEEEEEC1B7v160006IJRS7_EJEJLm0EEJEEENS_21piecewise_construct_tERNS_5tupleIJDpT_EEERNSF_IJDpT0_EEENS_15__tuple_indicesIJXspT1_EEEENSO_IJXspT2_EEEE, symObjAddr: 0x334EC, symBinAddr: 0x100034B9C, symSize: 0x3C }
  - { offsetInCU: 0x37B60, offset: 0x37B60, size: 0x8, addend: 0x0, symName: __ZNSt3__14pairIKNS_12basic_stringIcNS_11char_traitsIcEENS_9allocatorIcEEEENS_6vectorIiNS4_IiEEEEEC2B7v160006IJRS7_EJEJLm0EEJEEENS_21piecewise_construct_tERNS_5tupleIJDpT_EEERNSF_IJDpT0_EEENS_15__tuple_indicesIJXspT1_EEEENSO_IJXspT2_EEEE, symObjAddr: 0x33528, symBinAddr: 0x100034BD8, symSize: 0x50 }
  - { offsetInCU: 0x37BF0, offset: 0x37BF0, size: 0x8, addend: 0x0, symName: __ZNSt3__16vectorIiNS_9allocatorIiEEEC1B7v160006Ev, symObjAddr: 0x3359C, symBinAddr: 0x100034C4C, symSize: 0x2C }
  - { offsetInCU: 0x37C1A, offset: 0x37C1A, size: 0x8, addend: 0x0, symName: __ZNSt3__112__tuple_leafILm0ERKNS_12basic_stringIcNS_11char_traitsIcEENS_9allocatorIcEEEELb0EE3getB7v160006Ev, symObjAddr: 0x335C8, symBinAddr: 0x100034C78, symSize: 0x60 }
  - { offsetInCU: 0x37C40, offset: 0x37C40, size: 0x8, addend: 0x0, symName: __ZNSt3__16vectorIiNS_9allocatorIiEEEC2B7v160006Ev, symObjAddr: 0x33628, symBinAddr: 0x100034CD8, symSize: 0x2F0 }
  - { offsetInCU: 0x37C6B, offset: 0x37C6B, size: 0x8, addend: 0x0, symName: __ZNSt3__117__compressed_pairIPNS_11__hash_nodeINS_17__hash_value_typeINS_12basic_stringIcNS_11char_traitsIcEENS_9allocatorIcEEEENS_6vectorIiNS6_IiEEEEEEPvEENS_22__hash_node_destructorINS6_ISE_EEEEE6secondB7v160006Ev, symObjAddr: 0x33918, symBinAddr: 0x100034FC8, symSize: 0x28 }
  - { offsetInCU: 0x37C91, offset: 0x37C91, size: 0x8, addend: 0x0, symName: __ZNSt3__122__compressed_pair_elemINS_22__hash_node_destructorINS_9allocatorINS_11__hash_nodeINS_17__hash_value_typeINS_12basic_stringIcNS_11char_traitsIcEENS2_IcEEEENS_6vectorIiNS2_IiEEEEEEPvEEEEEELi1ELb0EE5__getB7v160006Ev, symObjAddr: 0x33940, symBinAddr: 0x100034FF0, symSize: 0x14 }
  - { offsetInCU: 0x37CB7, offset: 0x37CB7, size: 0x8, addend: 0x0, symName: __ZNSt3__117__compressed_pairImNS_22__unordered_map_hasherINS_12basic_stringIcNS_11char_traitsIcEENS_9allocatorIcEEEENS_17__hash_value_typeIS7_NS_6vectorIiNS5_IiEEEEEENS_4hashIS7_EENS_8equal_toIS7_EELb1EEEE5firstB7v160006Ev, symObjAddr: 0x33954, symBinAddr: 0x100035004, symSize: 0x24 }
  - { offsetInCU: 0x37CDD, offset: 0x37CDD, size: 0x8, addend: 0x0, symName: __ZNSt3__117__compressed_pairIfNS_21__unordered_map_equalINS_12basic_stringIcNS_11char_traitsIcEENS_9allocatorIcEEEENS_17__hash_value_typeIS7_NS_6vectorIiNS5_IiEEEEEENS_8equal_toIS7_EENS_4hashIS7_EELb1EEEE5firstB7v160006Ev, symObjAddr: 0x33978, symBinAddr: 0x100035028, symSize: 0x24 }
  - { offsetInCU: 0x37D03, offset: 0x37D03, size: 0x8, addend: 0x0, symName: __ZNSt3__122__compressed_pair_elemIfLi0ELb0EE5__getB7v160006Ev, symObjAddr: 0x3399C, symBinAddr: 0x10003504C, symSize: 0x14 }
  - { offsetInCU: 0x37D29, offset: 0x37D29, size: 0x8, addend: 0x0, symName: __ZNSt3__112__hash_tableINS_17__hash_value_typeINS_12basic_stringIcNS_11char_traitsIcEENS_9allocatorIcEEEENS_6vectorIiNS5_IiEEEEEENS_22__unordered_map_hasherIS7_SB_NS_4hashIS7_EENS_8equal_toIS7_EELb1EEENS_21__unordered_map_equalIS7_SB_SG_SE_Lb1EEENS5_ISB_EEE8__rehashILb1EEEvm, symObjAddr: 0x339B0, symBinAddr: 0x100035060, symSize: 0x784 }
  - { offsetInCU: 0x37D7F, offset: 0x37D7F, size: 0x8, addend: 0x0, symName: __ZNSt3__112__hash_tableINS_17__hash_value_typeINS_12basic_stringIcNS_11char_traitsIcEENS_9allocatorIcEEEENS_6vectorIiNS5_IiEEEEEENS_22__unordered_map_hasherIS7_SB_NS_4hashIS7_EENS_8equal_toIS7_EELb1EEENS_21__unordered_map_equalIS7_SB_SG_SE_Lb1EEENS5_ISB_EEE11__do_rehashILb1EEEvm, symObjAddr: 0x34134, symBinAddr: 0x1000357E4, symSize: 0x5C4 }
  - { offsetInCU: 0x37E68, offset: 0x37E68, size: 0x8, addend: 0x0, symName: __ZNSt3__110unique_ptrIA_PNS_16__hash_node_baseIPNS_11__hash_nodeINS_17__hash_value_typeINS_12basic_stringIcNS_11char_traitsIcEENS_9allocatorIcEEEENS_6vectorIiNS7_IiEEEEEEPvEEEENS_25__bucket_list_deallocatorINS7_ISI_EEEEE11get_deleterB7v160006Ev, symObjAddr: 0x34774, symBinAddr: 0x100035E24, symSize: 0x24 }
  - { offsetInCU: 0x37E8E, offset: 0x37E8E, size: 0x8, addend: 0x0, symName: __ZNSt3__110unique_ptrIA_PNS_16__hash_node_baseIPNS_11__hash_nodeINS_17__hash_value_typeINS_12basic_stringIcNS_11char_traitsIcEENS_9allocatorIcEEEENS_6vectorIiNS7_IiEEEEEEPvEEEENS_25__bucket_list_deallocatorINS7_ISI_EEEEE5resetB7v160006IPSI_EENS_9enable_ifIXsr28_CheckArrayPointerConversionIT_EE5valueEvE4typeESR_, symObjAddr: 0x34798, symBinAddr: 0x100035E48, symSize: 0xEC }
  - { offsetInCU: 0x37EDB, offset: 0x37EDB, size: 0x8, addend: 0x0, symName: __ZNSt3__116allocator_traitsINS_9allocatorIPNS_16__hash_node_baseIPNS_11__hash_nodeINS_17__hash_value_typeINS_12basic_stringIcNS_11char_traitsIcEENS1_IcEEEENS_6vectorIiNS1_IiEEEEEEPvEEEEEEE8allocateB7v160006ERSJ_m, symObjAddr: 0x34884, symBinAddr: 0x100035F34, symSize: 0x2C }
  - { offsetInCU: 0x37F0E, offset: 0x37F0E, size: 0x8, addend: 0x0, symName: __ZNSt3__19allocatorIPNS_16__hash_node_baseIPNS_11__hash_nodeINS_17__hash_value_typeINS_12basic_stringIcNS_11char_traitsIcEENS0_IcEEEENS_6vectorIiNS0_IiEEEEEEPvEEEEE8allocateB7v160006Em, symObjAddr: 0x348B0, symBinAddr: 0x100035F60, symSize: 0x5C }
  - { offsetInCU: 0x37F4D, offset: 0x37F4D, size: 0x8, addend: 0x0, symName: __ZNSt3__116allocator_traitsINS_9allocatorIPNS_16__hash_node_baseIPNS_11__hash_nodeINS_17__hash_value_typeINS_12basic_stringIcNS_11char_traitsIcEENS1_IcEEEENS_6vectorIiNS1_IiEEEEEEPvEEEEEEE8max_sizeB7v160006ISJ_vEEmRKSJ_, symObjAddr: 0x3490C, symBinAddr: 0x100035FBC, symSize: 0x24 }
  - { offsetInCU: 0x37F7B, offset: 0x37F7B, size: 0x8, addend: 0x0, symName: __ZNKSt3__19allocatorIPNS_16__hash_node_baseIPNS_11__hash_nodeINS_17__hash_value_typeINS_12basic_stringIcNS_11char_traitsIcEENS0_IcEEEENS_6vectorIiNS0_IiEEEEEEPvEEEEE8max_sizeB7v160006Ev, symObjAddr: 0x34930, symBinAddr: 0x100035FE0, symSize: 0x14 }
  - { offsetInCU: 0x37FA1, offset: 0x37FA1, size: 0x8, addend: 0x0, symName: __ZNKSt3__117__compressed_pairIPNS_11__hash_nodeINS_17__hash_value_typeINS_12basic_stringIcNS_11char_traitsIcEENS_9allocatorIcEEEENS_6vectorIiNS6_IiEEEEEEPvEENS_22__hash_node_destructorINS6_ISE_EEEEE5firstB7v160006Ev, symObjAddr: 0x34960, symBinAddr: 0x100036010, symSize: 0x24 }
  - { offsetInCU: 0x37FC7, offset: 0x37FC7, size: 0x8, addend: 0x0, symName: __ZNKSt3__122__compressed_pair_elemIPNS_11__hash_nodeINS_17__hash_value_typeINS_12basic_stringIcNS_11char_traitsIcEENS_9allocatorIcEEEENS_6vectorIiNS6_IiEEEEEEPvEELi0ELb0EE5__getB7v160006Ev, symObjAddr: 0x34984, symBinAddr: 0x100036034, symSize: 0x14 }
  - { offsetInCU: 0x37FED, offset: 0x37FED, size: 0x8, addend: 0x0, symName: __ZNSt3__117__compressed_pairIPNS_11__hash_nodeINS_17__hash_value_typeINS_12basic_stringIcNS_11char_traitsIcEENS_9allocatorIcEEEENS_6vectorIiNS6_IiEEEEEEPvEENS_22__hash_node_destructorINS6_ISE_EEEEE5firstB7v160006Ev, symObjAddr: 0x34998, symBinAddr: 0x100036048, symSize: 0x24 }
  - { offsetInCU: 0x38013, offset: 0x38013, size: 0x8, addend: 0x0, symName: __ZNSt3__122__compressed_pair_elemIPNS_11__hash_nodeINS_17__hash_value_typeINS_12basic_stringIcNS_11char_traitsIcEENS_9allocatorIcEEEENS_6vectorIiNS6_IiEEEEEEPvEELi0ELb0EE5__getB7v160006Ev, symObjAddr: 0x349BC, symBinAddr: 0x10003606C, symSize: 0x14 }
  - { offsetInCU: 0x38039, offset: 0x38039, size: 0x8, addend: 0x0, symName: __ZNSt3__110unique_ptrINS_11__hash_nodeINS_17__hash_value_typeINS_12basic_stringIcNS_11char_traitsIcEENS_9allocatorIcEEEENS_6vectorIiNS6_IiEEEEEEPvEENS_22__hash_node_destructorINS6_ISE_EEEEED2B7v160006Ev, symObjAddr: 0x349D0, symBinAddr: 0x100036080, symSize: 0x30 }
  - { offsetInCU: 0x38063, offset: 0x38063, size: 0x8, addend: 0x0, symName: __ZNSt3__110unique_ptrINS_11__hash_nodeINS_17__hash_value_typeINS_12basic_stringIcNS_11char_traitsIcEENS_9allocatorIcEEEENS_6vectorIiNS6_IiEEEEEEPvEENS_22__hash_node_destructorINS6_ISE_EEEEE5resetB7v160006EPSE_, symObjAddr: 0x34A00, symBinAddr: 0x1000360B0, symSize: 0xEC }
  - { offsetInCU: 0x380A7, offset: 0x380A7, size: 0x8, addend: 0x0, symName: __ZNSt3__122__hash_node_destructorINS_9allocatorINS_11__hash_nodeINS_17__hash_value_typeINS_12basic_stringIcNS_11char_traitsIcEENS1_IcEEEENS_6vectorIiNS1_IiEEEEEEPvEEEEEclB7v160006EPSE_, symObjAddr: 0x34AEC, symBinAddr: 0x10003619C, symSize: 0x164 }
  - { offsetInCU: 0x380DC, offset: 0x380DC, size: 0x8, addend: 0x0, symName: __ZNSt3__14pairINS_15__hash_iteratorIPNS_11__hash_nodeINS_17__hash_value_typeINS_12basic_stringIcNS_11char_traitsIcEENS_9allocatorIcEEEENS_6vectorIiNS7_IiEEEEEEPvEEEEbEC2B7v160006ISH_RbLSE_0EEEOT_OT0_, symObjAddr: 0x34C50, symBinAddr: 0x100036300, symSize: 0x120 }
  - { offsetInCU: 0x3813A, offset: 0x3813A, size: 0x8, addend: 0x0, symName: __ZNSt3__15tupleIJRKNS_12basic_stringIcNS_11char_traitsIcEENS_9allocatorIcEEEEEEC1B7v160006INS_4_AndELi0EEES8_, symObjAddr: 0x34D70, symBinAddr: 0x100036420, symSize: 0x34 }
  - { offsetInCU: 0x38182, offset: 0x38182, size: 0x8, addend: 0x0, symName: __ZNSt3__15tupleIJRKNS_12basic_stringIcNS_11char_traitsIcEENS_9allocatorIcEEEEEEC2B7v160006INS_4_AndELi0EEES8_, symObjAddr: 0x34DA4, symBinAddr: 0x100036454, symSize: 0x34 }
  - { offsetInCU: 0x381CA, offset: 0x381CA, size: 0x8, addend: 0x0, symName: __ZNSt3__112__tuple_implINS_15__tuple_indicesIJLm0EEEEJRKNS_12basic_stringIcNS_11char_traitsIcEENS_9allocatorIcEEEEEEC1B7v160006IJLm0EEJSA_EJEJEJSA_EEENS1_IJXspT_EEEENS_13__tuple_typesIJDpT0_EEENS1_IJXspT1_EEEENSE_IJDpT2_EEEDpOT3_, symObjAddr: 0x34DD8, symBinAddr: 0x100036488, symSize: 0x34 }
  - { offsetInCU: 0x3825F, offset: 0x3825F, size: 0x8, addend: 0x0, symName: __ZNSt3__112__tuple_implINS_15__tuple_indicesIJLm0EEEEJRKNS_12basic_stringIcNS_11char_traitsIcEENS_9allocatorIcEEEEEEC2B7v160006IJLm0EEJSA_EJEJEJSA_EEENS1_IJXspT_EEEENS_13__tuple_typesIJDpT0_EEENS1_IJXspT1_EEEENSE_IJDpT2_EEEDpOT3_, symObjAddr: 0x34E0C, symBinAddr: 0x1000364BC, symSize: 0x34 }
  - { offsetInCU: 0x382F4, offset: 0x382F4, size: 0x8, addend: 0x0, symName: __ZNSt3__112__tuple_leafILm0ERKNS_12basic_stringIcNS_11char_traitsIcEENS_9allocatorIcEEEELb0EEC2B7v160006IS8_vEEOT_, symObjAddr: 0x34E40, symBinAddr: 0x1000364F0, symSize: 0x70 }
  - { offsetInCU: 0x38337, offset: 0x38337, size: 0x8, addend: 0x0, symName: __ZNSt3__16vectorIiNS_9allocatorIiEEE13__move_assignERS3_NS_17integral_constantIbLb1EEE, symObjAddr: 0x34EB0, symBinAddr: 0x100036560, symSize: 0x2AC }
  - { offsetInCU: 0x3837A, offset: 0x3837A, size: 0x8, addend: 0x0, symName: __ZNSt3__16vectorIiNS_9allocatorIiEEE13__vdeallocateEv, symObjAddr: 0x3515C, symBinAddr: 0x10003680C, symSize: 0x18C }
  - { offsetInCU: 0x383A2, offset: 0x383A2, size: 0x8, addend: 0x0, symName: __ZNSt3__16vectorIiNS_9allocatorIiEEE19__move_assign_allocB7v160006ERS3_, symObjAddr: 0x352E8, symBinAddr: 0x100036998, symSize: 0x2C }
  - { offsetInCU: 0x383D7, offset: 0x383D7, size: 0x8, addend: 0x0, symName: __ZNSt3__16vectorIiNS_9allocatorIiEEE5clearB7v160006Ev, symObjAddr: 0x35328, symBinAddr: 0x1000369D8, symSize: 0x4C }
  - { offsetInCU: 0x3840C, offset: 0x3840C, size: 0x8, addend: 0x0, symName: __ZNSt3__16vectorIiNS_9allocatorIiEEE19__move_assign_allocB7v160006ERS3_NS_17integral_constantIbLb1EEE, symObjAddr: 0x35374, symBinAddr: 0x100036A24, symSize: 0x38 }
  - { offsetInCU: 0x3844D, offset: 0x3844D, size: 0x8, addend: 0x0, symName: __ZNKSt3__112__hash_tableINS_17__hash_value_typeINS_12basic_stringIcNS_11char_traitsIcEENS_9allocatorIcEEEENS_6vectorIiNS5_IiEEEEEENS_22__unordered_map_hasherIS7_SB_NS_4hashIS7_EENS_8equal_toIS7_EELb1EEENS_21__unordered_map_equalIS7_SB_SG_SE_Lb1EEENS5_ISB_EEE4sizeB7v160006Ev, symObjAddr: 0x353AC, symBinAddr: 0x100036A5C, symSize: 0x70 }
  - { offsetInCU: 0x38473, offset: 0x38473, size: 0x8, addend: 0x0, symName: __ZNKSt3__117__compressed_pairImNS_22__unordered_map_hasherINS_12basic_stringIcNS_11char_traitsIcEENS_9allocatorIcEEEENS_17__hash_value_typeIS7_NS_6vectorIiNS5_IiEEEEEENS_4hashIS7_EENS_8equal_toIS7_EELb1EEEE5firstB7v160006Ev, symObjAddr: 0x3541C, symBinAddr: 0x100036ACC, symSize: 0x24 }
  - { offsetInCU: 0x38499, offset: 0x38499, size: 0x8, addend: 0x0, symName: __ZNSt3__113unordered_mapINS_12basic_stringIcNS_11char_traitsIcEENS_9allocatorIcEEEENS_6vectorIiNS4_IiEEEENS_4hashIS6_EENS_8equal_toIS6_EENS4_INS_4pairIKS6_S9_EEEEE5beginB7v160006Ev, symObjAddr: 0x35440, symBinAddr: 0x100036AF0, symSize: 0x2B4 }
  - { offsetInCU: 0x384C0, offset: 0x384C0, size: 0x8, addend: 0x0, symName: __ZNKSt3__119__hash_map_iteratorINS_15__hash_iteratorIPNS_11__hash_nodeINS_17__hash_value_typeINS_12basic_stringIcNS_11char_traitsIcEENS_9allocatorIcEEEENS_6vectorIiNS7_IiEEEEEEPvEEEEEdeB7v160006Ev, symObjAddr: 0x356F4, symBinAddr: 0x100036DA4, symSize: 0x28 }
  - { offsetInCU: 0x384E6, offset: 0x384E6, size: 0x8, addend: 0x0, symName: __ZNKSt3__16vectorIiNS_9allocatorIiEEE5beginB7v160006Ev, symObjAddr: 0x3571C, symBinAddr: 0x100036DCC, symSize: 0x268 }
  - { offsetInCU: 0x3850F, offset: 0x3850F, size: 0x8, addend: 0x0, symName: __ZNKSt3__16vectorIiNS_9allocatorIiEEE3endB7v160006Ev, symObjAddr: 0x35984, symBinAddr: 0x100037034, symSize: 0x26C }
  - { offsetInCU: 0x38538, offset: 0x38538, size: 0x8, addend: 0x0, symName: __ZNKSt3__111__wrap_iterIPKiEdeB7v160006Ev, symObjAddr: 0x35C24, symBinAddr: 0x1000372D4, symSize: 0x60 }
  - { offsetInCU: 0x3855E, offset: 0x3855E, size: 0x8, addend: 0x0, symName: __ZNSt3__111__wrap_iterIPKiEppB7v160006Ev, symObjAddr: 0x35C84, symBinAddr: 0x100037334, symSize: 0x68 }
  - { offsetInCU: 0x38584, offset: 0x38584, size: 0x8, addend: 0x0, symName: __ZNSt3__119__hash_map_iteratorINS_15__hash_iteratorIPNS_11__hash_nodeINS_17__hash_value_typeINS_12basic_stringIcNS_11char_traitsIcEENS_9allocatorIcEEEENS_6vectorIiNS7_IiEEEEEEPvEEEEEppB7v160006Ev, symObjAddr: 0x35CEC, symBinAddr: 0x10003739C, symSize: 0x2C }
  - { offsetInCU: 0x385AA, offset: 0x385AA, size: 0x8, addend: 0x0, symName: __ZNSt3__113unordered_mapINS_12basic_stringIcNS_11char_traitsIcEENS_9allocatorIcEEEENS_6vectorIiNS4_IiEEEENS_4hashIS6_EENS_8equal_toIS6_EENS4_INS_4pairIKS6_S9_EEEEEaSEOSI_, symObjAddr: 0x35D18, symBinAddr: 0x1000373C8, symSize: 0x34 }
  - { offsetInCU: 0x385E1, offset: 0x385E1, size: 0x8, addend: 0x0, symName: __ZNSt3__112__hash_tableINS_17__hash_value_typeINS_12basic_stringIcNS_11char_traitsIcEENS_9allocatorIcEEEENS_6vectorIiNS5_IiEEEEEENS_22__unordered_map_hasherIS7_SB_NS_4hashIS7_EENS_8equal_toIS7_EELb1EEENS_21__unordered_map_equalIS7_SB_SG_SE_Lb1EEENS5_ISB_EEE5beginEv, symObjAddr: 0x35D4C, symBinAddr: 0x1000373FC, symSize: 0x244 }
  - { offsetInCU: 0x3860A, offset: 0x3860A, size: 0x8, addend: 0x0, symName: __ZNKSt3__16vectorIiNS_9allocatorIiEEE11__make_iterB7v160006EPKi, symObjAddr: 0x35F90, symBinAddr: 0x100037640, symSize: 0x200 }
  - { offsetInCU: 0x38641, offset: 0x38641, size: 0x8, addend: 0x0, symName: __ZNSt3__111__wrap_iterIPKiEC1B7v160006EPKvS2_, symObjAddr: 0x36190, symBinAddr: 0x100037840, symSize: 0x3C }
  - { offsetInCU: 0x38687, offset: 0x38687, size: 0x8, addend: 0x0, symName: __ZNSt3__111__wrap_iterIPKiEC2B7v160006EPKvS2_, symObjAddr: 0x361CC, symBinAddr: 0x10003787C, symSize: 0x74 }
  - { offsetInCU: 0x386CD, offset: 0x386CD, size: 0x8, addend: 0x0, symName: __ZNKSt3__111__wrap_iterIPKiE4baseB7v160006Ev, symObjAddr: 0x36288, symBinAddr: 0x100037938, symSize: 0x60 }
  - { offsetInCU: 0x386F3, offset: 0x386F3, size: 0x8, addend: 0x0, symName: __ZNSt3__115__hash_iteratorIPNS_11__hash_nodeINS_17__hash_value_typeINS_12basic_stringIcNS_11char_traitsIcEENS_9allocatorIcEEEENS_6vectorIiNS6_IiEEEEEEPvEEEppB7v160006Ev, symObjAddr: 0x362E8, symBinAddr: 0x100037998, symSize: 0xDC }
  - { offsetInCU: 0x38719, offset: 0x38719, size: 0x8, addend: 0x0, symName: __ZNSt3__112__hash_tableINS_17__hash_value_typeINS_12basic_stringIcNS_11char_traitsIcEENS_9allocatorIcEEEENS_6vectorIiNS5_IiEEEEEENS_22__unordered_map_hasherIS7_SB_NS_4hashIS7_EENS_8equal_toIS7_EELb1EEENS_21__unordered_map_equalIS7_SB_SG_SE_Lb1EEENS5_ISB_EEEaSEOSL_, symObjAddr: 0x363C4, symBinAddr: 0x100037A74, symSize: 0x34 }
  - { offsetInCU: 0x38750, offset: 0x38750, size: 0x8, addend: 0x0, symName: __ZNSt3__112__hash_tableINS_17__hash_value_typeINS_12basic_stringIcNS_11char_traitsIcEENS_9allocatorIcEEEENS_6vectorIiNS5_IiEEEEEENS_22__unordered_map_hasherIS7_SB_NS_4hashIS7_EENS_8equal_toIS7_EELb1EEENS_21__unordered_map_equalIS7_SB_SG_SE_Lb1EEENS5_ISB_EEE13__move_assignERSL_NS_17integral_constantIbLb1EEE, symObjAddr: 0x363F8, symBinAddr: 0x100037AA8, symSize: 0x500 }
  - { offsetInCU: 0x38793, offset: 0x38793, size: 0x8, addend: 0x0, symName: __ZNSt3__112__hash_tableINS_17__hash_value_typeINS_12basic_stringIcNS_11char_traitsIcEENS_9allocatorIcEEEENS_6vectorIiNS5_IiEEEEEENS_22__unordered_map_hasherIS7_SB_NS_4hashIS7_EENS_8equal_toIS7_EELb1EEENS_21__unordered_map_equalIS7_SB_SG_SE_Lb1EEENS5_ISB_EEE5clearEv, symObjAddr: 0x368F8, symBinAddr: 0x100037FA8, symSize: 0x1DC }
  - { offsetInCU: 0x387F7, offset: 0x387F7, size: 0x8, addend: 0x0, symName: __ZNSt3__110unique_ptrIA_PNS_16__hash_node_baseIPNS_11__hash_nodeINS_17__hash_value_typeINS_12basic_stringIcNS_11char_traitsIcEENS_9allocatorIcEEEENS_6vectorIiNS7_IiEEEEEEPvEEEENS_25__bucket_list_deallocatorINS7_ISI_EEEEE7releaseB7v160006Ev, symObjAddr: 0x36AD4, symBinAddr: 0x100038184, symSize: 0xB8 }
  - { offsetInCU: 0x3882C, offset: 0x3882C, size: 0x8, addend: 0x0, symName: __ZNSt3__112__hash_tableINS_17__hash_value_typeINS_12basic_stringIcNS_11char_traitsIcEENS_9allocatorIcEEEENS_6vectorIiNS5_IiEEEEEENS_22__unordered_map_hasherIS7_SB_NS_4hashIS7_EENS_8equal_toIS7_EELb1EEENS_21__unordered_map_equalIS7_SB_SG_SE_Lb1EEENS5_ISB_EEE19__move_assign_allocB7v160006ERSL_, symObjAddr: 0x36B8C, symBinAddr: 0x10003823C, symSize: 0x2C }
  - { offsetInCU: 0x38861, offset: 0x38861, size: 0x8, addend: 0x0, symName: __ZNSt3__112__hash_tableINS_17__hash_value_typeINS_12basic_stringIcNS_11char_traitsIcEENS_9allocatorIcEEEENS_6vectorIiNS5_IiEEEEEENS_22__unordered_map_hasherIS7_SB_NS_4hashIS7_EENS_8equal_toIS7_EELb1EEENS_21__unordered_map_equalIS7_SB_SG_SE_Lb1EEENS5_ISB_EEE19__move_assign_allocB7v160006ERSL_NS_17integral_constantIbLb1EEE, symObjAddr: 0x36BCC, symBinAddr: 0x10003827C, symSize: 0x50 }
  - { offsetInCU: 0x388A2, offset: 0x388A2, size: 0x8, addend: 0x0, symName: __ZNSt3__120__shared_ptr_emplaceI15WordCountMapperINS_12basic_stringIcNS_11char_traitsIcEENS_9allocatorIcEEEES7_S7_iENS5_IS8_EEE8_StorageD2B7v160006Ev, symObjAddr: 0x36C1C, symBinAddr: 0x1000382CC, symSize: 0x2C }
  - { offsetInCU: 0x388CC, offset: 0x388CC, size: 0x8, addend: 0x0, symName: __ZNSt3__120__shared_ptr_emplaceI15WordCountMapperINS_12basic_stringIcNS_11char_traitsIcEENS_9allocatorIcEEEES7_S7_iENS5_IS8_EEED2Ev, symObjAddr: 0x36C48, symBinAddr: 0x1000382F8, symSize: 0x88 }
  - { offsetInCU: 0x388F9, offset: 0x388F9, size: 0x8, addend: 0x0, symName: __ZN15WordCountMapperINSt3__112basic_stringIcNS0_11char_traitsIcEENS0_9allocatorIcEEEES6_S6_iED1Ev, symObjAddr: 0x36CD0, symBinAddr: 0x100038380, symSize: 0x2C }
  - { offsetInCU: 0x38925, offset: 0x38925, size: 0x8, addend: 0x0, symName: __ZN15WordCountMapperINSt3__112basic_stringIcNS0_11char_traitsIcEENS0_9allocatorIcEEEES6_S6_iED2Ev, symObjAddr: 0x36CFC, symBinAddr: 0x1000383AC, symSize: 0x2C }
  - { offsetInCU: 0x38951, offset: 0x38951, size: 0x8, addend: 0x0, symName: __ZN6MapperINSt3__112basic_stringIcNS0_11char_traitsIcEENS0_9allocatorIcEEEES6_S6_iED2Ev, symObjAddr: 0x36D28, symBinAddr: 0x1000383D8, symSize: 0x80 }
  - { offsetInCU: 0x3897D, offset: 0x3897D, size: 0x8, addend: 0x0, symName: __ZN4PairINSt3__112basic_stringIcNS0_11char_traitsIcEENS0_9allocatorIcEEEEiED1Ev, symObjAddr: 0x36DA8, symBinAddr: 0x100038458, symSize: 0x2C }
  - { offsetInCU: 0x389A7, offset: 0x389A7, size: 0x8, addend: 0x0, symName: __ZN4PairINSt3__112basic_stringIcNS0_11char_traitsIcEENS0_9allocatorIcEEEEiED2Ev, symObjAddr: 0x36DD4, symBinAddr: 0x100038484, symSize: 0x64 }
  - { offsetInCU: 0x389D1, offset: 0x389D1, size: 0x8, addend: 0x0, symName: __ZNSt3__120__shared_ptr_emplaceI15WordCountMapperINS_12basic_stringIcNS_11char_traitsIcEENS_9allocatorIcEEEES7_S7_iENS5_IS8_EEE11__get_allocB7v160006Ev, symObjAddr: 0x36E38, symBinAddr: 0x1000384E8, symSize: 0x28 }
  - { offsetInCU: 0x389F7, offset: 0x389F7, size: 0x8, addend: 0x0, symName: __ZNSt3__116allocator_traitsINS_9allocatorINS_20__shared_ptr_emplaceI15WordCountMapperINS_12basic_stringIcNS_11char_traitsIcEENS1_IcEEEES8_S8_iENS1_IS9_EEEEEEE10deallocateB7v160006ERSC_PSB_m, symObjAddr: 0x36E60, symBinAddr: 0x100038510, symSize: 0x34 }
  - { offsetInCU: 0x38A39, offset: 0x38A39, size: 0x8, addend: 0x0, symName: __ZNSt3__114pointer_traitsIPNS_20__shared_ptr_emplaceI15WordCountMapperINS_12basic_stringIcNS_11char_traitsIcEENS_9allocatorIcEEEES8_S8_iENS6_IS9_EEEEE10pointer_toB7v160006ERSB_, symObjAddr: 0x36E94, symBinAddr: 0x100038544, symSize: 0x14 }
  - { offsetInCU: 0x38A5C, offset: 0x38A5C, size: 0x8, addend: 0x0, symName: __ZNSt3__19allocatorINS_20__shared_ptr_emplaceI15WordCountMapperINS_12basic_stringIcNS_11char_traitsIcEENS0_IcEEEES7_S7_iENS0_IS8_EEEEE10deallocateB7v160006EPSA_m, symObjAddr: 0x36EA8, symBinAddr: 0x100038558, symSize: 0x50 }
  - { offsetInCU: 0x38A9E, offset: 0x38A9E, size: 0x8, addend: 0x0, symName: __ZNSt3__110shared_ptrI15WordCountMapperINS_12basic_stringIcNS_11char_traitsIcEENS_9allocatorIcEEEES7_S7_iEEC1B7v160006Ev, symObjAddr: 0x36EF8, symBinAddr: 0x1000385A8, symSize: 0x2C }
  - { offsetInCU: 0x38AC8, offset: 0x38AC8, size: 0x8, addend: 0x0, symName: __ZNSt3__110shared_ptrI15WordCountMapperINS_12basic_stringIcNS_11char_traitsIcEENS_9allocatorIcEEEES7_S7_iEE18__enable_weak_thisB7v160006Ez, symObjAddr: 0x36F24, symBinAddr: 0x1000385D4, symSize: 0x10 }
  - { offsetInCU: 0x38AEF, offset: 0x38AEF, size: 0x8, addend: 0x0, symName: __ZNSt3__110shared_ptrI15WordCountMapperINS_12basic_stringIcNS_11char_traitsIcEENS_9allocatorIcEEEES7_S7_iEEC2B7v160006Ev, symObjAddr: 0x36F34, symBinAddr: 0x1000385E4, symSize: 0x9C }
  - { offsetInCU: 0x38B19, offset: 0x38B19, size: 0x8, addend: 0x0, symName: __ZNSt3__120__shared_ptr_emplaceI15WordCountMapperINS_12basic_stringIcNS_11char_traitsIcEENS_9allocatorIcEEEES7_S7_iENS5_IS8_EEE8_Storage10__get_elemEv, symObjAddr: 0x36FD0, symBinAddr: 0x100038680, symSize: 0x3C }
  - { offsetInCU: 0x38B6C, offset: 0x38B6C, size: 0x8, addend: 0x0, symName: __ZNSt3__117__compressed_pairINS_9allocatorI15WordCountMapperINS_12basic_stringIcNS_11char_traitsIcEENS1_IcEEEES7_S7_iEEES8_E17__get_second_baseB7v160006EPSA_, symObjAddr: 0x3700C, symBinAddr: 0x1000386BC, symSize: 0x14 }
  - { offsetInCU: 0x38B8F, offset: 0x38B8F, size: 0x8, addend: 0x0, symName: __ZNSt3__118__allocation_guardINS_9allocatorINS_20__shared_ptr_emplaceI15WordCountMapperINS_12basic_stringIcNS_11char_traitsIcEENS1_IcEEEES8_S8_iENS1_IS9_EEEEEEED2B7v160006Ev, symObjAddr: 0x37020, symBinAddr: 0x1000386D0, symSize: 0x108 }
  - { offsetInCU: 0x38BB9, offset: 0x38BB9, size: 0x8, addend: 0x0, symName: __ZNSt3__19allocatorI15WordCountMapperINS_12basic_stringIcNS_11char_traitsIcEENS0_IcEEEES6_S6_iEEC2B7v160006Ev, symObjAddr: 0x37128, symBinAddr: 0x1000387D8, symSize: 0x2C }
  - { offsetInCU: 0x38BE3, offset: 0x38BE3, size: 0x8, addend: 0x0, symName: __ZNSt3__116__non_trivial_ifILb1ENS_9allocatorI15WordCountMapperINS_12basic_stringIcNS_11char_traitsIcEENS1_IcEEEES7_S7_iEEEEC2B7v160006Ev, symObjAddr: 0x37154, symBinAddr: 0x100038804, symSize: 0x14 }
  - { offsetInCU: 0x38C0D, offset: 0x38C0D, size: 0x8, addend: 0x0, symName: __ZNSt3__110shared_ptrI15WordCountMapperINS_12basic_stringIcNS_11char_traitsIcEENS_9allocatorIcEEEES7_S7_iEED2B7v160006Ev, symObjAddr: 0x37168, symBinAddr: 0x100038818, symSize: 0xC8 }
  - { offsetInCU: 0x38C37, offset: 0x38C37, size: 0x8, addend: 0x0, symName: __ZN4PairINSt3__112basic_stringIcNS0_11char_traitsIcEENS0_9allocatorIcEEEEiE13setOutputPathES6_, symObjAddr: 0x37230, symBinAddr: 0x1000388E0, symSize: 0x30 }
  - { offsetInCU: 0x38C6C, offset: 0x38C6C, size: 0x8, addend: 0x0, symName: __ZNSt3__110shared_ptrI15WordCountMapperINS_12basic_stringIcNS_11char_traitsIcEENS_9allocatorIcEEEES7_S7_iEEC2B7v160006ERKS9_, symObjAddr: 0x37260, symBinAddr: 0x100038910, symSize: 0x1CC }
  - { offsetInCU: 0x38CA5, offset: 0x38CA5, size: 0x8, addend: 0x0, symName: __ZNSt3__16vectorINS_6threadENS_9allocatorIS1_EEE9__end_capB7v160006Ev, symObjAddr: 0x3742C, symBinAddr: 0x100038ADC, symSize: 0x28 }
  - { offsetInCU: 0x38CCB, offset: 0x38CCB, size: 0x8, addend: 0x0, symName: '__ZNSt3__16vectorINS_6threadENS_9allocatorIS1_EEE22__construct_one_at_endB7v160006IJZ4mainE3$_0EEEvDpOT_', symObjAddr: 0x37454, symBinAddr: 0x100038B04, symSize: 0x36C }
  - { offsetInCU: 0x38D20, offset: 0x38D20, size: 0x8, addend: 0x0, symName: '__ZNSt3__16vectorINS_6threadENS_9allocatorIS1_EEE24__emplace_back_slow_pathIJZ4mainE3$_0EEEvDpOT_', symObjAddr: 0x377C0, symBinAddr: 0x100038E70, symSize: 0x3C0 }
  - { offsetInCU: 0x38D87, offset: 0x38D87, size: 0x8, addend: 0x0, symName: __ZNSt3__16vectorINS_6threadENS_9allocatorIS1_EEE4backB7v160006Ev, symObjAddr: 0x37B80, symBinAddr: 0x100039230, symSize: 0x68 }
  - { offsetInCU: 0x38DAD, offset: 0x38DAD, size: 0x8, addend: 0x0, symName: __ZNSt3__117__compressed_pairIPNS_6threadENS_9allocatorIS1_EEE5firstB7v160006Ev, symObjAddr: 0x37BE8, symBinAddr: 0x100039298, symSize: 0x24 }
  - { offsetInCU: 0x38DD3, offset: 0x38DD3, size: 0x8, addend: 0x0, symName: __ZNSt3__122__compressed_pair_elemIPNS_6threadELi0ELb0EE5__getB7v160006Ev, symObjAddr: 0x37C0C, symBinAddr: 0x1000392BC, symSize: 0x14 }
  - { offsetInCU: 0x38E15, offset: 0x38E15, size: 0x8, addend: 0x0, symName: __ZNSt3__16vectorINS_6threadENS_9allocatorIS1_EEE21_ConstructTransactionC1B7v160006ERS4_m, symObjAddr: 0x37C20, symBinAddr: 0x1000392D0, symSize: 0x3C }
  - { offsetInCU: 0x38E5D, offset: 0x38E5D, size: 0x8, addend: 0x0, symName: '__ZNSt3__116allocator_traitsINS_9allocatorINS_6threadEEEE9constructB7v160006IS2_JZ4mainE3$_0EvEEvRS3_PT_DpOT0_', symObjAddr: 0x37C5C, symBinAddr: 0x10003930C, symSize: 0x34 }
  - { offsetInCU: 0x38EB4, offset: 0x38EB4, size: 0x8, addend: 0x0, symName: __ZNSt3__16vectorINS_6threadENS_9allocatorIS1_EEE21_ConstructTransactionD1B7v160006Ev, symObjAddr: 0x37C90, symBinAddr: 0x100039340, symSize: 0x2C }
  - { offsetInCU: 0x38EDE, offset: 0x38EDE, size: 0x8, addend: 0x0, symName: __ZNSt3__16vectorINS_6threadENS_9allocatorIS1_EEE21_ConstructTransactionC2B7v160006ERS4_m, symObjAddr: 0x37CBC, symBinAddr: 0x10003936C, symSize: 0x1D0 }
  - { offsetInCU: 0x38F26, offset: 0x38F26, size: 0x8, addend: 0x0, symName: __ZNKSt3__16vectorINS_6threadENS_9allocatorIS1_EEE19__annotate_increaseB7v160006Em, symObjAddr: 0x37E8C, symBinAddr: 0x10003953C, symSize: 0xD8 }
  - { offsetInCU: 0x38F5B, offset: 0x38F5B, size: 0x8, addend: 0x0, symName: '__ZNSt3__19allocatorINS_6threadEE9constructB7v160006IS1_JZ4mainE3$_0EEEvPT_DpOT0_', symObjAddr: 0x37F64, symBinAddr: 0x100039614, symSize: 0x30 }
  - { offsetInCU: 0x38FB1, offset: 0x38FB1, size: 0x8, addend: 0x0, symName: '__ZNSt3__16threadC1IZ4mainE3$_0JEvEEOT_DpOT0_', symObjAddr: 0x37F94, symBinAddr: 0x100039644, symSize: 0x34 }
  - { offsetInCU: 0x38FF9, offset: 0x38FF9, size: 0x8, addend: 0x0, symName: '__ZNSt3__16threadC2IZ4mainE3$_0JEvEEOT_DpOT0_', symObjAddr: 0x37FC8, symBinAddr: 0x100039678, symSize: 0x404 }
  - { offsetInCU: 0x3907F, offset: 0x3907F, size: 0x8, addend: 0x0, symName: __ZNSt3__110unique_ptrINS_15__thread_structENS_14default_deleteIS1_EEEC1B7v160006ILb1EvEEPS1_, symObjAddr: 0x383CC, symBinAddr: 0x100039A7C, symSize: 0x34 }
  - { offsetInCU: 0x390C2, offset: 0x390C2, size: 0x8, addend: 0x0, symName: '__ZNSt3__15tupleIJNS_10unique_ptrINS_15__thread_structENS_14default_deleteIS2_EEEEZ4mainE3$_0EEC1B7v160006IJS5_S6_ELi0EEEDpOT_', symObjAddr: 0x38400, symBinAddr: 0x100039AB0, symSize: 0x3C }
  - { offsetInCU: 0x391C7, offset: 0x391C7, size: 0x8, addend: 0x0, symName: '__ZNSt3__110unique_ptrINS_5tupleIJNS0_INS_15__thread_structENS_14default_deleteIS2_EEEEZ4mainE3$_0EEENS3_IS7_EEEC1B7v160006ILb1EvEEPS7_', symObjAddr: 0x3843C, symBinAddr: 0x100039AEC, symSize: 0x34 }
  - { offsetInCU: 0x3920A, offset: 0x3920A, size: 0x8, addend: 0x0, symName: '__ZNKSt3__110unique_ptrINS_5tupleIJNS0_INS_15__thread_structENS_14default_deleteIS2_EEEEZ4mainE3$_0EEENS3_IS7_EEE3getB7v160006Ev', symObjAddr: 0x3875C, symBinAddr: 0x100039E0C, symSize: 0x6C }
  - { offsetInCU: 0x39230, offset: 0x39230, size: 0x8, addend: 0x0, symName: '__ZNSt3__110unique_ptrINS_5tupleIJNS0_INS_15__thread_structENS_14default_deleteIS2_EEEEZ4mainE3$_0EEENS3_IS7_EEE7releaseB7v160006Ev', symObjAddr: 0x387C8, symBinAddr: 0x100039E78, symSize: 0xB8 }
  - { offsetInCU: 0x39265, offset: 0x39265, size: 0x8, addend: 0x0, symName: '__ZNSt3__110unique_ptrINS_5tupleIJNS0_INS_15__thread_structENS_14default_deleteIS2_EEEEZ4mainE3$_0EEENS3_IS7_EEED1B7v160006Ev', symObjAddr: 0x38880, symBinAddr: 0x100039F30, symSize: 0x2C }
  - { offsetInCU: 0x3928F, offset: 0x3928F, size: 0x8, addend: 0x0, symName: __ZNSt3__110unique_ptrINS_15__thread_structENS_14default_deleteIS1_EEED1B7v160006Ev, symObjAddr: 0x388AC, symBinAddr: 0x100039F5C, symSize: 0x2C }
  - { offsetInCU: 0x392B9, offset: 0x392B9, size: 0x8, addend: 0x0, symName: __ZNSt3__110unique_ptrINS_15__thread_structENS_14default_deleteIS1_EEEC2B7v160006ILb1EvEEPS1_, symObjAddr: 0x388D8, symBinAddr: 0x100039F88, symSize: 0x260 }
  - { offsetInCU: 0x39301, offset: 0x39301, size: 0x8, addend: 0x0, symName: __ZNSt3__117__compressed_pairIPNS_15__thread_structENS_14default_deleteIS1_EEEC1B7v160006IRS2_NS_16__value_init_tagEEEOT_OT0_, symObjAddr: 0x38B38, symBinAddr: 0x10003A1E8, symSize: 0x3C }
  - { offsetInCU: 0x39359, offset: 0x39359, size: 0x8, addend: 0x0, symName: __ZNSt3__117__compressed_pairIPNS_15__thread_structENS_14default_deleteIS1_EEEC2B7v160006IRS2_NS_16__value_init_tagEEEOT_OT0_, symObjAddr: 0x38B74, symBinAddr: 0x10003A224, symSize: 0x40 }
  - { offsetInCU: 0x393B1, offset: 0x393B1, size: 0x8, addend: 0x0, symName: __ZNSt3__122__compressed_pair_elemIPNS_15__thread_structELi0ELb0EEC2B7v160006IRS2_vEEOT_, symObjAddr: 0x38BB4, symBinAddr: 0x10003A264, symSize: 0xB0 }
  - { offsetInCU: 0x393F3, offset: 0x393F3, size: 0x8, addend: 0x0, symName: __ZNSt3__122__compressed_pair_elemINS_14default_deleteINS_15__thread_structEEELi1ELb1EEC2B7v160006ENS_16__value_init_tagE, symObjAddr: 0x38C64, symBinAddr: 0x10003A314, symSize: 0x14 }
  - { offsetInCU: 0x39427, offset: 0x39427, size: 0x8, addend: 0x0, symName: '__ZNSt3__15tupleIJNS_10unique_ptrINS_15__thread_structENS_14default_deleteIS2_EEEEZ4mainE3$_0EEC2B7v160006IJS5_S6_ELi0EEEDpOT_', symObjAddr: 0x38C78, symBinAddr: 0x10003A328, symSize: 0x3C }
  - { offsetInCU: 0x39485, offset: 0x39485, size: 0x8, addend: 0x0, symName: '__ZNSt3__112__tuple_implINS_15__tuple_indicesIJLm0ELm1EEEEJNS_10unique_ptrINS_15__thread_structENS_14default_deleteIS4_EEEEZ4mainE3$_0EEC1B7v160006IJLm0ELm1EEJS7_S8_EJEJEJS7_S8_EEENS1_IJXspT_EEEENS_13__tuple_typesIJDpT0_EEENS1_IJXspT1_EEEENSC_IJDpT2_EEEDpOT3_', symObjAddr: 0x38CB4, symBinAddr: 0x10003A364, symSize: 0x3C }
  - { offsetInCU: 0x39539, offset: 0x39539, size: 0x8, addend: 0x0, symName: '__ZNSt3__112__tuple_implINS_15__tuple_indicesIJLm0ELm1EEEEJNS_10unique_ptrINS_15__thread_structENS_14default_deleteIS4_EEEEZ4mainE3$_0EEC2B7v160006IJLm0ELm1EEJS7_S8_EJEJEJS7_S8_EEENS1_IJXspT_EEEENS_13__tuple_typesIJDpT0_EEENS1_IJXspT1_EEEENSC_IJDpT2_EEEDpOT3_', symObjAddr: 0x38CF0, symBinAddr: 0x10003A3A0, symSize: 0x70 }
  - { offsetInCU: 0x395ED, offset: 0x395ED, size: 0x8, addend: 0x0, symName: __ZNSt3__112__tuple_leafILm0ENS_10unique_ptrINS_15__thread_structENS_14default_deleteIS2_EEEELb0EEC2B7v160006IS5_vEEOT_, symObjAddr: 0x38D60, symBinAddr: 0x10003A410, symSize: 0x34 }
  - { offsetInCU: 0x39630, offset: 0x39630, size: 0x8, addend: 0x0, symName: '__ZNSt3__112__tuple_leafILm1EZ4mainE3$_0Lb0EEC2B7v160006IS1_vEEOT_', symObjAddr: 0x38D94, symBinAddr: 0x10003A444, symSize: 0x34 }
  - { offsetInCU: 0x39673, offset: 0x39673, size: 0x8, addend: 0x0, symName: __ZNSt3__112__tuple_leafILm0ENS_10unique_ptrINS_15__thread_structENS_14default_deleteIS2_EEEELb0EED2Ev, symObjAddr: 0x38DC8, symBinAddr: 0x10003A478, symSize: 0x2C }
  - { offsetInCU: 0x396A0, offset: 0x396A0, size: 0x8, addend: 0x0, symName: __ZNSt3__110unique_ptrINS_15__thread_structENS_14default_deleteIS1_EEEC1B7v160006EOS4_, symObjAddr: 0x38DF4, symBinAddr: 0x10003A4A4, symSize: 0x34 }
  - { offsetInCU: 0x396D8, offset: 0x396D8, size: 0x8, addend: 0x0, symName: __ZNSt3__110unique_ptrINS_15__thread_structENS_14default_deleteIS1_EEEC2B7v160006EOS4_, symObjAddr: 0x38E28, symBinAddr: 0x10003A4D8, symSize: 0x24C }
  - { offsetInCU: 0x39712, offset: 0x39712, size: 0x8, addend: 0x0, symName: __ZNSt3__110unique_ptrINS_15__thread_structENS_14default_deleteIS1_EEE7releaseB7v160006Ev, symObjAddr: 0x39074, symBinAddr: 0x10003A724, symSize: 0xB8 }
  - { offsetInCU: 0x39747, offset: 0x39747, size: 0x8, addend: 0x0, symName: __ZNSt3__110unique_ptrINS_15__thread_structENS_14default_deleteIS1_EEE11get_deleterB7v160006Ev, symObjAddr: 0x3912C, symBinAddr: 0x10003A7DC, symSize: 0x24 }
  - { offsetInCU: 0x39779, offset: 0x39779, size: 0x8, addend: 0x0, symName: __ZNSt3__117__compressed_pairIPNS_15__thread_structENS_14default_deleteIS1_EEEC1B7v160006IS2_S4_EEOT_OT0_, symObjAddr: 0x39150, symBinAddr: 0x10003A800, symSize: 0x3C }
  - { offsetInCU: 0x397D1, offset: 0x397D1, size: 0x8, addend: 0x0, symName: __ZNSt3__117__compressed_pairIPNS_15__thread_structENS_14default_deleteIS1_EEE5firstB7v160006Ev, symObjAddr: 0x3918C, symBinAddr: 0x10003A83C, symSize: 0x24 }
  - { offsetInCU: 0x397F7, offset: 0x397F7, size: 0x8, addend: 0x0, symName: __ZNSt3__122__compressed_pair_elemIPNS_15__thread_structELi0ELb0EE5__getB7v160006Ev, symObjAddr: 0x391B0, symBinAddr: 0x10003A860, symSize: 0x14 }
  - { offsetInCU: 0x3981D, offset: 0x3981D, size: 0x8, addend: 0x0, symName: __ZNSt3__117__compressed_pairIPNS_15__thread_structENS_14default_deleteIS1_EEE6secondB7v160006Ev, symObjAddr: 0x391C4, symBinAddr: 0x10003A874, symSize: 0x24 }
  - { offsetInCU: 0x39843, offset: 0x39843, size: 0x8, addend: 0x0, symName: __ZNSt3__122__compressed_pair_elemINS_14default_deleteINS_15__thread_structEEELi1ELb1EE5__getB7v160006Ev, symObjAddr: 0x391E8, symBinAddr: 0x10003A898, symSize: 0x14 }
  - { offsetInCU: 0x39869, offset: 0x39869, size: 0x8, addend: 0x0, symName: __ZNSt3__117__compressed_pairIPNS_15__thread_structENS_14default_deleteIS1_EEEC2B7v160006IS2_S4_EEOT_OT0_, symObjAddr: 0x391FC, symBinAddr: 0x10003A8AC, symSize: 0x44 }
  - { offsetInCU: 0x398C1, offset: 0x398C1, size: 0x8, addend: 0x0, symName: __ZNSt3__122__compressed_pair_elemIPNS_15__thread_structELi0ELb0EEC2B7v160006IS2_vEEOT_, symObjAddr: 0x39240, symBinAddr: 0x10003A8F0, symSize: 0xB0 }
  - { offsetInCU: 0x39903, offset: 0x39903, size: 0x8, addend: 0x0, symName: __ZNSt3__122__compressed_pair_elemINS_14default_deleteINS_15__thread_structEEELi1ELb1EEC2B7v160006IS3_vEEOT_, symObjAddr: 0x392F0, symBinAddr: 0x10003A9A0, symSize: 0x18 }
  - { offsetInCU: 0x39945, offset: 0x39945, size: 0x8, addend: 0x0, symName: '__ZZ4mainEN3$_0C1EOS_', symObjAddr: 0x39308, symBinAddr: 0x10003A9B8, symSize: 0x34 }
  - { offsetInCU: 0x3997A, offset: 0x3997A, size: 0x8, addend: 0x0, symName: '__ZZ4mainEN3$_0C2EOS_', symObjAddr: 0x3933C, symBinAddr: 0x10003A9EC, symSize: 0x158 }
  - { offsetInCU: 0x399AF, offset: 0x399AF, size: 0x8, addend: 0x0, symName: __ZNSt3__110shared_ptrI15WordCountMapperINS_12basic_stringIcNS_11char_traitsIcEENS_9allocatorIcEEEES7_S7_iEEC1B7v160006EOS9_, symObjAddr: 0x39494, symBinAddr: 0x10003AB44, symSize: 0x34 }
  - { offsetInCU: 0x399E8, offset: 0x399E8, size: 0x8, addend: 0x0, symName: __ZNSt3__110shared_ptrI15WordCountMapperINS_12basic_stringIcNS_11char_traitsIcEENS_9allocatorIcEEEES7_S7_iEEC2B7v160006EOS9_, symObjAddr: 0x394C8, symBinAddr: 0x10003AB78, symSize: 0x1B8 }
  - { offsetInCU: 0x39A21, offset: 0x39A21, size: 0x8, addend: 0x0, symName: '__ZNSt3__110unique_ptrINS_5tupleIJNS0_INS_15__thread_structENS_14default_deleteIS2_EEEEZ4mainE3$_0EEENS3_IS7_EEEC2B7v160006ILb1EvEEPS7_', symObjAddr: 0x39680, symBinAddr: 0x10003AD30, symSize: 0x260 }
  - { offsetInCU: 0x39A69, offset: 0x39A69, size: 0x8, addend: 0x0, symName: '__ZNSt3__117__compressed_pairIPNS_5tupleIJNS_10unique_ptrINS_15__thread_structENS_14default_deleteIS3_EEEEZ4mainE3$_0EEENS4_IS8_EEEC1B7v160006IRS9_NS_16__value_init_tagEEEOT_OT0_', symObjAddr: 0x398E0, symBinAddr: 0x10003AF90, symSize: 0x3C }
  - { offsetInCU: 0x39AC1, offset: 0x39AC1, size: 0x8, addend: 0x0, symName: '__ZNSt3__117__compressed_pairIPNS_5tupleIJNS_10unique_ptrINS_15__thread_structENS_14default_deleteIS3_EEEEZ4mainE3$_0EEENS4_IS8_EEEC2B7v160006IRS9_NS_16__value_init_tagEEEOT_OT0_', symObjAddr: 0x3991C, symBinAddr: 0x10003AFCC, symSize: 0x40 }
  - { offsetInCU: 0x39B19, offset: 0x39B19, size: 0x8, addend: 0x0, symName: '__ZNSt3__122__compressed_pair_elemIPNS_5tupleIJNS_10unique_ptrINS_15__thread_structENS_14default_deleteIS3_EEEEZ4mainE3$_0EEELi0ELb0EEC2B7v160006IRS9_vEEOT_', symObjAddr: 0x3995C, symBinAddr: 0x10003B00C, symSize: 0xB0 }
  - { offsetInCU: 0x39B5B, offset: 0x39B5B, size: 0x8, addend: 0x0, symName: '__ZNSt3__122__compressed_pair_elemINS_14default_deleteINS_5tupleIJNS_10unique_ptrINS_15__thread_structENS1_IS4_EEEEZ4mainE3$_0EEEEELi1ELb1EEC2B7v160006ENS_16__value_init_tagE', symObjAddr: 0x39A0C, symBinAddr: 0x10003B0BC, symSize: 0x14 }
  - { offsetInCU: 0x39BC2, offset: 0x39BC2, size: 0x8, addend: 0x0, symName: __ZNSt3__121__thread_specific_ptrINS_15__thread_structEE11set_pointerEPS1_, symObjAddr: 0x39A20, symBinAddr: 0x10003B0D0, symSize: 0x6C }
  - { offsetInCU: 0x39BF7, offset: 0x39BF7, size: 0x8, addend: 0x0, symName: __ZNSt3__112__tuple_leafILm0ENS_10unique_ptrINS_15__thread_structENS_14default_deleteIS2_EEEELb0EE3getB7v160006Ev, symObjAddr: 0x39B04, symBinAddr: 0x10003B1B4, symSize: 0x14 }
  - { offsetInCU: 0x39C23, offset: 0x39C23, size: 0x8, addend: 0x0, symName: '__ZZ4mainENK3$_0clEv', symObjAddr: 0x39B64, symBinAddr: 0x10003B214, symSize: 0x37C }
  - { offsetInCU: 0x39C4E, offset: 0x39C4E, size: 0x8, addend: 0x0, symName: '__ZNSt3__112__tuple_leafILm1EZ4mainE3$_0Lb0EE3getB7v160006Ev', symObjAddr: 0x39EE0, symBinAddr: 0x10003B590, symSize: 0x14 }
  - { offsetInCU: 0x39C74, offset: 0x39C74, size: 0x8, addend: 0x0, symName: '__ZNKSt3__117__compressed_pairIPNS_5tupleIJNS_10unique_ptrINS_15__thread_structENS_14default_deleteIS3_EEEEZ4mainE3$_0EEENS4_IS8_EEE5firstB7v160006Ev', symObjAddr: 0x39EF4, symBinAddr: 0x10003B5A4, symSize: 0x24 }
  - { offsetInCU: 0x39C9A, offset: 0x39C9A, size: 0x8, addend: 0x0, symName: '__ZNKSt3__122__compressed_pair_elemIPNS_5tupleIJNS_10unique_ptrINS_15__thread_structENS_14default_deleteIS3_EEEEZ4mainE3$_0EEELi0ELb0EE5__getB7v160006Ev', symObjAddr: 0x39F18, symBinAddr: 0x10003B5C8, symSize: 0x14 }
  - { offsetInCU: 0x39CC0, offset: 0x39CC0, size: 0x8, addend: 0x0, symName: '__ZNSt3__117__compressed_pairIPNS_5tupleIJNS_10unique_ptrINS_15__thread_structENS_14default_deleteIS3_EEEEZ4mainE3$_0EEENS4_IS8_EEE5firstB7v160006Ev', symObjAddr: 0x39F2C, symBinAddr: 0x10003B5DC, symSize: 0x24 }
  - { offsetInCU: 0x39CE6, offset: 0x39CE6, size: 0x8, addend: 0x0, symName: '__ZNSt3__122__compressed_pair_elemIPNS_5tupleIJNS_10unique_ptrINS_15__thread_structENS_14default_deleteIS3_EEEEZ4mainE3$_0EEELi0ELb0EE5__getB7v160006Ev', symObjAddr: 0x39F50, symBinAddr: 0x10003B600, symSize: 0x14 }
  - { offsetInCU: 0x39D0C, offset: 0x39D0C, size: 0x8, addend: 0x0, symName: '__ZNSt3__110unique_ptrINS_5tupleIJNS0_INS_15__thread_structENS_14default_deleteIS2_EEEEZ4mainE3$_0EEENS3_IS7_EEED2B7v160006Ev', symObjAddr: 0x39F64, symBinAddr: 0x10003B614, symSize: 0x30 }
  - { offsetInCU: 0x39D36, offset: 0x39D36, size: 0x8, addend: 0x0, symName: '__ZNSt3__110unique_ptrINS_5tupleIJNS0_INS_15__thread_structENS_14default_deleteIS2_EEEEZ4mainE3$_0EEENS3_IS7_EEE5resetB7v160006EPS7_', symObjAddr: 0x39F94, symBinAddr: 0x10003B644, symSize: 0xEC }
  - { offsetInCU: 0x39D7A, offset: 0x39D7A, size: 0x8, addend: 0x0, symName: '__ZNSt3__117__compressed_pairIPNS_5tupleIJNS_10unique_ptrINS_15__thread_structENS_14default_deleteIS3_EEEEZ4mainE3$_0EEENS4_IS8_EEE6secondB7v160006Ev', symObjAddr: 0x3A080, symBinAddr: 0x10003B730, symSize: 0x24 }
  - { offsetInCU: 0x39DA0, offset: 0x39DA0, size: 0x8, addend: 0x0, symName: '__ZNKSt3__114default_deleteINS_5tupleIJNS_10unique_ptrINS_15__thread_structENS0_IS3_EEEEZ4mainE3$_0EEEEclB7v160006EPS7_', symObjAddr: 0x3A0A4, symBinAddr: 0x10003B754, symSize: 0x4C }
  - { offsetInCU: 0x39DD4, offset: 0x39DD4, size: 0x8, addend: 0x0, symName: '__ZNSt3__122__compressed_pair_elemINS_14default_deleteINS_5tupleIJNS_10unique_ptrINS_15__thread_structENS1_IS4_EEEEZ4mainE3$_0EEEEELi1ELb1EE5__getB7v160006Ev', symObjAddr: 0x3A0F0, symBinAddr: 0x10003B7A0, symSize: 0x14 }
  - { offsetInCU: 0x39DFA, offset: 0x39DFA, size: 0x8, addend: 0x0, symName: '__ZNSt3__15tupleIJNS_10unique_ptrINS_15__thread_structENS_14default_deleteIS2_EEEEZ4mainE3$_0EED1Ev', symObjAddr: 0x3A104, symBinAddr: 0x10003B7B4, symSize: 0x2C }
  - { offsetInCU: 0x39E27, offset: 0x39E27, size: 0x8, addend: 0x0, symName: '__ZNSt3__15tupleIJNS_10unique_ptrINS_15__thread_structENS_14default_deleteIS2_EEEEZ4mainE3$_0EED2Ev', symObjAddr: 0x3A130, symBinAddr: 0x10003B7E0, symSize: 0x2C }
  - { offsetInCU: 0x39E54, offset: 0x39E54, size: 0x8, addend: 0x0, symName: '__ZNSt3__112__tuple_implINS_15__tuple_indicesIJLm0ELm1EEEEJNS_10unique_ptrINS_15__thread_structENS_14default_deleteIS4_EEEEZ4mainE3$_0EED1Ev', symObjAddr: 0x3A15C, symBinAddr: 0x10003B80C, symSize: 0x2C }
  - { offsetInCU: 0x39E81, offset: 0x39E81, size: 0x8, addend: 0x0, symName: '__ZNSt3__112__tuple_implINS_15__tuple_indicesIJLm0ELm1EEEEJNS_10unique_ptrINS_15__thread_structENS_14default_deleteIS4_EEEEZ4mainE3$_0EED2Ev', symObjAddr: 0x3A188, symBinAddr: 0x10003B838, symSize: 0x38 }
  - { offsetInCU: 0x39EAE, offset: 0x39EAE, size: 0x8, addend: 0x0, symName: '__ZNSt3__112__tuple_leafILm1EZ4mainE3$_0Lb0EED2Ev', symObjAddr: 0x3A1C0, symBinAddr: 0x10003B870, symSize: 0x2C }
  - { offsetInCU: 0x39EDB, offset: 0x39EDB, size: 0x8, addend: 0x0, symName: __ZNSt3__110unique_ptrINS_15__thread_structENS_14default_deleteIS1_EEED2B7v160006Ev, symObjAddr: 0x3A1EC, symBinAddr: 0x10003B89C, symSize: 0x30 }
  - { offsetInCU: 0x39F05, offset: 0x39F05, size: 0x8, addend: 0x0, symName: __ZNSt3__110unique_ptrINS_15__thread_structENS_14default_deleteIS1_EEE5resetB7v160006EPS1_, symObjAddr: 0x3A21C, symBinAddr: 0x10003B8CC, symSize: 0xEC }
  - { offsetInCU: 0x39F49, offset: 0x39F49, size: 0x8, addend: 0x0, symName: __ZNKSt3__114default_deleteINS_15__thread_structEEclB7v160006EPS1_, symObjAddr: 0x3A308, symBinAddr: 0x10003B9B8, symSize: 0x4C }
  - { offsetInCU: 0x39F7D, offset: 0x39F7D, size: 0x8, addend: 0x0, symName: __ZNSt3__16vectorINS_6threadENS_9allocatorIS1_EEE21_ConstructTransactionD2B7v160006Ev, symObjAddr: 0x3A354, symBinAddr: 0x10003BA04, symSize: 0x278 }
  - { offsetInCU: 0x39FA7, offset: 0x39FA7, size: 0x8, addend: 0x0, symName: __ZNKSt3__16vectorINS_6threadENS_9allocatorIS1_EEE17__annotate_shrinkB7v160006Em, symObjAddr: 0x3A5CC, symBinAddr: 0x10003BC7C, symSize: 0xC8 }
  - { offsetInCU: 0x39FDC, offset: 0x39FDC, size: 0x8, addend: 0x0, symName: __ZNKSt3__16vectorINS_6threadENS_9allocatorIS1_EEE11__recommendB7v160006Em, symObjAddr: 0x3A694, symBinAddr: 0x10003BD44, symSize: 0x384 }
  - { offsetInCU: 0x3A038, offset: 0x3A038, size: 0x8, addend: 0x0, symName: __ZNSt3__114__split_bufferINS_6threadERNS_9allocatorIS1_EEEC1EmmS4_, symObjAddr: 0x3AA18, symBinAddr: 0x10003C0C8, symSize: 0x44 }
  - { offsetInCU: 0x3A08E, offset: 0x3A08E, size: 0x8, addend: 0x0, symName: __ZNSt3__114__split_bufferINS_6threadERNS_9allocatorIS1_EEED1Ev, symObjAddr: 0x3AFD0, symBinAddr: 0x10003C680, symSize: 0x2C }
  - { offsetInCU: 0x3A0BA, offset: 0x3A0BA, size: 0x8, addend: 0x0, symName: __ZNKSt3__16vectorINS_6threadENS_9allocatorIS1_EEE8max_sizeEv, symObjAddr: 0x3AFFC, symBinAddr: 0x10003C6AC, symSize: 0x2FC }
  - { offsetInCU: 0x3A0E3, offset: 0x3A0E3, size: 0x8, addend: 0x0, symName: __ZNKSt3__16vectorINS_6threadENS_9allocatorIS1_EEE20__throw_length_errorB7v160006Ev, symObjAddr: 0x3B2F8, symBinAddr: 0x10003C9A8, symSize: 0x20 }
  - { offsetInCU: 0x3A114, offset: 0x3A114, size: 0x8, addend: 0x0, symName: __ZNSt3__116allocator_traitsINS_9allocatorINS_6threadEEEE8max_sizeB7v160006IS3_vEEmRKS3_, symObjAddr: 0x3B318, symBinAddr: 0x10003C9C8, symSize: 0x24 }
  - { offsetInCU: 0x3A142, offset: 0x3A142, size: 0x8, addend: 0x0, symName: __ZNKSt3__16vectorINS_6threadENS_9allocatorIS1_EEE7__allocB7v160006Ev, symObjAddr: 0x3B33C, symBinAddr: 0x10003C9EC, symSize: 0x28 }
  - { offsetInCU: 0x3A168, offset: 0x3A168, size: 0x8, addend: 0x0, symName: __ZNKSt3__19allocatorINS_6threadEE8max_sizeB7v160006Ev, symObjAddr: 0x3B364, symBinAddr: 0x10003CA14, symSize: 0x14 }
  - { offsetInCU: 0x3A18E, offset: 0x3A18E, size: 0x8, addend: 0x0, symName: __ZNKSt3__117__compressed_pairIPNS_6threadENS_9allocatorIS1_EEE6secondB7v160006Ev, symObjAddr: 0x3B378, symBinAddr: 0x10003CA28, symSize: 0x24 }
  - { offsetInCU: 0x3A1B4, offset: 0x3A1B4, size: 0x8, addend: 0x0, symName: __ZNKSt3__122__compressed_pair_elemINS_9allocatorINS_6threadEEELi1ELb1EE5__getB7v160006Ev, symObjAddr: 0x3B39C, symBinAddr: 0x10003CA4C, symSize: 0x14 }
  - { offsetInCU: 0x3A1DA, offset: 0x3A1DA, size: 0x8, addend: 0x0, symName: __ZNSt3__114__split_bufferINS_6threadERNS_9allocatorIS1_EEEC2EmmS4_, symObjAddr: 0x3B3B0, symBinAddr: 0x10003CA60, symSize: 0x520 }
  - { offsetInCU: 0x3A256, offset: 0x3A256, size: 0x8, addend: 0x0, symName: __ZNSt3__117__compressed_pairIPNS_6threadERNS_9allocatorIS1_EEEC1B7v160006IDnS5_EEOT_OT0_, symObjAddr: 0x3B8D0, symBinAddr: 0x10003CF80, symSize: 0x3C }
  - { offsetInCU: 0x3A2AE, offset: 0x3A2AE, size: 0x8, addend: 0x0, symName: __ZNSt3__114__split_bufferINS_6threadERNS_9allocatorIS1_EEE7__allocB7v160006Ev, symObjAddr: 0x3BB98, symBinAddr: 0x10003D248, symSize: 0x28 }
  - { offsetInCU: 0x3A2D4, offset: 0x3A2D4, size: 0x8, addend: 0x0, symName: __ZNSt3__114__split_bufferINS_6threadERNS_9allocatorIS1_EEE9__end_capB7v160006Ev, symObjAddr: 0x3BBC0, symBinAddr: 0x10003D270, symSize: 0x28 }
  - { offsetInCU: 0x3A2FA, offset: 0x3A2FA, size: 0x8, addend: 0x0, symName: __ZNSt3__117__compressed_pairIPNS_6threadERNS_9allocatorIS1_EEEC2B7v160006IDnS5_EEOT_OT0_, symObjAddr: 0x3BBE8, symBinAddr: 0x10003D298, symSize: 0x48 }
  - { offsetInCU: 0x3A352, offset: 0x3A352, size: 0x8, addend: 0x0, symName: __ZNSt3__122__compressed_pair_elemIRNS_9allocatorINS_6threadEEELi1ELb0EEC2B7v160006IS4_vEEOT_, symObjAddr: 0x3BC30, symBinAddr: 0x10003D2E0, symSize: 0x70 }
  - { offsetInCU: 0x3A394, offset: 0x3A394, size: 0x8, addend: 0x0, symName: __ZNSt3__19allocatorINS_6threadEE8allocateB7v160006Em, symObjAddr: 0x3BCA0, symBinAddr: 0x10003D350, symSize: 0x5C }
  - { offsetInCU: 0x3A3C8, offset: 0x3A3C8, size: 0x8, addend: 0x0, symName: __ZNSt3__117__compressed_pairIPNS_6threadERNS_9allocatorIS1_EEE6secondB7v160006Ev, symObjAddr: 0x3BCFC, symBinAddr: 0x10003D3AC, symSize: 0x28 }
  - { offsetInCU: 0x3A3EE, offset: 0x3A3EE, size: 0x8, addend: 0x0, symName: __ZNSt3__122__compressed_pair_elemIRNS_9allocatorINS_6threadEEELi1ELb0EE5__getB7v160006Ev, symObjAddr: 0x3BD24, symBinAddr: 0x10003D3D4, symSize: 0x60 }
  - { offsetInCU: 0x3A414, offset: 0x3A414, size: 0x8, addend: 0x0, symName: __ZNSt3__117__compressed_pairIPNS_6threadERNS_9allocatorIS1_EEE5firstB7v160006Ev, symObjAddr: 0x3BD84, symBinAddr: 0x10003D434, symSize: 0x24 }
  - { offsetInCU: 0x3A43A, offset: 0x3A43A, size: 0x8, addend: 0x0, symName: __ZNSt3__116reverse_iteratorIPNS_6threadEEC1B7v160006ES2_, symObjAddr: 0x3C2EC, symBinAddr: 0x10003D99C, symSize: 0x34 }
  - { offsetInCU: 0x3A472, offset: 0x3A472, size: 0x8, addend: 0x0, symName: __ZNKSt3__116reverse_iteratorIPNS_6threadEE4baseB7v160006Ev, symObjAddr: 0x3C320, symBinAddr: 0x10003D9D0, symSize: 0x64 }
  - { offsetInCU: 0x3A498, offset: 0x3A498, size: 0x8, addend: 0x0, symName: __ZNKSt3__16vectorINS_6threadENS_9allocatorIS1_EEE14__annotate_newB7v160006Em, symObjAddr: 0x3C4B8, symBinAddr: 0x10003DB68, symSize: 0xC0 }
  - { offsetInCU: 0x3A4CD, offset: 0x3A4CD, size: 0x8, addend: 0x0, symName: __ZNSt3__129_AllocatorDestroyRangeReverseINS_9allocatorINS_6threadEEENS_16reverse_iteratorIPS2_EEEC1B7v160006ERS3_RS6_S9_, symObjAddr: 0x3C780, symBinAddr: 0x10003DE30, symSize: 0x44 }
  - { offsetInCU: 0x3A524, offset: 0x3A524, size: 0x8, addend: 0x0, symName: __ZNSt3__116allocator_traitsINS_9allocatorINS_6threadEEEE9constructB7v160006IS2_JS2_EvEEvRS3_PT_DpOT0_, symObjAddr: 0x3C80C, symBinAddr: 0x10003DEBC, symSize: 0x34 }
  - { offsetInCU: 0x3A57B, offset: 0x3A57B, size: 0x8, addend: 0x0, symName: __ZNKSt3__116reverse_iteratorIPNS_6threadEEdeB7v160006Ev, symObjAddr: 0x3C864, symBinAddr: 0x10003DF14, symSize: 0x74 }
  - { offsetInCU: 0x3A5B0, offset: 0x3A5B0, size: 0x8, addend: 0x0, symName: __ZNSt3__116reverse_iteratorIPNS_6threadEEppB7v160006Ev, symObjAddr: 0x3C8D8, symBinAddr: 0x10003DF88, symSize: 0x6C }
  - { offsetInCU: 0x3A5D6, offset: 0x3A5D6, size: 0x8, addend: 0x0, symName: __ZNSt3__128__exception_guard_exceptionsINS_29_AllocatorDestroyRangeReverseINS_9allocatorINS_6threadEEENS_16reverse_iteratorIPS3_EEEEE10__completeB7v160006Ev, symObjAddr: 0x3C944, symBinAddr: 0x10003DFF4, symSize: 0x8C }
  - { offsetInCU: 0x3A5FC, offset: 0x3A5FC, size: 0x8, addend: 0x0, symName: __ZNSt3__128__exception_guard_exceptionsINS_29_AllocatorDestroyRangeReverseINS_9allocatorINS_6threadEEENS_16reverse_iteratorIPS3_EEEEED1B7v160006Ev, symObjAddr: 0x3C9D0, symBinAddr: 0x10003E080, symSize: 0x2C }
  - { offsetInCU: 0x3A626, offset: 0x3A626, size: 0x8, addend: 0x0, symName: __ZNSt3__128__exception_guard_exceptionsINS_29_AllocatorDestroyRangeReverseINS_9allocatorINS_6threadEEENS_16reverse_iteratorIPS3_EEEEEC1B7v160006ES8_, symObjAddr: 0x3C9FC, symBinAddr: 0x10003E0AC, symSize: 0x34 }
  - { offsetInCU: 0x3A65F, offset: 0x3A65F, size: 0x8, addend: 0x0, symName: __ZNSt3__128__exception_guard_exceptionsINS_29_AllocatorDestroyRangeReverseINS_9allocatorINS_6threadEEENS_16reverse_iteratorIPS3_EEEEEC2B7v160006ES8_, symObjAddr: 0x3CA30, symBinAddr: 0x10003E0E0, symSize: 0xA4 }
  - { offsetInCU: 0x3A698, offset: 0x3A698, size: 0x8, addend: 0x0, symName: __ZNSt3__129_AllocatorDestroyRangeReverseINS_9allocatorINS_6threadEEENS_16reverse_iteratorIPS2_EEEC2B7v160006ERS3_RS6_S9_, symObjAddr: 0x3CAD4, symBinAddr: 0x10003E184, symSize: 0x104 }
  - { offsetInCU: 0x3A6EF, offset: 0x3A6EF, size: 0x8, addend: 0x0, symName: __ZNSt3__19allocatorINS_6threadEE9constructB7v160006IS1_JS1_EEEvPT_DpOT0_, symObjAddr: 0x3CBD8, symBinAddr: 0x10003E288, symSize: 0x30 }
  - { offsetInCU: 0x3A745, offset: 0x3A745, size: 0x8, addend: 0x0, symName: __ZNSt3__16threadC1B7v160006EOS0_, symObjAddr: 0x3CC08, symBinAddr: 0x10003E2B8, symSize: 0x34 }
  - { offsetInCU: 0x3A77D, offset: 0x3A77D, size: 0x8, addend: 0x0, symName: __ZNSt3__16threadC2B7v160006EOS0_, symObjAddr: 0x3CC3C, symBinAddr: 0x10003E2EC, symSize: 0xF0 }
  - { offsetInCU: 0x3A7BB, offset: 0x3A7BB, size: 0x8, addend: 0x0, symName: __ZNSt3__119__to_address_helperINS_16reverse_iteratorIPNS_6threadEEEvE6__callB7v160006ERKS4_, symObjAddr: 0x3CD2C, symBinAddr: 0x10003E3DC, symSize: 0x44 }
  - { offsetInCU: 0x3A7DE, offset: 0x3A7DE, size: 0x8, addend: 0x0, symName: __ZNKSt3__116reverse_iteratorIPNS_6threadEEptB7v160006Ev, symObjAddr: 0x3CD70, symBinAddr: 0x10003E420, symSize: 0x24 }
  - { offsetInCU: 0x3A804, offset: 0x3A804, size: 0x8, addend: 0x0, symName: __ZNSt3__128__exception_guard_exceptionsINS_29_AllocatorDestroyRangeReverseINS_9allocatorINS_6threadEEENS_16reverse_iteratorIPS3_EEEEED2B7v160006Ev, symObjAddr: 0x3CD94, symBinAddr: 0x10003E444, symSize: 0xBC }
  - { offsetInCU: 0x3A82E, offset: 0x3A82E, size: 0x8, addend: 0x0, symName: __ZNKSt3__129_AllocatorDestroyRangeReverseINS_9allocatorINS_6threadEEENS_16reverse_iteratorIPS2_EEEclB7v160006Ev, symObjAddr: 0x3CE50, symBinAddr: 0x10003E500, symSize: 0x3A8 }
  - { offsetInCU: 0x3A855, offset: 0x3A855, size: 0x8, addend: 0x0, symName: __ZNSt3__116reverse_iteratorINS0_IPNS_6threadEEEEC1B7v160006ES3_, symObjAddr: 0x3D268, symBinAddr: 0x10003E918, symSize: 0x248 }
  - { offsetInCU: 0x3A892, offset: 0x3A892, size: 0x8, addend: 0x0, symName: __ZNSt3__116reverse_iteratorINS0_IPNS_6threadEEEEppB7v160006Ev, symObjAddr: 0x3D7A0, symBinAddr: 0x10003EE50, symSize: 0x30 }
  - { offsetInCU: 0x3A8B8, offset: 0x3A8B8, size: 0x8, addend: 0x0, symName: __ZNKSt3__116reverse_iteratorINS0_IPNS_6threadEEEE4baseB7v160006Ev, symObjAddr: 0x3D7D0, symBinAddr: 0x10003EE80, symSize: 0x20C }
  - { offsetInCU: 0x3A8E5, offset: 0x3A8E5, size: 0x8, addend: 0x0, symName: __ZNSt3__119__to_address_helperINS_16reverse_iteratorINS1_IPNS_6threadEEEEEvE6__callB7v160006ERKS5_, symObjAddr: 0x3D9DC, symBinAddr: 0x10003F08C, symSize: 0x44 }
  - { offsetInCU: 0x3A908, offset: 0x3A908, size: 0x8, addend: 0x0, symName: __ZNKSt3__116reverse_iteratorINS0_IPNS_6threadEEEEptB7v160006Ev, symObjAddr: 0x3DA20, symBinAddr: 0x10003F0D0, symSize: 0x24 }
  - { offsetInCU: 0x3A92E, offset: 0x3A92E, size: 0x8, addend: 0x0, symName: __ZNKSt3__116reverse_iteratorINS0_IPNS_6threadEEEEdeB7v160006Ev, symObjAddr: 0x3DA44, symBinAddr: 0x10003F0F4, symSize: 0x1EC }
  - { offsetInCU: 0x3A968, offset: 0x3A968, size: 0x8, addend: 0x0, symName: __ZNSt3__116reverse_iteratorIPNS_6threadEEmmB7v160006Ev, symObjAddr: 0x3DC30, symBinAddr: 0x10003F2E0, symSize: 0x6C }
  - { offsetInCU: 0x3A98E, offset: 0x3A98E, size: 0x8, addend: 0x0, symName: __ZNSt3__116reverse_iteratorINS0_IPNS_6threadEEEEC2B7v160006ES3_, symObjAddr: 0x3DC9C, symBinAddr: 0x10003F34C, symSize: 0x22C }
  - { offsetInCU: 0x3A9CB, offset: 0x3A9CB, size: 0x8, addend: 0x0, symName: __ZNSt3__116reverse_iteratorIPNS_6threadEEC2B7v160006ES2_, symObjAddr: 0x3DEC8, symBinAddr: 0x10003F578, symSize: 0xB8 }
  - { offsetInCU: 0x3AA03, offset: 0x3AA03, size: 0x8, addend: 0x0, symName: __ZNSt3__114__split_bufferINS_6threadERNS_9allocatorIS1_EEED2Ev, symObjAddr: 0x3DF80, symBinAddr: 0x10003F630, symSize: 0x104 }
  - { offsetInCU: 0x3AA2F, offset: 0x3AA2F, size: 0x8, addend: 0x0, symName: __ZNSt3__114__split_bufferINS_6threadERNS_9allocatorIS1_EEE5clearB7v160006Ev, symObjAddr: 0x3E084, symBinAddr: 0x10003F734, symSize: 0x68 }
  - { offsetInCU: 0x3AA55, offset: 0x3AA55, size: 0x8, addend: 0x0, symName: __ZNKSt3__114__split_bufferINS_6threadERNS_9allocatorIS1_EEE8capacityB7v160006Ev, symObjAddr: 0x3E0EC, symBinAddr: 0x10003F79C, symSize: 0xBC }
  - { offsetInCU: 0x3AA7B, offset: 0x3AA7B, size: 0x8, addend: 0x0, symName: __ZNSt3__114__split_bufferINS_6threadERNS_9allocatorIS1_EEE17__destruct_at_endB7v160006EPS1_, symObjAddr: 0x3E1A8, symBinAddr: 0x10003F858, symSize: 0x2C }
  - { offsetInCU: 0x3AAAF, offset: 0x3AAAF, size: 0x8, addend: 0x0, symName: __ZNSt3__114__split_bufferINS_6threadERNS_9allocatorIS1_EEE17__destruct_at_endB7v160006EPS1_NS_17integral_constantIbLb0EEE, symObjAddr: 0x3E1D4, symBinAddr: 0x10003F884, symSize: 0x10C }
  - { offsetInCU: 0x3AAEF, offset: 0x3AAEF, size: 0x8, addend: 0x0, symName: __ZNKSt3__114__split_bufferINS_6threadERNS_9allocatorIS1_EEE9__end_capB7v160006Ev, symObjAddr: 0x3E2E0, symBinAddr: 0x10003F990, symSize: 0x28 }
  - { offsetInCU: 0x3AB15, offset: 0x3AB15, size: 0x8, addend: 0x0, symName: __ZNKSt3__117__compressed_pairIPNS_6threadERNS_9allocatorIS1_EEE5firstB7v160006Ev, symObjAddr: 0x3E308, symBinAddr: 0x10003F9B8, symSize: 0x24 }
  - { offsetInCU: 0x3AB3B, offset: 0x3AB3B, size: 0x8, addend: 0x0, symName: __ZNSt3__16vectorINS_6threadENS_9allocatorIS1_EEE11__make_iterB7v160006EPS1_, symObjAddr: 0x3E32C, symBinAddr: 0x10003F9DC, symSize: 0x200 }
  - { offsetInCU: 0x3AB72, offset: 0x3AB72, size: 0x8, addend: 0x0, symName: __ZNSt3__111__wrap_iterIPNS_6threadEEC1B7v160006EPKvS2_, symObjAddr: 0x3E52C, symBinAddr: 0x10003FBDC, symSize: 0x3C }
  - { offsetInCU: 0x3ABB8, offset: 0x3ABB8, size: 0x8, addend: 0x0, symName: __ZNSt3__111__wrap_iterIPNS_6threadEEC2B7v160006EPKvS2_, symObjAddr: 0x3E568, symBinAddr: 0x10003FC18, symSize: 0x74 }
  - { offsetInCU: 0x3ABFE, offset: 0x3ABFE, size: 0x8, addend: 0x0, symName: __ZNKSt3__14__fs10filesystem4path6stringB7v160006Ev, symObjAddr: 0x3E5DC, symBinAddr: 0x10003FC8C, symSize: 0x38 }
  - { offsetInCU: 0x3AC24, offset: 0x3AC24, size: 0x8, addend: 0x0, symName: __ZNSt3__113unordered_mapINS_12basic_stringIcNS_11char_traitsIcEENS_9allocatorIcEEEES6_NS_4hashIS6_EENS_8equal_toIS6_EENS4_INS_4pairIKS6_S6_EEEEE4findB7v160006ERSC_, symObjAddr: 0x3E68C, symBinAddr: 0x10003FD3C, symSize: 0x2BC }
  - { offsetInCU: 0x3AC5B, offset: 0x3AC5B, size: 0x8, addend: 0x0, symName: __ZNSt3__113unordered_mapINS_12basic_stringIcNS_11char_traitsIcEENS_9allocatorIcEEEES6_NS_4hashIS6_EENS_8equal_toIS6_EENS4_INS_4pairIKS6_S6_EEEEE3endB7v160006Ev, symObjAddr: 0x3E948, symBinAddr: 0x10003FFF8, symSize: 0x2B4 }
  - { offsetInCU: 0x3AC82, offset: 0x3AC82, size: 0x8, addend: 0x0, symName: __ZNSt3__113unordered_mapINS_12basic_stringIcNS_11char_traitsIcEENS_9allocatorIcEEEES6_NS_4hashIS6_EENS_8equal_toIS6_EENS4_INS_4pairIKS6_S6_EEEEEixERSC_, symObjAddr: 0x3EBFC, symBinAddr: 0x1000402AC, symSize: 0x314 }
  - { offsetInCU: 0x3ACBB, offset: 0x3ACBB, size: 0x8, addend: 0x0, symName: __ZNSt3__112basic_stringIcNS_11char_traitsIcEENS_9allocatorIcEEEaSB7v160006EOS5_, symObjAddr: 0x3EF10, symBinAddr: 0x1000405C0, symSize: 0x34 }
  - { offsetInCU: 0x3ACF0, offset: 0x3ACF0, size: 0x8, addend: 0x0, symName: __ZN11PartitionerINSt3__112basic_stringIcNS0_11char_traitsIcEENS0_9allocatorIcEEEEiE18appendValuesToFileERKS6_RKNS0_6vectorIiNS4_IiEEEE, symObjAddr: 0x3EF44, symBinAddr: 0x1000405F4, symSize: 0x4C0 }
  - { offsetInCU: 0x3AD96, offset: 0x3AD96, size: 0x8, addend: 0x0, symName: __ZNSt3__110__get_pairILm0EE3getB7v160006IKNS_12basic_stringIcNS_11char_traitsIcEENS_9allocatorIcEEEENS_6vectorIiNS6_IiEEEEEERKT_RKNS_4pairISD_T0_EE, symObjAddr: 0x3F404, symBinAddr: 0x100040AB4, symSize: 0x14 }
  - { offsetInCU: 0x3ADCC, offset: 0x3ADCC, size: 0x8, addend: 0x0, symName: __ZNSt3__110__get_pairILm1EE3getB7v160006IKNS_12basic_stringIcNS_11char_traitsIcEENS_9allocatorIcEEEENS_6vectorIiNS6_IiEEEEEERKT0_RKNS_4pairIT_SD_EE, symObjAddr: 0x3F418, symBinAddr: 0x100040AC8, symSize: 0x18 }
  - { offsetInCU: 0x3AE02, offset: 0x3AE02, size: 0x8, addend: 0x0, symName: __ZNSt3__112__hash_tableINS_17__hash_value_typeINS_12basic_stringIcNS_11char_traitsIcEENS_9allocatorIcEEEES7_EENS_22__unordered_map_hasherIS7_S8_NS_4hashIS7_EENS_8equal_toIS7_EELb1EEENS_21__unordered_map_equalIS7_S8_SD_SB_Lb1EEENS5_IS8_EEE4findIS7_EENS_15__hash_iteratorIPNS_11__hash_nodeIS8_PvEEEERKT_, symObjAddr: 0x3F4E8, symBinAddr: 0x100040B98, symSize: 0x488 }
  - { offsetInCU: 0x3AE8A, offset: 0x3AE8A, size: 0x8, addend: 0x0, symName: __ZNSt3__119__hash_map_iteratorINS_15__hash_iteratorIPNS_11__hash_nodeINS_17__hash_value_typeINS_12basic_stringIcNS_11char_traitsIcEENS_9allocatorIcEEEES9_EEPvEEEEEC1B7v160006ESE_, symObjAddr: 0x3F970, symBinAddr: 0x100041020, symSize: 0x238 }
  - { offsetInCU: 0x3AEC8, offset: 0x3AEC8, size: 0x8, addend: 0x0, symName: __ZNSt3__112__hash_tableINS_17__hash_value_typeINS_12basic_stringIcNS_11char_traitsIcEENS_9allocatorIcEEEES7_EENS_22__unordered_map_hasherIS7_S8_NS_4hashIS7_EENS_8equal_toIS7_EELb1EEENS_21__unordered_map_equalIS7_S8_SD_SB_Lb1EEENS5_IS8_EEE13hash_functionB7v160006Ev, symObjAddr: 0x3FBA8, symBinAddr: 0x100041258, symSize: 0x28 }
  - { offsetInCU: 0x3AEEE, offset: 0x3AEEE, size: 0x8, addend: 0x0, symName: __ZNKSt3__122__unordered_map_hasherINS_12basic_stringIcNS_11char_traitsIcEENS_9allocatorIcEEEENS_17__hash_value_typeIS6_S6_EENS_4hashIS6_EENS_8equal_toIS6_EELb1EEclB7v160006ERKS6_, symObjAddr: 0x3FBD0, symBinAddr: 0x100041280, symSize: 0x2C }
  - { offsetInCU: 0x3AF23, offset: 0x3AF23, size: 0x8, addend: 0x0, symName: __ZNKSt3__112__hash_tableINS_17__hash_value_typeINS_12basic_stringIcNS_11char_traitsIcEENS_9allocatorIcEEEES7_EENS_22__unordered_map_hasherIS7_S8_NS_4hashIS7_EENS_8equal_toIS7_EELb1EEENS_21__unordered_map_equalIS7_S8_SD_SB_Lb1EEENS5_IS8_EEE12bucket_countB7v160006Ev, symObjAddr: 0x3FBFC, symBinAddr: 0x1000412AC, symSize: 0x28 }
  - { offsetInCU: 0x3AF49, offset: 0x3AF49, size: 0x8, addend: 0x0, symName: __ZNKSt3__110unique_ptrIA_PNS_16__hash_node_baseIPNS_11__hash_nodeINS_17__hash_value_typeINS_12basic_stringIcNS_11char_traitsIcEENS_9allocatorIcEEEES9_EEPvEEEENS_25__bucket_list_deallocatorINS7_ISF_EEEEEixB7v160006Em, symObjAddr: 0x3FC24, symBinAddr: 0x1000412D4, symSize: 0x78 }
  - { offsetInCU: 0x3AF7E, offset: 0x3AF7E, size: 0x8, addend: 0x0, symName: __ZNKSt3__116__hash_node_baseIPNS_11__hash_nodeINS_17__hash_value_typeINS_12basic_stringIcNS_11char_traitsIcEENS_9allocatorIcEEEES8_EEPvEEE6__hashB7v160006Ev, symObjAddr: 0x3FC9C, symBinAddr: 0x10004134C, symSize: 0x64 }
  - { offsetInCU: 0x3AFA4, offset: 0x3AFA4, size: 0x8, addend: 0x0, symName: __ZNSt3__112__hash_tableINS_17__hash_value_typeINS_12basic_stringIcNS_11char_traitsIcEENS_9allocatorIcEEEES7_EENS_22__unordered_map_hasherIS7_S8_NS_4hashIS7_EENS_8equal_toIS7_EELb1EEENS_21__unordered_map_equalIS7_S8_SD_SB_Lb1EEENS5_IS8_EEE6key_eqB7v160006Ev, symObjAddr: 0x3FD00, symBinAddr: 0x1000413B0, symSize: 0x28 }
  - { offsetInCU: 0x3AFCA, offset: 0x3AFCA, size: 0x8, addend: 0x0, symName: __ZNKSt3__121__unordered_map_equalINS_12basic_stringIcNS_11char_traitsIcEENS_9allocatorIcEEEENS_17__hash_value_typeIS6_S6_EENS_8equal_toIS6_EENS_4hashIS6_EELb1EEclB7v160006ERKS8_RKS6_, symObjAddr: 0x3FD28, symBinAddr: 0x1000413D8, symSize: 0x48 }
  - { offsetInCU: 0x3B00E, offset: 0x3B00E, size: 0x8, addend: 0x0, symName: __ZNSt3__115__hash_iteratorIPNS_11__hash_nodeINS_17__hash_value_typeINS_12basic_stringIcNS_11char_traitsIcEENS_9allocatorIcEEEES8_EEPvEEEC1B7v160006EPNS_16__hash_node_baseISC_EEPKv, symObjAddr: 0x3FD70, symBinAddr: 0x100041420, symSize: 0x3C }
  - { offsetInCU: 0x3B056, offset: 0x3B056, size: 0x8, addend: 0x0, symName: __ZNSt3__112__hash_tableINS_17__hash_value_typeINS_12basic_stringIcNS_11char_traitsIcEENS_9allocatorIcEEEES7_EENS_22__unordered_map_hasherIS7_S8_NS_4hashIS7_EENS_8equal_toIS7_EELb1EEENS_21__unordered_map_equalIS7_S8_SD_SB_Lb1EEENS5_IS8_EEE3endEv, symObjAddr: 0x3FDAC, symBinAddr: 0x10004145C, symSize: 0x1FC }
  - { offsetInCU: 0x3B07F, offset: 0x3B07F, size: 0x8, addend: 0x0, symName: __ZNSt3__117__compressed_pairImNS_22__unordered_map_hasherINS_12basic_stringIcNS_11char_traitsIcEENS_9allocatorIcEEEENS_17__hash_value_typeIS7_S7_EENS_4hashIS7_EENS_8equal_toIS7_EELb1EEEE6secondB7v160006Ev, symObjAddr: 0x3FFA8, symBinAddr: 0x100041658, symSize: 0x24 }
  - { offsetInCU: 0x3B0A5, offset: 0x3B0A5, size: 0x8, addend: 0x0, symName: __ZNSt3__122__compressed_pair_elemINS_22__unordered_map_hasherINS_12basic_stringIcNS_11char_traitsIcEENS_9allocatorIcEEEENS_17__hash_value_typeIS7_S7_EENS_4hashIS7_EENS_8equal_toIS7_EELb1EEELi1ELb1EE5__getB7v160006Ev, symObjAddr: 0x3FFCC, symBinAddr: 0x10004167C, symSize: 0x14 }
  - { offsetInCU: 0x3B0CB, offset: 0x3B0CB, size: 0x8, addend: 0x0, symName: __ZNKSt3__110unique_ptrIA_PNS_16__hash_node_baseIPNS_11__hash_nodeINS_17__hash_value_typeINS_12basic_stringIcNS_11char_traitsIcEENS_9allocatorIcEEEES9_EEPvEEEENS_25__bucket_list_deallocatorINS7_ISF_EEEEE11get_deleterB7v160006Ev, symObjAddr: 0x3FFE0, symBinAddr: 0x100041690, symSize: 0x24 }
  - { offsetInCU: 0x3B0F1, offset: 0x3B0F1, size: 0x8, addend: 0x0, symName: __ZNKSt3__125__bucket_list_deallocatorINS_9allocatorIPNS_16__hash_node_baseIPNS_11__hash_nodeINS_17__hash_value_typeINS_12basic_stringIcNS_11char_traitsIcEENS1_IcEEEES9_EEPvEEEEEEE4sizeB7v160006Ev, symObjAddr: 0x40004, symBinAddr: 0x1000416B4, symSize: 0x6C }
  - { offsetInCU: 0x3B117, offset: 0x3B117, size: 0x8, addend: 0x0, symName: __ZNKSt3__117__compressed_pairIPPNS_16__hash_node_baseIPNS_11__hash_nodeINS_17__hash_value_typeINS_12basic_stringIcNS_11char_traitsIcEENS_9allocatorIcEEEES9_EEPvEEEENS_25__bucket_list_deallocatorINS7_ISF_EEEEE6secondB7v160006Ev, symObjAddr: 0x40070, symBinAddr: 0x100041720, symSize: 0x28 }
  - { offsetInCU: 0x3B13D, offset: 0x3B13D, size: 0x8, addend: 0x0, symName: __ZNKSt3__122__compressed_pair_elemINS_25__bucket_list_deallocatorINS_9allocatorIPNS_16__hash_node_baseIPNS_11__hash_nodeINS_17__hash_value_typeINS_12basic_stringIcNS_11char_traitsIcEENS2_IcEEEESA_EEPvEEEEEEEELi1ELb0EE5__getB7v160006Ev, symObjAddr: 0x40098, symBinAddr: 0x100041748, symSize: 0x14 }
  - { offsetInCU: 0x3B163, offset: 0x3B163, size: 0x8, addend: 0x0, symName: __ZNKSt3__117__compressed_pairImNS_9allocatorIPNS_16__hash_node_baseIPNS_11__hash_nodeINS_17__hash_value_typeINS_12basic_stringIcNS_11char_traitsIcEENS1_IcEEEES9_EEPvEEEEEEE5firstB7v160006Ev, symObjAddr: 0x400AC, symBinAddr: 0x10004175C, symSize: 0x24 }
  - { offsetInCU: 0x3B189, offset: 0x3B189, size: 0x8, addend: 0x0, symName: __ZNKSt3__117__compressed_pairIPPNS_16__hash_node_baseIPNS_11__hash_nodeINS_17__hash_value_typeINS_12basic_stringIcNS_11char_traitsIcEENS_9allocatorIcEEEES9_EEPvEEEENS_25__bucket_list_deallocatorINS7_ISF_EEEEE5firstB7v160006Ev, symObjAddr: 0x400D0, symBinAddr: 0x100041780, symSize: 0x24 }
  - { offsetInCU: 0x3B1AF, offset: 0x3B1AF, size: 0x8, addend: 0x0, symName: __ZNKSt3__122__compressed_pair_elemIPPNS_16__hash_node_baseIPNS_11__hash_nodeINS_17__hash_value_typeINS_12basic_stringIcNS_11char_traitsIcEENS_9allocatorIcEEEES9_EEPvEEEELi0ELb0EE5__getB7v160006Ev, symObjAddr: 0x400F4, symBinAddr: 0x1000417A4, symSize: 0x14 }
  - { offsetInCU: 0x3B1D5, offset: 0x3B1D5, size: 0x8, addend: 0x0, symName: __ZNSt3__117__compressed_pairIfNS_21__unordered_map_equalINS_12basic_stringIcNS_11char_traitsIcEENS_9allocatorIcEEEENS_17__hash_value_typeIS7_S7_EENS_8equal_toIS7_EENS_4hashIS7_EELb1EEEE6secondB7v160006Ev, symObjAddr: 0x40108, symBinAddr: 0x1000417B8, symSize: 0x24 }
  - { offsetInCU: 0x3B1FB, offset: 0x3B1FB, size: 0x8, addend: 0x0, symName: __ZNSt3__122__compressed_pair_elemINS_21__unordered_map_equalINS_12basic_stringIcNS_11char_traitsIcEENS_9allocatorIcEEEENS_17__hash_value_typeIS7_S7_EENS_8equal_toIS7_EENS_4hashIS7_EELb1EEELi1ELb1EE5__getB7v160006Ev, symObjAddr: 0x4012C, symBinAddr: 0x1000417DC, symSize: 0x14 }
  - { offsetInCU: 0x3B221, offset: 0x3B221, size: 0x8, addend: 0x0, symName: __ZNKSt3__117__hash_value_typeINS_12basic_stringIcNS_11char_traitsIcEENS_9allocatorIcEEEES6_E11__get_valueB7v160006Ev, symObjAddr: 0x40140, symBinAddr: 0x1000417F0, symSize: 0x24 }
  - { offsetInCU: 0x3B247, offset: 0x3B247, size: 0x8, addend: 0x0, symName: __ZNSt3__115__hash_iteratorIPNS_11__hash_nodeINS_17__hash_value_typeINS_12basic_stringIcNS_11char_traitsIcEENS_9allocatorIcEEEES8_EEPvEEEC2B7v160006EPNS_16__hash_node_baseISC_EEPKv, symObjAddr: 0x4019C, symBinAddr: 0x10004184C, symSize: 0x74 }
  - { offsetInCU: 0x3B28F, offset: 0x3B28F, size: 0x8, addend: 0x0, symName: __ZNSt3__119__hash_map_iteratorINS_15__hash_iteratorIPNS_11__hash_nodeINS_17__hash_value_typeINS_12basic_stringIcNS_11char_traitsIcEENS_9allocatorIcEEEES9_EEPvEEEEEC2B7v160006ESE_, symObjAddr: 0x40210, symBinAddr: 0x1000418C0, symSize: 0x204 }
  - { offsetInCU: 0x3B2CD, offset: 0x3B2CD, size: 0x8, addend: 0x0, symName: __ZNSt3__112__hash_tableINS_17__hash_value_typeINS_12basic_stringIcNS_11char_traitsIcEENS_9allocatorIcEEEES7_EENS_22__unordered_map_hasherIS7_S8_NS_4hashIS7_EENS_8equal_toIS7_EELb1EEENS_21__unordered_map_equalIS7_S8_SD_SB_Lb1EEENS5_IS8_EEE25__emplace_unique_key_argsIS7_JRKNS_21piecewise_construct_tENS_5tupleIJRKS7_EEENSN_IJEEEEEENS_4pairINS_15__hash_iteratorIPNS_11__hash_nodeIS8_PvEEEEbEERKT_DpOT0_, symObjAddr: 0x40414, symBinAddr: 0x100041AC4, symSize: 0xDC8 }
  - { offsetInCU: 0x3B3E1, offset: 0x3B3E1, size: 0x8, addend: 0x0, symName: __ZNKSt3__115__hash_iteratorIPNS_11__hash_nodeINS_17__hash_value_typeINS_12basic_stringIcNS_11char_traitsIcEENS_9allocatorIcEEEES8_EEPvEEEptB7v160006Ev, symObjAddr: 0x411DC, symBinAddr: 0x10004288C, symSize: 0x6C }
  - { offsetInCU: 0x3B407, offset: 0x3B407, size: 0x8, addend: 0x0, symName: __ZNSt3__112__hash_tableINS_17__hash_value_typeINS_12basic_stringIcNS_11char_traitsIcEENS_9allocatorIcEEEES7_EENS_22__unordered_map_hasherIS7_S8_NS_4hashIS7_EENS_8equal_toIS7_EELb1EEENS_21__unordered_map_equalIS7_S8_SD_SB_Lb1EEENS5_IS8_EEE21__construct_node_hashIRKNS_21piecewise_construct_tEJNS_5tupleIJRKS7_EEENSN_IJEEEEEENS_10unique_ptrINS_11__hash_nodeIS8_PvEENS_22__hash_node_destructorINS5_ISV_EEEEEEmOT_DpOT0_, symObjAddr: 0x41248, symBinAddr: 0x1000428F8, symSize: 0x428 }
  - { offsetInCU: 0x3B4AA, offset: 0x3B4AA, size: 0x8, addend: 0x0, symName: __ZNSt3__112__hash_tableINS_17__hash_value_typeINS_12basic_stringIcNS_11char_traitsIcEENS_9allocatorIcEEEES7_EENS_22__unordered_map_hasherIS7_S8_NS_4hashIS7_EENS_8equal_toIS7_EELb1EEENS_21__unordered_map_equalIS7_S8_SD_SB_Lb1EEENS5_IS8_EEE4sizeB7v160006Ev, symObjAddr: 0x41670, symBinAddr: 0x100042D20, symSize: 0x28 }
  - { offsetInCU: 0x3B4D0, offset: 0x3B4D0, size: 0x8, addend: 0x0, symName: __ZNSt3__112__hash_tableINS_17__hash_value_typeINS_12basic_stringIcNS_11char_traitsIcEENS_9allocatorIcEEEES7_EENS_22__unordered_map_hasherIS7_S8_NS_4hashIS7_EENS_8equal_toIS7_EELb1EEENS_21__unordered_map_equalIS7_S8_SD_SB_Lb1EEENS5_IS8_EEE15max_load_factorB7v160006Ev, symObjAddr: 0x41698, symBinAddr: 0x100042D48, symSize: 0x28 }
  - { offsetInCU: 0x3B4F6, offset: 0x3B4F6, size: 0x8, addend: 0x0, symName: __ZNSt3__112__hash_tableINS_17__hash_value_typeINS_12basic_stringIcNS_11char_traitsIcEENS_9allocatorIcEEEES7_EENS_22__unordered_map_hasherIS7_S8_NS_4hashIS7_EENS_8equal_toIS7_EELb1EEENS_21__unordered_map_equalIS7_S8_SD_SB_Lb1EEENS5_IS8_EEE15__rehash_uniqueB7v160006Em, symObjAddr: 0x416C0, symBinAddr: 0x100042D70, symSize: 0x2C }
  - { offsetInCU: 0x3B52B, offset: 0x3B52B, size: 0x8, addend: 0x0, symName: __ZNSt3__116__hash_node_baseIPNS_11__hash_nodeINS_17__hash_value_typeINS_12basic_stringIcNS_11char_traitsIcEENS_9allocatorIcEEEES8_EEPvEEE5__ptrB7v160006Ev, symObjAddr: 0x416EC, symBinAddr: 0x100042D9C, symSize: 0x24 }
  - { offsetInCU: 0x3B551, offset: 0x3B551, size: 0x8, addend: 0x0, symName: __ZNKSt3__110unique_ptrINS_11__hash_nodeINS_17__hash_value_typeINS_12basic_stringIcNS_11char_traitsIcEENS_9allocatorIcEEEES8_EEPvEENS_22__hash_node_destructorINS6_ISB_EEEEEptB7v160006Ev, symObjAddr: 0x41710, symBinAddr: 0x100042DC0, symSize: 0x6C }
  - { offsetInCU: 0x3B577, offset: 0x3B577, size: 0x8, addend: 0x0, symName: __ZNKSt3__110unique_ptrINS_11__hash_nodeINS_17__hash_value_typeINS_12basic_stringIcNS_11char_traitsIcEENS_9allocatorIcEEEES8_EEPvEENS_22__hash_node_destructorINS6_ISB_EEEEE3getB7v160006Ev, symObjAddr: 0x4177C, symBinAddr: 0x100042E2C, symSize: 0x6C }
  - { offsetInCU: 0x3B59D, offset: 0x3B59D, size: 0x8, addend: 0x0, symName: __ZNSt3__110unique_ptrINS_11__hash_nodeINS_17__hash_value_typeINS_12basic_stringIcNS_11char_traitsIcEENS_9allocatorIcEEEES8_EEPvEENS_22__hash_node_destructorINS6_ISB_EEEEE7releaseB7v160006Ev, symObjAddr: 0x417E8, symBinAddr: 0x100042E98, symSize: 0xB8 }
  - { offsetInCU: 0x3B5D2, offset: 0x3B5D2, size: 0x8, addend: 0x0, symName: __ZNSt3__110unique_ptrINS_11__hash_nodeINS_17__hash_value_typeINS_12basic_stringIcNS_11char_traitsIcEENS_9allocatorIcEEEES8_EEPvEENS_22__hash_node_destructorINS6_ISB_EEEEED1B7v160006Ev, symObjAddr: 0x418A0, symBinAddr: 0x100042F50, symSize: 0x2C }
  - { offsetInCU: 0x3B602, offset: 0x3B602, size: 0x8, addend: 0x0, symName: __ZNSt3__14pairINS_15__hash_iteratorIPNS_11__hash_nodeINS_17__hash_value_typeINS_12basic_stringIcNS_11char_traitsIcEENS_9allocatorIcEEEES9_EEPvEEEEbEC1B7v160006ISE_RbLSB_0EEEOT_OT0_, symObjAddr: 0x418CC, symBinAddr: 0x100042F7C, symSize: 0x3C }
  - { offsetInCU: 0x3B660, offset: 0x3B660, size: 0x8, addend: 0x0, symName: __ZNSt3__116allocator_traitsINS_9allocatorINS_11__hash_nodeINS_17__hash_value_typeINS_12basic_stringIcNS_11char_traitsIcEENS1_IcEEEES8_EEPvEEEEE8allocateB7v160006ERSC_m, symObjAddr: 0x41908, symBinAddr: 0x100042FB8, symSize: 0x2C }
  - { offsetInCU: 0x3B693, offset: 0x3B693, size: 0x8, addend: 0x0, symName: __ZNSt3__122__hash_node_destructorINS_9allocatorINS_11__hash_nodeINS_17__hash_value_typeINS_12basic_stringIcNS_11char_traitsIcEENS1_IcEEEES8_EEPvEEEEEC1B7v160006ERSC_b, symObjAddr: 0x41934, symBinAddr: 0x100042FE4, symSize: 0x48 }
  - { offsetInCU: 0x3B6E1, offset: 0x3B6E1, size: 0x8, addend: 0x0, symName: __ZNSt3__110unique_ptrINS_11__hash_nodeINS_17__hash_value_typeINS_12basic_stringIcNS_11char_traitsIcEENS_9allocatorIcEEEES8_EEPvEENS_22__hash_node_destructorINS6_ISB_EEEEEC1B7v160006ILb1EvEEPSB_NS_16__dependent_typeINS_27__unique_ptr_deleter_sfinaeISE_EEXT_EE20__good_rval_ref_typeE, symObjAddr: 0x4197C, symBinAddr: 0x10004302C, symSize: 0x3C }
  - { offsetInCU: 0x3B732, offset: 0x3B732, size: 0x8, addend: 0x0, symName: __ZNSt3__116allocator_traitsINS_9allocatorINS_11__hash_nodeINS_17__hash_value_typeINS_12basic_stringIcNS_11char_traitsIcEENS1_IcEEEES8_EEPvEEEEE9constructB7v160006INS_4pairIKS8_S8_EEJRKNS_21piecewise_construct_tENS_5tupleIJRSG_EEENSL_IJEEEEvEEvRSC_PT_DpOT0_, symObjAddr: 0x419B8, symBinAddr: 0x100043068, symSize: 0x44 }
  - { offsetInCU: 0x3B7B1, offset: 0x3B7B1, size: 0x8, addend: 0x0, symName: __ZNSt3__110unique_ptrINS_11__hash_nodeINS_17__hash_value_typeINS_12basic_stringIcNS_11char_traitsIcEENS_9allocatorIcEEEES8_EEPvEENS_22__hash_node_destructorINS6_ISB_EEEEE11get_deleterB7v160006Ev, symObjAddr: 0x419FC, symBinAddr: 0x1000430AC, symSize: 0x24 }
  - { offsetInCU: 0x3B7D7, offset: 0x3B7D7, size: 0x8, addend: 0x0, symName: __ZNSt3__19allocatorINS_11__hash_nodeINS_17__hash_value_typeINS_12basic_stringIcNS_11char_traitsIcEENS0_IcEEEES7_EEPvEEE8allocateB7v160006Em, symObjAddr: 0x41A20, symBinAddr: 0x1000430D0, symSize: 0x5C }
  - { offsetInCU: 0x3B816, offset: 0x3B816, size: 0x8, addend: 0x0, symName: __ZNSt3__116allocator_traitsINS_9allocatorINS_11__hash_nodeINS_17__hash_value_typeINS_12basic_stringIcNS_11char_traitsIcEENS1_IcEEEES8_EEPvEEEEE8max_sizeB7v160006ISC_vEEmRKSC_, symObjAddr: 0x41A7C, symBinAddr: 0x10004312C, symSize: 0x24 }
  - { offsetInCU: 0x3B844, offset: 0x3B844, size: 0x8, addend: 0x0, symName: __ZNKSt3__19allocatorINS_11__hash_nodeINS_17__hash_value_typeINS_12basic_stringIcNS_11char_traitsIcEENS0_IcEEEES7_EEPvEEE8max_sizeB7v160006Ev, symObjAddr: 0x41AA0, symBinAddr: 0x100043150, symSize: 0x14 }
  - { offsetInCU: 0x3B86A, offset: 0x3B86A, size: 0x8, addend: 0x0, symName: __ZNSt3__122__hash_node_destructorINS_9allocatorINS_11__hash_nodeINS_17__hash_value_typeINS_12basic_stringIcNS_11char_traitsIcEENS1_IcEEEES8_EEPvEEEEEC2B7v160006ERSC_b, symObjAddr: 0x41AB4, symBinAddr: 0x100043164, symSize: 0xF0 }
  - { offsetInCU: 0x3B8B2, offset: 0x3B8B2, size: 0x8, addend: 0x0, symName: __ZNSt3__110unique_ptrINS_11__hash_nodeINS_17__hash_value_typeINS_12basic_stringIcNS_11char_traitsIcEENS_9allocatorIcEEEES8_EEPvEENS_22__hash_node_destructorINS6_ISB_EEEEEC2B7v160006ILb1EvEEPSB_NS_16__dependent_typeINS_27__unique_ptr_deleter_sfinaeISE_EEXT_EE20__good_rval_ref_typeE, symObjAddr: 0x41BA4, symBinAddr: 0x100043254, symSize: 0x21C }
  - { offsetInCU: 0x3B909, offset: 0x3B909, size: 0x8, addend: 0x0, symName: __ZNSt3__117__compressed_pairIPNS_11__hash_nodeINS_17__hash_value_typeINS_12basic_stringIcNS_11char_traitsIcEENS_9allocatorIcEEEES8_EEPvEENS_22__hash_node_destructorINS6_ISB_EEEEEC1B7v160006IRSC_SF_EEOT_OT0_, symObjAddr: 0x41DC0, symBinAddr: 0x100043470, symSize: 0x3C }
  - { offsetInCU: 0x3B961, offset: 0x3B961, size: 0x8, addend: 0x0, symName: __ZNSt3__117__compressed_pairIPNS_11__hash_nodeINS_17__hash_value_typeINS_12basic_stringIcNS_11char_traitsIcEENS_9allocatorIcEEEES8_EEPvEENS_22__hash_node_destructorINS6_ISB_EEEEEC2B7v160006IRSC_SF_EEOT_OT0_, symObjAddr: 0x41DFC, symBinAddr: 0x1000434AC, symSize: 0x48 }
  - { offsetInCU: 0x3B9B9, offset: 0x3B9B9, size: 0x8, addend: 0x0, symName: __ZNSt3__122__compressed_pair_elemIPNS_11__hash_nodeINS_17__hash_value_typeINS_12basic_stringIcNS_11char_traitsIcEENS_9allocatorIcEEEES8_EEPvEELi0ELb0EEC2B7v160006IRSC_vEEOT_, symObjAddr: 0x41E44, symBinAddr: 0x1000434F4, symSize: 0xB0 }
  - { offsetInCU: 0x3B9FB, offset: 0x3B9FB, size: 0x8, addend: 0x0, symName: __ZNSt3__122__compressed_pair_elemINS_22__hash_node_destructorINS_9allocatorINS_11__hash_nodeINS_17__hash_value_typeINS_12basic_stringIcNS_11char_traitsIcEENS2_IcEEEES9_EEPvEEEEEELi1ELb0EEC2B7v160006ISE_vEEOT_, symObjAddr: 0x41EF4, symBinAddr: 0x1000435A4, symSize: 0x38 }
  - { offsetInCU: 0x3BA3D, offset: 0x3BA3D, size: 0x8, addend: 0x0, symName: __ZNSt3__19allocatorINS_11__hash_nodeINS_17__hash_value_typeINS_12basic_stringIcNS_11char_traitsIcEENS0_IcEEEES7_EEPvEEE9constructB7v160006INS_4pairIKS7_S7_EEJRKNS_21piecewise_construct_tENS_5tupleIJRSE_EEENSJ_IJEEEEEEvPT_DpOT0_, symObjAddr: 0x41F2C, symBinAddr: 0x1000435DC, symSize: 0x214 }
  - { offsetInCU: 0x3BABE, offset: 0x3BABE, size: 0x8, addend: 0x0, symName: __ZNSt3__14pairIKNS_12basic_stringIcNS_11char_traitsIcEENS_9allocatorIcEEEES6_EC1B7v160006IJRS7_EJEEENS_21piecewise_construct_tENS_5tupleIJDpT_EEENSC_IJDpT0_EEE, symObjAddr: 0x42140, symBinAddr: 0x1000437F0, symSize: 0x234 }
  - { offsetInCU: 0x3BB2F, offset: 0x3BB2F, size: 0x8, addend: 0x0, symName: __ZNSt3__14pairIKNS_12basic_stringIcNS_11char_traitsIcEENS_9allocatorIcEEEES6_EC1B7v160006IJRS7_EJEJLm0EEJEEENS_21piecewise_construct_tERNS_5tupleIJDpT_EEERNSC_IJDpT0_EEENS_15__tuple_indicesIJXspT1_EEEENSL_IJXspT2_EEEE, symObjAddr: 0x42374, symBinAddr: 0x100043A24, symSize: 0x3C }
  - { offsetInCU: 0x3BBBF, offset: 0x3BBBF, size: 0x8, addend: 0x0, symName: __ZNSt3__14pairIKNS_12basic_stringIcNS_11char_traitsIcEENS_9allocatorIcEEEES6_EC2B7v160006IJRS7_EJEJLm0EEJEEENS_21piecewise_construct_tERNS_5tupleIJDpT_EEERNSC_IJDpT0_EEENS_15__tuple_indicesIJXspT1_EEEENSL_IJXspT2_EEEE, symObjAddr: 0x423B0, symBinAddr: 0x100043A60, symSize: 0x50 }
  - { offsetInCU: 0x3BC4F, offset: 0x3BC4F, size: 0x8, addend: 0x0, symName: __ZNSt3__117__compressed_pairIPNS_11__hash_nodeINS_17__hash_value_typeINS_12basic_stringIcNS_11char_traitsIcEENS_9allocatorIcEEEES8_EEPvEENS_22__hash_node_destructorINS6_ISB_EEEEE6secondB7v160006Ev, symObjAddr: 0x42400, symBinAddr: 0x100043AB0, symSize: 0x28 }
  - { offsetInCU: 0x3BC75, offset: 0x3BC75, size: 0x8, addend: 0x0, symName: __ZNSt3__122__compressed_pair_elemINS_22__hash_node_destructorINS_9allocatorINS_11__hash_nodeINS_17__hash_value_typeINS_12basic_stringIcNS_11char_traitsIcEENS2_IcEEEES9_EEPvEEEEEELi1ELb0EE5__getB7v160006Ev, symObjAddr: 0x42428, symBinAddr: 0x100043AD8, symSize: 0x14 }
  - { offsetInCU: 0x3BC9B, offset: 0x3BC9B, size: 0x8, addend: 0x0, symName: __ZNSt3__117__compressed_pairImNS_22__unordered_map_hasherINS_12basic_stringIcNS_11char_traitsIcEENS_9allocatorIcEEEENS_17__hash_value_typeIS7_S7_EENS_4hashIS7_EENS_8equal_toIS7_EELb1EEEE5firstB7v160006Ev, symObjAddr: 0x4243C, symBinAddr: 0x100043AEC, symSize: 0x24 }
  - { offsetInCU: 0x3BCC1, offset: 0x3BCC1, size: 0x8, addend: 0x0, symName: __ZNSt3__117__compressed_pairIfNS_21__unordered_map_equalINS_12basic_stringIcNS_11char_traitsIcEENS_9allocatorIcEEEENS_17__hash_value_typeIS7_S7_EENS_8equal_toIS7_EENS_4hashIS7_EELb1EEEE5firstB7v160006Ev, symObjAddr: 0x42460, symBinAddr: 0x100043B10, symSize: 0x24 }
  - { offsetInCU: 0x3BCE7, offset: 0x3BCE7, size: 0x8, addend: 0x0, symName: __ZNSt3__112__hash_tableINS_17__hash_value_typeINS_12basic_stringIcNS_11char_traitsIcEENS_9allocatorIcEEEES7_EENS_22__unordered_map_hasherIS7_S8_NS_4hashIS7_EENS_8equal_toIS7_EELb1EEENS_21__unordered_map_equalIS7_S8_SD_SB_Lb1EEENS5_IS8_EEE8__rehashILb1EEEvm, symObjAddr: 0x42484, symBinAddr: 0x100043B34, symSize: 0x784 }
  - { offsetInCU: 0x3BD3D, offset: 0x3BD3D, size: 0x8, addend: 0x0, symName: __ZNSt3__112__hash_tableINS_17__hash_value_typeINS_12basic_stringIcNS_11char_traitsIcEENS_9allocatorIcEEEES7_EENS_22__unordered_map_hasherIS7_S8_NS_4hashIS7_EENS_8equal_toIS7_EELb1EEENS_21__unordered_map_equalIS7_S8_SD_SB_Lb1EEENS5_IS8_EEE11__do_rehashILb1EEEvm, symObjAddr: 0x42C08, symBinAddr: 0x1000442B8, symSize: 0x5C4 }
  - { offsetInCU: 0x3BE26, offset: 0x3BE26, size: 0x8, addend: 0x0, symName: __ZNSt3__110unique_ptrIA_PNS_16__hash_node_baseIPNS_11__hash_nodeINS_17__hash_value_typeINS_12basic_stringIcNS_11char_traitsIcEENS_9allocatorIcEEEES9_EEPvEEEENS_25__bucket_list_deallocatorINS7_ISF_EEEEE11get_deleterB7v160006Ev, symObjAddr: 0x431DC, symBinAddr: 0x10004488C, symSize: 0x24 }
  - { offsetInCU: 0x3BE4C, offset: 0x3BE4C, size: 0x8, addend: 0x0, symName: __ZNSt3__110unique_ptrIA_PNS_16__hash_node_baseIPNS_11__hash_nodeINS_17__hash_value_typeINS_12basic_stringIcNS_11char_traitsIcEENS_9allocatorIcEEEES9_EEPvEEEENS_25__bucket_list_deallocatorINS7_ISF_EEEEE5resetB7v160006IPSF_EENS_9enable_ifIXsr28_CheckArrayPointerConversionIT_EE5valueEvE4typeESO_, symObjAddr: 0x43200, symBinAddr: 0x1000448B0, symSize: 0xEC }
  - { offsetInCU: 0x3BE99, offset: 0x3BE99, size: 0x8, addend: 0x0, symName: __ZNSt3__116allocator_traitsINS_9allocatorIPNS_16__hash_node_baseIPNS_11__hash_nodeINS_17__hash_value_typeINS_12basic_stringIcNS_11char_traitsIcEENS1_IcEEEES9_EEPvEEEEEEE8allocateB7v160006ERSG_m, symObjAddr: 0x432EC, symBinAddr: 0x10004499C, symSize: 0x2C }
  - { offsetInCU: 0x3BECC, offset: 0x3BECC, size: 0x8, addend: 0x0, symName: __ZNSt3__19allocatorIPNS_16__hash_node_baseIPNS_11__hash_nodeINS_17__hash_value_typeINS_12basic_stringIcNS_11char_traitsIcEENS0_IcEEEES8_EEPvEEEEE8allocateB7v160006Em, symObjAddr: 0x43318, symBinAddr: 0x1000449C8, symSize: 0x5C }
  - { offsetInCU: 0x3BF0B, offset: 0x3BF0B, size: 0x8, addend: 0x0, symName: __ZNSt3__116allocator_traitsINS_9allocatorIPNS_16__hash_node_baseIPNS_11__hash_nodeINS_17__hash_value_typeINS_12basic_stringIcNS_11char_traitsIcEENS1_IcEEEES9_EEPvEEEEEEE8max_sizeB7v160006ISG_vEEmRKSG_, symObjAddr: 0x43374, symBinAddr: 0x100044A24, symSize: 0x24 }
  - { offsetInCU: 0x3BF39, offset: 0x3BF39, size: 0x8, addend: 0x0, symName: __ZNKSt3__19allocatorIPNS_16__hash_node_baseIPNS_11__hash_nodeINS_17__hash_value_typeINS_12basic_stringIcNS_11char_traitsIcEENS0_IcEEEES8_EEPvEEEEE8max_sizeB7v160006Ev, symObjAddr: 0x43398, symBinAddr: 0x100044A48, symSize: 0x14 }
  - { offsetInCU: 0x3BF5F, offset: 0x3BF5F, size: 0x8, addend: 0x0, symName: __ZNKSt3__117__compressed_pairIPNS_11__hash_nodeINS_17__hash_value_typeINS_12basic_stringIcNS_11char_traitsIcEENS_9allocatorIcEEEES8_EEPvEENS_22__hash_node_destructorINS6_ISB_EEEEE5firstB7v160006Ev, symObjAddr: 0x433AC, symBinAddr: 0x100044A5C, symSize: 0x24 }
  - { offsetInCU: 0x3BF85, offset: 0x3BF85, size: 0x8, addend: 0x0, symName: __ZNKSt3__122__compressed_pair_elemIPNS_11__hash_nodeINS_17__hash_value_typeINS_12basic_stringIcNS_11char_traitsIcEENS_9allocatorIcEEEES8_EEPvEELi0ELb0EE5__getB7v160006Ev, symObjAddr: 0x433D0, symBinAddr: 0x100044A80, symSize: 0x14 }
  - { offsetInCU: 0x3BFAB, offset: 0x3BFAB, size: 0x8, addend: 0x0, symName: __ZNSt3__117__compressed_pairIPNS_11__hash_nodeINS_17__hash_value_typeINS_12basic_stringIcNS_11char_traitsIcEENS_9allocatorIcEEEES8_EEPvEENS_22__hash_node_destructorINS6_ISB_EEEEE5firstB7v160006Ev, symObjAddr: 0x433E4, symBinAddr: 0x100044A94, symSize: 0x24 }
  - { offsetInCU: 0x3BFD1, offset: 0x3BFD1, size: 0x8, addend: 0x0, symName: __ZNSt3__122__compressed_pair_elemIPNS_11__hash_nodeINS_17__hash_value_typeINS_12basic_stringIcNS_11char_traitsIcEENS_9allocatorIcEEEES8_EEPvEELi0ELb0EE5__getB7v160006Ev, symObjAddr: 0x43408, symBinAddr: 0x100044AB8, symSize: 0x14 }
  - { offsetInCU: 0x3BFF7, offset: 0x3BFF7, size: 0x8, addend: 0x0, symName: __ZNSt3__110unique_ptrINS_11__hash_nodeINS_17__hash_value_typeINS_12basic_stringIcNS_11char_traitsIcEENS_9allocatorIcEEEES8_EEPvEENS_22__hash_node_destructorINS6_ISB_EEEEED2B7v160006Ev, symObjAddr: 0x4341C, symBinAddr: 0x100044ACC, symSize: 0x30 }
  - { offsetInCU: 0x3C021, offset: 0x3C021, size: 0x8, addend: 0x0, symName: __ZNSt3__110unique_ptrINS_11__hash_nodeINS_17__hash_value_typeINS_12basic_stringIcNS_11char_traitsIcEENS_9allocatorIcEEEES8_EEPvEENS_22__hash_node_destructorINS6_ISB_EEEEE5resetB7v160006EPSB_, symObjAddr: 0x4344C, symBinAddr: 0x100044AFC, symSize: 0xEC }
  - { offsetInCU: 0x3C065, offset: 0x3C065, size: 0x8, addend: 0x0, symName: __ZNSt3__122__hash_node_destructorINS_9allocatorINS_11__hash_nodeINS_17__hash_value_typeINS_12basic_stringIcNS_11char_traitsIcEENS1_IcEEEES8_EEPvEEEEEclB7v160006EPSB_, symObjAddr: 0x43538, symBinAddr: 0x100044BE8, symSize: 0x164 }
  - { offsetInCU: 0x3C09A, offset: 0x3C09A, size: 0x8, addend: 0x0, symName: __ZNSt3__14pairINS_15__hash_iteratorIPNS_11__hash_nodeINS_17__hash_value_typeINS_12basic_stringIcNS_11char_traitsIcEENS_9allocatorIcEEEES9_EEPvEEEEbEC2B7v160006ISE_RbLSB_0EEEOT_OT0_, symObjAddr: 0x4369C, symBinAddr: 0x100044D4C, symSize: 0x120 }
  - { offsetInCU: 0x3C0F8, offset: 0x3C0F8, size: 0x8, addend: 0x0, symName: __ZNSt3__114pointer_traitsIPNS_17__hash_value_typeINS_12basic_stringIcNS_11char_traitsIcEENS_9allocatorIcEEEES7_EEE10pointer_toB7v160006ERS8_, symObjAddr: 0x437BC, symBinAddr: 0x100044E6C, symSize: 0x14 }
  - { offsetInCU: 0x3C11B, offset: 0x3C11B, size: 0x8, addend: 0x0, symName: __ZNSt3__112basic_stringIcNS_11char_traitsIcEENS_9allocatorIcEEE13__move_assignB7v160006ERS5_NS_17integral_constantIbLb1EEE, symObjAddr: 0x437D0, symBinAddr: 0x100044E80, symSize: 0x2D0 }
  - { offsetInCU: 0x3C161, offset: 0x3C161, size: 0x8, addend: 0x0, symName: __ZNSt3__116allocator_traitsINS_9allocatorIcEEE10deallocateB7v160006ERS2_Pcm, symObjAddr: 0x43AA0, symBinAddr: 0x100045150, symSize: 0x34 }
  - { offsetInCU: 0x3C1A3, offset: 0x3C1A3, size: 0x8, addend: 0x0, symName: __ZNSt3__112basic_stringIcNS_11char_traitsIcEENS_9allocatorIcEEE7__allocB7v160006Ev, symObjAddr: 0x43AD4, symBinAddr: 0x100045184, symSize: 0x24 }
  - { offsetInCU: 0x3C1C9, offset: 0x3C1C9, size: 0x8, addend: 0x0, symName: __ZNKSt3__112basic_stringIcNS_11char_traitsIcEENS_9allocatorIcEEE14__get_long_capB7v160006Ev, symObjAddr: 0x43AF8, symBinAddr: 0x1000451A8, symSize: 0x78 }
  - { offsetInCU: 0x3C1EF, offset: 0x3C1EF, size: 0x8, addend: 0x0, symName: __ZNSt3__112basic_stringIcNS_11char_traitsIcEENS_9allocatorIcEEE19__move_assign_allocB7v160006ERS5_, symObjAddr: 0x43B70, symBinAddr: 0x100045220, symSize: 0x2C }
  - { offsetInCU: 0x3C224, offset: 0x3C224, size: 0x8, addend: 0x0, symName: __ZNSt3__19allocatorIcE10deallocateB7v160006EPcm, symObjAddr: 0x43B9C, symBinAddr: 0x10004524C, symSize: 0x4C }
  - { offsetInCU: 0x3C266, offset: 0x3C266, size: 0x8, addend: 0x0, symName: __ZNSt3__117__compressed_pairINS_12basic_stringIcNS_11char_traitsIcEENS_9allocatorIcEEE5__repES5_E6secondB7v160006Ev, symObjAddr: 0x43BE8, symBinAddr: 0x100045298, symSize: 0x24 }
  - { offsetInCU: 0x3C28C, offset: 0x3C28C, size: 0x8, addend: 0x0, symName: __ZNSt3__122__compressed_pair_elemINS_9allocatorIcEELi1ELb1EE5__getB7v160006Ev, symObjAddr: 0x43C0C, symBinAddr: 0x1000452BC, symSize: 0x14 }
  - { offsetInCU: 0x3C2B2, offset: 0x3C2B2, size: 0x8, addend: 0x0, symName: __ZNSt3__112basic_stringIcNS_11char_traitsIcEENS_9allocatorIcEEE19__move_assign_allocB7v160006ERS5_NS_17integral_constantIbLb1EEE, symObjAddr: 0x43C20, symBinAddr: 0x1000452D0, symSize: 0x38 }
  - { offsetInCU: 0x3C2F3, offset: 0x3C2F3, size: 0x8, addend: 0x0, symName: __ZN6SorterINSt3__112basic_stringIcNS0_11char_traitsIcEENS0_9allocatorIcEEEEEC2Ei, symObjAddr: 0x43C58, symBinAddr: 0x100045308, symSize: 0x98 }
  - { offsetInCU: 0x3C32B, offset: 0x3C32B, size: 0x8, addend: 0x0, symName: __ZNSt3__113unordered_mapINS_12basic_stringIcNS_11char_traitsIcEENS_9allocatorIcEEEES6_NS_4hashIS6_EENS_8equal_toIS6_EENS4_INS_4pairIKS6_S6_EEEEE5beginB7v160006Ev, symObjAddr: 0x43CF0, symBinAddr: 0x1000453A0, symSize: 0x2B4 }
  - { offsetInCU: 0x3C352, offset: 0x3C352, size: 0x8, addend: 0x0, symName: __ZNKSt3__119__hash_map_iteratorINS_15__hash_iteratorIPNS_11__hash_nodeINS_17__hash_value_typeINS_12basic_stringIcNS_11char_traitsIcEENS_9allocatorIcEEEES9_EEPvEEEEEdeB7v160006Ev, symObjAddr: 0x43FD4, symBinAddr: 0x100045684, symSize: 0x28 }
  - { offsetInCU: 0x3C378, offset: 0x3C378, size: 0x8, addend: 0x0, symName: __ZNSt3__119__hash_map_iteratorINS_15__hash_iteratorIPNS_11__hash_nodeINS_17__hash_value_typeINS_12basic_stringIcNS_11char_traitsIcEENS_9allocatorIcEEEES9_EEPvEEEEEppB7v160006Ev, symObjAddr: 0x44044, symBinAddr: 0x1000456F4, symSize: 0x2C }
  - { offsetInCU: 0x3C39E, offset: 0x3C39E, size: 0x8, addend: 0x0, symName: __ZNSt3__112__hash_tableINS_17__hash_value_typeINS_12basic_stringIcNS_11char_traitsIcEENS_9allocatorIcEEEES7_EENS_22__unordered_map_hasherIS7_S8_NS_4hashIS7_EENS_8equal_toIS7_EELb1EEENS_21__unordered_map_equalIS7_S8_SD_SB_Lb1EEENS5_IS8_EEE5beginEv, symObjAddr: 0x44070, symBinAddr: 0x100045720, symSize: 0x244 }
  - { offsetInCU: 0x3C3C7, offset: 0x3C3C7, size: 0x8, addend: 0x0, symName: __ZNSt3__110__get_pairILm0EE3getB7v160006IKNS_12basic_stringIcNS_11char_traitsIcEENS_9allocatorIcEEEES8_EERKT_RKNS_4pairISA_T0_EE, symObjAddr: 0x442E8, symBinAddr: 0x100045998, symSize: 0x14 }
  - { offsetInCU: 0x3C3FD, offset: 0x3C3FD, size: 0x8, addend: 0x0, symName: __ZNSt3__110__get_pairILm1EE3getB7v160006IKNS_12basic_stringIcNS_11char_traitsIcEENS_9allocatorIcEEEES8_EERKT0_RKNS_4pairIT_SA_EE, symObjAddr: 0x442FC, symBinAddr: 0x1000459AC, symSize: 0x18 }
  - { offsetInCU: 0x3C433, offset: 0x3C433, size: 0x8, addend: 0x0, symName: __ZNSt3__115__hash_iteratorIPNS_11__hash_nodeINS_17__hash_value_typeINS_12basic_stringIcNS_11char_traitsIcEENS_9allocatorIcEEEES8_EEPvEEEppB7v160006Ev, symObjAddr: 0x44314, symBinAddr: 0x1000459C4, symSize: 0xDC }
  - { offsetInCU: 0x3C459, offset: 0x3C459, size: 0x8, addend: 0x0, symName: __ZN6SorterINSt3__112basic_stringIcNS0_11char_traitsIcEENS0_9allocatorIcEEEEE21divideIntoSortedFilesERNS0_6vectorIS6_NS4_IS6_EEEE, symObjAddr: 0x443F0, symBinAddr: 0x100045AA0, symSize: 0xBD4 }
  - { offsetInCU: 0x3C539, offset: 0x3C539, size: 0x8, addend: 0x0, symName: __ZN6SorterINSt3__112basic_stringIcNS0_11char_traitsIcEENS0_9allocatorIcEEEEE10mergeFilesEiS6_, symObjAddr: 0x44FC4, symBinAddr: 0x100046674, symSize: 0xAC4 }
  - { offsetInCU: 0x3C64B, offset: 0x3C64B, size: 0x8, addend: 0x0, symName: __ZNKSt3__111__wrap_iterIPNS_12basic_stringIcNS_11char_traitsIcEENS_9allocatorIcEEEEEplB7v160006El, symObjAddr: 0x45A88, symBinAddr: 0x100047138, symSize: 0x20C }
  - { offsetInCU: 0x3C694, offset: 0x3C694, size: 0x8, addend: 0x0, symName: __ZNSt3__16vectorINS_12basic_stringIcNS_11char_traitsIcEENS_9allocatorIcEEEENS4_IS6_EEEC1INS_11__wrap_iterIPS6_EELi0EEET_SD_, symObjAddr: 0x45CC0, symBinAddr: 0x100047370, symSize: 0x2FC }
  - { offsetInCU: 0x3C6F6, offset: 0x3C6F6, size: 0x8, addend: 0x0, symName: __ZNSt3__111__wrap_iterIPNS_12basic_stringIcNS_11char_traitsIcEENS_9allocatorIcEEEEEpLB7v160006El, symObjAddr: 0x46304, symBinAddr: 0x1000479B4, symSize: 0x80 }
  - { offsetInCU: 0x3C735, offset: 0x3C735, size: 0x8, addend: 0x0, symName: __ZNKSt3__16__lessIiiEclB7v160006ERKiS3_, symObjAddr: 0x4656C, symBinAddr: 0x100047C1C, symSize: 0x10C }
  - { offsetInCU: 0x3C777, offset: 0x3C777, size: 0x8, addend: 0x0, symName: __ZNSt3__16vectorINS_12basic_stringIcNS_11char_traitsIcEENS_9allocatorIcEEEENS4_IS6_EEEC2INS_11__wrap_iterIPS6_EELi0EEET_SD_, symObjAddr: 0x46678, symBinAddr: 0x100047D28, symSize: 0x6EC }
  - { offsetInCU: 0x3C803, offset: 0x3C803, size: 0x8, addend: 0x0, symName: __ZNSt3__16vectorINS_12basic_stringIcNS_11char_traitsIcEENS_9allocatorIcEEEENS4_IS6_EEE18__construct_at_endINS_11__wrap_iterIPS6_EELi0EEEvT_SD_m, symObjAddr: 0x470B4, symBinAddr: 0x100048764, symSize: 0x548 }
  - { offsetInCU: 0x3C895, offset: 0x3C895, size: 0x8, addend: 0x0, symName: __ZNSt3__116_UnwrapAlgPolicyIRNS_6__lessINS_12basic_stringIcNS_11char_traitsIcEENS_9allocatorIcEEEES7_EEE10__get_compB7v160006ES9_, symObjAddr: 0x48BB0, symBinAddr: 0x10004A260, symSize: 0x14 }
  - { offsetInCU: 0x3C8B8, offset: 0x3C8B8, size: 0x8, addend: 0x0, symName: __ZNKSt3__16__lessINS_12basic_stringIcNS_11char_traitsIcEENS_9allocatorIcEEEES6_EclB7v160006ERKS6_S9_, symObjAddr: 0x4AA7C, symBinAddr: 0x10004C12C, symSize: 0x34 }
  - { offsetInCU: 0x3C8FA, offset: 0x3C8FA, size: 0x8, addend: 0x0, symName: __ZNSt3__18_IterOpsINS_17_ClassicAlgPolicyEE9iter_swapB7v160006IRPNS_12basic_stringIcNS_11char_traitsIcEENS_9allocatorIcEEEESB_EEvOT_OT0_, symObjAddr: 0x4AAB0, symBinAddr: 0x10004C160, symSize: 0xB0 }
  - { offsetInCU: 0x3C93D, offset: 0x3C93D, size: 0x8, addend: 0x0, symName: __ZNKSt3__112basic_stringIcNS_11char_traitsIcEENS_9allocatorIcEEE7compareB7v160006ERKS5_, symObjAddr: 0x4C7A0, symBinAddr: 0x10004DE50, symSize: 0x238 }
  - { offsetInCU: 0x3C976, offset: 0x3C976, size: 0x8, addend: 0x0, symName: __ZNKSt3__112basic_stringIcNS_11char_traitsIcEENS_9allocatorIcEEE7compareINS_17basic_string_viewIcS2_EEEENS_9enable_ifIXsr33__can_be_converted_to_string_viewIcS2_T_EE5valueEiE4typeERKSA_, symObjAddr: 0x4C9D8, symBinAddr: 0x10004E088, symSize: 0x4E4 }
  - { offsetInCU: 0x3CA01, offset: 0x3CA01, size: 0x8, addend: 0x0, symName: __ZNKSt3__112basic_stringIcNS_11char_traitsIcEENS_9allocatorIcEEEcvNS_17basic_string_viewIcS2_EEB7v160006Ev, symObjAddr: 0x4CEBC, symBinAddr: 0x10004E56C, symSize: 0x228 }
  - { offsetInCU: 0x3CA28, offset: 0x3CA28, size: 0x8, addend: 0x0, symName: __ZNKSt3__117basic_string_viewIcNS_11char_traitsIcEEE4sizeB7v160006Ev, symObjAddr: 0x4D0E4, symBinAddr: 0x10004E794, symSize: 0x64 }
  - { offsetInCU: 0x3CA4E, offset: 0x3CA4E, size: 0x8, addend: 0x0, symName: __ZNKSt3__117basic_string_viewIcNS_11char_traitsIcEEE4dataB7v160006Ev, symObjAddr: 0x4D148, symBinAddr: 0x10004E7F8, symSize: 0x60 }
  - { offsetInCU: 0x3CA74, offset: 0x3CA74, size: 0x8, addend: 0x0, symName: __ZNSt3__117basic_string_viewIcNS_11char_traitsIcEEEC1B7v160006EPKcm, symObjAddr: 0x4D1A8, symBinAddr: 0x10004E858, symSize: 0x3C }
  - { offsetInCU: 0x3CABC, offset: 0x3CABC, size: 0x8, addend: 0x0, symName: __ZNSt3__117basic_string_viewIcNS_11char_traitsIcEEEC2B7v160006EPKcm, symObjAddr: 0x4D1E4, symBinAddr: 0x10004E894, symSize: 0xE0 }
  - { offsetInCU: 0x3CB04, offset: 0x3CB04, size: 0x8, addend: 0x0, symName: __ZNSt3__112basic_stringIcNS_11char_traitsIcEENS_9allocatorIcEEE4swapB7v160006ERS5_, symObjAddr: 0x4D31C, symBinAddr: 0x10004E9CC, symSize: 0xA8 }
  - { offsetInCU: 0x3CB3B, offset: 0x3CB3B, size: 0x8, addend: 0x0, symName: __ZNSt3__18_IterOpsINS_17_ClassicAlgPolicyEE11__iter_moveB7v160006IRPNS_12basic_stringIcNS_11char_traitsIcEENS_9allocatorIcEEEEEENS_9enable_ifIXsr12is_referenceIDTdeclsr3stdE7declvalIRT_EEEEE5valueEDTclsr3stdE4movedeclsr3stdE7declvalISE_EEEEE4typeEOSD_, symObjAddr: 0x4DC40, symBinAddr: 0x10004F2F0, symSize: 0x6C }
  - { offsetInCU: 0x3CB67, offset: 0x3CB67, size: 0x8, addend: 0x0, symName: __ZNSt3__18_IterOpsINS_17_ClassicAlgPolicyEE25__validate_iter_referenceB7v160006IRPNS_12basic_stringIcNS_11char_traitsIcEENS_9allocatorIcEEEEEEvv, symObjAddr: 0x4DCAC, symBinAddr: 0x10004F35C, symSize: 0x4 }
  - { offsetInCU: 0x3CB85, offset: 0x3CB85, size: 0x8, addend: 0x0, symName: __ZNSt3__18_IterOpsINS_17_ClassicAlgPolicyEE4nextB7v160006IPNS_12basic_stringIcNS_11char_traitsIcEENS_9allocatorIcEEEEEET_SB_SB_, symObjAddr: 0x4DCB0, symBinAddr: 0x10004F360, symSize: 0x18 }
  - { offsetInCU: 0x3CBBB, offset: 0x3CBBB, size: 0x8, addend: 0x0, symName: __ZNSt3__118__unwrap_iter_implINS_11__wrap_iterIPNS_12basic_stringIcNS_11char_traitsIcEENS_9allocatorIcEEEEEELb1EE8__unwrapB7v160006ES9_, symObjAddr: 0x50390, symBinAddr: 0x100051A40, symSize: 0x1F0 }
  - { offsetInCU: 0x3CBEE, offset: 0x3CBEE, size: 0x8, addend: 0x0, symName: __ZNSt3__119__to_address_helperINS_11__wrap_iterIPNS_12basic_stringIcNS_11char_traitsIcEENS_9allocatorIcEEEEEEvE6__callB7v160006ERKS9_, symObjAddr: 0x505A4, symBinAddr: 0x100051C54, symSize: 0x200 }
  - { offsetInCU: 0x3CC12, offset: 0x3CC12, size: 0x8, addend: 0x0, symName: __ZNSt3__114pointer_traitsINS_11__wrap_iterIPNS_12basic_stringIcNS_11char_traitsIcEENS_9allocatorIcEEEEEEE10to_addressB7v160006ES9_, symObjAddr: 0x507A4, symBinAddr: 0x100051E54, symSize: 0x1F4 }
  - { offsetInCU: 0x3CC3A, offset: 0x3CC3A, size: 0x8, addend: 0x0, symName: __ZNSt3__16vectorINS_14basic_ifstreamIcNS_11char_traitsIcEEEENS_9allocatorIS4_EEEC1Em, symObjAddr: 0x50998, symBinAddr: 0x100052048, symSize: 0x34 }
  - { offsetInCU: 0x3CC75, offset: 0x3CC75, size: 0x8, addend: 0x0, symName: __ZNSt3__16vectorINS_14basic_ifstreamIcNS_11char_traitsIcEEEENS_9allocatorIS4_EEEixB7v160006Em, symObjAddr: 0x509CC, symBinAddr: 0x10005207C, symSize: 0x74 }
  - { offsetInCU: 0x3CCFC, offset: 0x3CCFC, size: 0x8, addend: 0x0, symName: __ZNSt3__114priority_queueIN6SorterINS_12basic_stringIcNS_11char_traitsIcEENS_9allocatorIcEEEEE9QueueNodeENS_6vectorIS9_NS5_IS9_EEEENS_7greaterIvEEEC1B7v160006Ev, symObjAddr: 0x50A40, symBinAddr: 0x1000520F0, symSize: 0x2C }
  - { offsetInCU: 0x3CD26, offset: 0x3CD26, size: 0x8, addend: 0x0, symName: __ZNSt3__114priority_queueIN6SorterINS_12basic_stringIcNS_11char_traitsIcEENS_9allocatorIcEEEEE9QueueNodeENS_6vectorIS9_NS5_IS9_EEEENS_7greaterIvEEE4pushEOS9_, symObjAddr: 0x50A6C, symBinAddr: 0x10005211C, symSize: 0x310 }
  - { offsetInCU: 0x3CD5F, offset: 0x3CD5F, size: 0x8, addend: 0x0, symName: __ZN6SorterINSt3__112basic_stringIcNS0_11char_traitsIcEENS0_9allocatorIcEEEEE9QueueNodeC1ES6_i, symObjAddr: 0x50D7C, symBinAddr: 0x10005242C, symSize: 0x3C }
  - { offsetInCU: 0x3CDA6, offset: 0x3CDA6, size: 0x8, addend: 0x0, symName: __ZN6SorterINSt3__112basic_stringIcNS0_11char_traitsIcEENS0_9allocatorIcEEEEE9QueueNodeD1Ev, symObjAddr: 0x50DB8, symBinAddr: 0x100052468, symSize: 0x2C }
  - { offsetInCU: 0x3CDD2, offset: 0x3CDD2, size: 0x8, addend: 0x0, symName: __ZNKSt3__114priority_queueIN6SorterINS_12basic_stringIcNS_11char_traitsIcEENS_9allocatorIcEEEEE9QueueNodeENS_6vectorIS9_NS5_IS9_EEEENS_7greaterIvEEE5emptyB7v160006Ev, symObjAddr: 0x50DE4, symBinAddr: 0x100052494, symSize: 0x28 }
  - { offsetInCU: 0x3CDF8, offset: 0x3CDF8, size: 0x8, addend: 0x0, symName: __ZNKSt3__114priority_queueIN6SorterINS_12basic_stringIcNS_11char_traitsIcEENS_9allocatorIcEEEEE9QueueNodeENS_6vectorIS9_NS5_IS9_EEEENS_7greaterIvEEE3topB7v160006Ev, symObjAddr: 0x50E0C, symBinAddr: 0x1000524BC, symSize: 0x24 }
  - { offsetInCU: 0x3CE1E, offset: 0x3CE1E, size: 0x8, addend: 0x0, symName: __ZN6SorterINSt3__112basic_stringIcNS0_11char_traitsIcEENS0_9allocatorIcEEEEE9QueueNodeC1ERKS8_, symObjAddr: 0x50E30, symBinAddr: 0x1000524E0, symSize: 0x34 }
  - { offsetInCU: 0x3CE53, offset: 0x3CE53, size: 0x8, addend: 0x0, symName: __ZNSt3__114priority_queueIN6SorterINS_12basic_stringIcNS_11char_traitsIcEENS_9allocatorIcEEEEE9QueueNodeENS_6vectorIS9_NS5_IS9_EEEENS_7greaterIvEEE3popEv, symObjAddr: 0x50E64, symBinAddr: 0x100052514, symSize: 0x308 }
  - { offsetInCU: 0x3CE7C, offset: 0x3CE7C, size: 0x8, addend: 0x0, symName: __ZNSt3__114priority_queueIN6SorterINS_12basic_stringIcNS_11char_traitsIcEENS_9allocatorIcEEEEE9QueueNodeENS_6vectorIS9_NS5_IS9_EEEENS_7greaterIvEEE4pushERKS9_, symObjAddr: 0x5116C, symBinAddr: 0x10005281C, symSize: 0x310 }
  - { offsetInCU: 0x3CEB5, offset: 0x3CEB5, size: 0x8, addend: 0x0, symName: __ZNSt3__114priority_queueIN6SorterINS_12basic_stringIcNS_11char_traitsIcEENS_9allocatorIcEEEEE9QueueNodeENS_6vectorIS9_NS5_IS9_EEEENS_7greaterIvEEED1Ev, symObjAddr: 0x5147C, symBinAddr: 0x100052B2C, symSize: 0x2C }
  - { offsetInCU: 0x3CEE2, offset: 0x3CEE2, size: 0x8, addend: 0x0, symName: __ZNSt3__16vectorINS_14basic_ifstreamIcNS_11char_traitsIcEEEENS_9allocatorIS4_EEED1B7v160006Ev, symObjAddr: 0x514A8, symBinAddr: 0x100052B58, symSize: 0x2C }
  - { offsetInCU: 0x3CF0C, offset: 0x3CF0C, size: 0x8, addend: 0x0, symName: __ZNSt3__16vectorINS_14basic_ifstreamIcNS_11char_traitsIcEEEENS_9allocatorIS4_EEEC2Em, symObjAddr: 0x514D4, symBinAddr: 0x100052B84, symSize: 0x49C }
  - { offsetInCU: 0x3CF62, offset: 0x3CF62, size: 0x8, addend: 0x0, symName: __ZNSt3__117__compressed_pairIPNS_14basic_ifstreamIcNS_11char_traitsIcEEEENS_9allocatorIS4_EEEC1B7v160006IDnNS_18__default_init_tagEEEOT_OT0_, symObjAddr: 0x51970, symBinAddr: 0x100053020, symSize: 0x3C }
  - { offsetInCU: 0x3CFBA, offset: 0x3CFBA, size: 0x8, addend: 0x0, symName: __ZNSt3__16vectorINS_14basic_ifstreamIcNS_11char_traitsIcEEEENS_9allocatorIS4_EEE16__destroy_vectorC1ERS7_, symObjAddr: 0x51C24, symBinAddr: 0x1000532D4, symSize: 0x34 }
  - { offsetInCU: 0x3CFF3, offset: 0x3CFF3, size: 0x8, addend: 0x0, symName: __ZNSt3__16vectorINS_14basic_ifstreamIcNS_11char_traitsIcEEEENS_9allocatorIS4_EEE11__vallocateB7v160006Em, symObjAddr: 0x51C68, symBinAddr: 0x100053318, symSize: 0x428 }
  - { offsetInCU: 0x3D03D, offset: 0x3D03D, size: 0x8, addend: 0x0, symName: __ZNSt3__16vectorINS_14basic_ifstreamIcNS_11char_traitsIcEEEENS_9allocatorIS4_EEE18__construct_at_endEm, symObjAddr: 0x52090, symBinAddr: 0x100053740, symSize: 0x3E4 }
  - { offsetInCU: 0x3D0B8, offset: 0x3D0B8, size: 0x8, addend: 0x0, symName: __ZNSt3__128__exception_guard_exceptionsINS_6vectorINS_14basic_ifstreamIcNS_11char_traitsIcEEEENS_9allocatorIS5_EEE16__destroy_vectorEE10__completeB7v160006Ev, symObjAddr: 0x52474, symBinAddr: 0x100053B24, symSize: 0x8C }
  - { offsetInCU: 0x3D0DE, offset: 0x3D0DE, size: 0x8, addend: 0x0, symName: __ZNSt3__128__exception_guard_exceptionsINS_6vectorINS_14basic_ifstreamIcNS_11char_traitsIcEEEENS_9allocatorIS5_EEE16__destroy_vectorEED1B7v160006Ev, symObjAddr: 0x52500, symBinAddr: 0x100053BB0, symSize: 0x2C }
  - { offsetInCU: 0x3D108, offset: 0x3D108, size: 0x8, addend: 0x0, symName: __ZNSt3__117__compressed_pairIPNS_14basic_ifstreamIcNS_11char_traitsIcEEEENS_9allocatorIS4_EEEC2B7v160006IDnNS_18__default_init_tagEEEOT_OT0_, symObjAddr: 0x5252C, symBinAddr: 0x100053BDC, symSize: 0x40 }
  - { offsetInCU: 0x3D160, offset: 0x3D160, size: 0x8, addend: 0x0, symName: __ZNSt3__122__compressed_pair_elemIPNS_14basic_ifstreamIcNS_11char_traitsIcEEEELi0ELb0EEC2B7v160006IDnvEEOT_, symObjAddr: 0x5256C, symBinAddr: 0x100053C1C, symSize: 0x64 }
  - { offsetInCU: 0x3D1A2, offset: 0x3D1A2, size: 0x8, addend: 0x0, symName: __ZNSt3__122__compressed_pair_elemINS_9allocatorINS_14basic_ifstreamIcNS_11char_traitsIcEEEEEELi1ELb1EEC2B7v160006ENS_18__default_init_tagE, symObjAddr: 0x525D0, symBinAddr: 0x100053C80, symSize: 0x2C }
  - { offsetInCU: 0x3D1D6, offset: 0x3D1D6, size: 0x8, addend: 0x0, symName: __ZNSt3__19allocatorINS_14basic_ifstreamIcNS_11char_traitsIcEEEEEC2B7v160006Ev, symObjAddr: 0x525FC, symBinAddr: 0x100053CAC, symSize: 0x2C }
  - { offsetInCU: 0x3D200, offset: 0x3D200, size: 0x8, addend: 0x0, symName: __ZNSt3__116__non_trivial_ifILb1ENS_9allocatorINS_14basic_ifstreamIcNS_11char_traitsIcEEEEEEEC2B7v160006Ev, symObjAddr: 0x52628, symBinAddr: 0x100053CD8, symSize: 0x14 }
  - { offsetInCU: 0x3D22A, offset: 0x3D22A, size: 0x8, addend: 0x0, symName: __ZNSt3__128__exception_guard_exceptionsINS_6vectorINS_14basic_ifstreamIcNS_11char_traitsIcEEEENS_9allocatorIS5_EEE16__destroy_vectorEEC1B7v160006ES9_, symObjAddr: 0x5263C, symBinAddr: 0x100053CEC, symSize: 0x238 }
  - { offsetInCU: 0x3D267, offset: 0x3D267, size: 0x8, addend: 0x0, symName: __ZNSt3__128__exception_guard_exceptionsINS_6vectorINS_14basic_ifstreamIcNS_11char_traitsIcEEEENS_9allocatorIS5_EEE16__destroy_vectorEEC2B7v160006ES9_, symObjAddr: 0x52874, symBinAddr: 0x100053F24, symSize: 0x264 }
  - { offsetInCU: 0x3D2A4, offset: 0x3D2A4, size: 0x8, addend: 0x0, symName: __ZNSt3__16vectorINS_14basic_ifstreamIcNS_11char_traitsIcEEEENS_9allocatorIS4_EEE16__destroy_vectorC2ERS7_, symObjAddr: 0x52AD8, symBinAddr: 0x100054188, symSize: 0x70 }
  - { offsetInCU: 0x3D2DD, offset: 0x3D2DD, size: 0x8, addend: 0x0, symName: __ZNKSt3__16vectorINS_14basic_ifstreamIcNS_11char_traitsIcEEEENS_9allocatorIS4_EEE8max_sizeEv, symObjAddr: 0x52B48, symBinAddr: 0x1000541F8, symSize: 0x2FC }
  - { offsetInCU: 0x3D306, offset: 0x3D306, size: 0x8, addend: 0x0, symName: __ZNKSt3__16vectorINS_14basic_ifstreamIcNS_11char_traitsIcEEEENS_9allocatorIS4_EEE20__throw_length_errorB7v160006Ev, symObjAddr: 0x52E44, symBinAddr: 0x1000544F4, symSize: 0x20 }
  - { offsetInCU: 0x3D32C, offset: 0x3D32C, size: 0x8, addend: 0x0, symName: __ZNSt3__16vectorINS_14basic_ifstreamIcNS_11char_traitsIcEEEENS_9allocatorIS4_EEE7__allocB7v160006Ev, symObjAddr: 0x530F0, symBinAddr: 0x1000547A0, symSize: 0x28 }
  - { offsetInCU: 0x3D352, offset: 0x3D352, size: 0x8, addend: 0x0, symName: __ZNSt3__16vectorINS_14basic_ifstreamIcNS_11char_traitsIcEEEENS_9allocatorIS4_EEE9__end_capB7v160006Ev, symObjAddr: 0x53118, symBinAddr: 0x1000547C8, symSize: 0x28 }
  - { offsetInCU: 0x3D378, offset: 0x3D378, size: 0x8, addend: 0x0, symName: __ZNKSt3__16vectorINS_14basic_ifstreamIcNS_11char_traitsIcEEEENS_9allocatorIS4_EEE14__annotate_newB7v160006Em, symObjAddr: 0x53140, symBinAddr: 0x1000547F0, symSize: 0xDC }
  - { offsetInCU: 0x3D3B8, offset: 0x3D3B8, size: 0x8, addend: 0x0, symName: __ZNSt3__116allocator_traitsINS_9allocatorINS_14basic_ifstreamIcNS_11char_traitsIcEEEEEEE8max_sizeB7v160006IS6_vEEmRKS6_, symObjAddr: 0x5321C, symBinAddr: 0x1000548CC, symSize: 0x24 }
  - { offsetInCU: 0x3D3E6, offset: 0x3D3E6, size: 0x8, addend: 0x0, symName: __ZNKSt3__16vectorINS_14basic_ifstreamIcNS_11char_traitsIcEEEENS_9allocatorIS4_EEE7__allocB7v160006Ev, symObjAddr: 0x53240, symBinAddr: 0x1000548F0, symSize: 0x28 }
  - { offsetInCU: 0x3D40C, offset: 0x3D40C, size: 0x8, addend: 0x0, symName: __ZNKSt3__19allocatorINS_14basic_ifstreamIcNS_11char_traitsIcEEEEE8max_sizeB7v160006Ev, symObjAddr: 0x53268, symBinAddr: 0x100054918, symSize: 0x20 }
  - { offsetInCU: 0x3D432, offset: 0x3D432, size: 0x8, addend: 0x0, symName: __ZNKSt3__117__compressed_pairIPNS_14basic_ifstreamIcNS_11char_traitsIcEEEENS_9allocatorIS4_EEE6secondB7v160006Ev, symObjAddr: 0x53288, symBinAddr: 0x100054938, symSize: 0x24 }
  - { offsetInCU: 0x3D458, offset: 0x3D458, size: 0x8, addend: 0x0, symName: __ZNKSt3__122__compressed_pair_elemINS_9allocatorINS_14basic_ifstreamIcNS_11char_traitsIcEEEEEELi1ELb1EE5__getB7v160006Ev, symObjAddr: 0x532AC, symBinAddr: 0x10005495C, symSize: 0x14 }
  - { offsetInCU: 0x3D47E, offset: 0x3D47E, size: 0x8, addend: 0x0, symName: __ZNSt3__19allocatorINS_14basic_ifstreamIcNS_11char_traitsIcEEEEE8allocateB7v160006Em, symObjAddr: 0x532C0, symBinAddr: 0x100054970, symSize: 0x60 }
  - { offsetInCU: 0x3D4B2, offset: 0x3D4B2, size: 0x8, addend: 0x0, symName: __ZNSt3__117__compressed_pairIPNS_14basic_ifstreamIcNS_11char_traitsIcEEEENS_9allocatorIS4_EEE6secondB7v160006Ev, symObjAddr: 0x53320, symBinAddr: 0x1000549D0, symSize: 0x24 }
  - { offsetInCU: 0x3D4D8, offset: 0x3D4D8, size: 0x8, addend: 0x0, symName: __ZNSt3__122__compressed_pair_elemINS_9allocatorINS_14basic_ifstreamIcNS_11char_traitsIcEEEEEELi1ELb1EE5__getB7v160006Ev, symObjAddr: 0x53344, symBinAddr: 0x1000549F4, symSize: 0x14 }
  - { offsetInCU: 0x3D4FE, offset: 0x3D4FE, size: 0x8, addend: 0x0, symName: __ZNSt3__117__compressed_pairIPNS_14basic_ifstreamIcNS_11char_traitsIcEEEENS_9allocatorIS4_EEE5firstB7v160006Ev, symObjAddr: 0x53358, symBinAddr: 0x100054A08, symSize: 0x24 }
  - { offsetInCU: 0x3D524, offset: 0x3D524, size: 0x8, addend: 0x0, symName: __ZNSt3__122__compressed_pair_elemIPNS_14basic_ifstreamIcNS_11char_traitsIcEEEELi0ELb0EE5__getB7v160006Ev, symObjAddr: 0x5337C, symBinAddr: 0x100054A2C, symSize: 0x14 }
  - { offsetInCU: 0x3D54A, offset: 0x3D54A, size: 0x8, addend: 0x0, symName: __ZNKSt3__16vectorINS_14basic_ifstreamIcNS_11char_traitsIcEEEENS_9allocatorIS4_EEE31__annotate_contiguous_containerEPKvS9_S9_S9_, symObjAddr: 0x53390, symBinAddr: 0x100054A40, symSize: 0x58 }
  - { offsetInCU: 0x3D5AC, offset: 0x3D5AC, size: 0x8, addend: 0x0, symName: __ZNKSt3__16vectorINS_14basic_ifstreamIcNS_11char_traitsIcEEEENS_9allocatorIS4_EEE4dataB7v160006Ev, symObjAddr: 0x533E8, symBinAddr: 0x100054A98, symSize: 0x64 }
  - { offsetInCU: 0x3D5D2, offset: 0x3D5D2, size: 0x8, addend: 0x0, symName: __ZNKSt3__16vectorINS_14basic_ifstreamIcNS_11char_traitsIcEEEENS_9allocatorIS4_EEE8capacityB7v160006Ev, symObjAddr: 0x5344C, symBinAddr: 0x100054AFC, symSize: 0xBC }
  - { offsetInCU: 0x3D5F8, offset: 0x3D5F8, size: 0x8, addend: 0x0, symName: __ZNKSt3__16vectorINS_14basic_ifstreamIcNS_11char_traitsIcEEEENS_9allocatorIS4_EEE9__end_capB7v160006Ev, symObjAddr: 0x5351C, symBinAddr: 0x100054BCC, symSize: 0x28 }
  - { offsetInCU: 0x3D61E, offset: 0x3D61E, size: 0x8, addend: 0x0, symName: __ZNKSt3__117__compressed_pairIPNS_14basic_ifstreamIcNS_11char_traitsIcEEEENS_9allocatorIS4_EEE5firstB7v160006Ev, symObjAddr: 0x53544, symBinAddr: 0x100054BF4, symSize: 0x24 }
  - { offsetInCU: 0x3D644, offset: 0x3D644, size: 0x8, addend: 0x0, symName: __ZNKSt3__122__compressed_pair_elemIPNS_14basic_ifstreamIcNS_11char_traitsIcEEEELi0ELb0EE5__getB7v160006Ev, symObjAddr: 0x53568, symBinAddr: 0x100054C18, symSize: 0x14 }
  - { offsetInCU: 0x3D686, offset: 0x3D686, size: 0x8, addend: 0x0, symName: __ZNSt3__16vectorINS_14basic_ifstreamIcNS_11char_traitsIcEEEENS_9allocatorIS4_EEE21_ConstructTransactionC1B7v160006ERS7_m, symObjAddr: 0x5357C, symBinAddr: 0x100054C2C, symSize: 0x3C }
  - { offsetInCU: 0x3D6CE, offset: 0x3D6CE, size: 0x8, addend: 0x0, symName: __ZNSt3__116allocator_traitsINS_9allocatorINS_14basic_ifstreamIcNS_11char_traitsIcEEEEEEE9constructB7v160006IS5_JEvEEvRS6_PT_DpOT0_, symObjAddr: 0x535B8, symBinAddr: 0x100054C68, symSize: 0x2C }
  - { offsetInCU: 0x3D710, offset: 0x3D710, size: 0x8, addend: 0x0, symName: __ZNSt3__16vectorINS_14basic_ifstreamIcNS_11char_traitsIcEEEENS_9allocatorIS4_EEE21_ConstructTransactionD1B7v160006Ev, symObjAddr: 0x535E4, symBinAddr: 0x100054C94, symSize: 0x2C }
  - { offsetInCU: 0x3D73A, offset: 0x3D73A, size: 0x8, addend: 0x0, symName: __ZNSt3__16vectorINS_14basic_ifstreamIcNS_11char_traitsIcEEEENS_9allocatorIS4_EEE21_ConstructTransactionC2B7v160006ERS7_m, symObjAddr: 0x53610, symBinAddr: 0x100054CC0, symSize: 0x1D8 }
  - { offsetInCU: 0x3D782, offset: 0x3D782, size: 0x8, addend: 0x0, symName: __ZNKSt3__16vectorINS_14basic_ifstreamIcNS_11char_traitsIcEEEENS_9allocatorIS4_EEE19__annotate_increaseB7v160006Em, symObjAddr: 0x537E8, symBinAddr: 0x100054E98, symSize: 0xF8 }
  - { offsetInCU: 0x3D7B7, offset: 0x3D7B7, size: 0x8, addend: 0x0, symName: __ZNKSt3__16vectorINS_14basic_ifstreamIcNS_11char_traitsIcEEEENS_9allocatorIS4_EEE4sizeB7v160006Ev, symObjAddr: 0x538E0, symBinAddr: 0x100054F90, symSize: 0xB0 }
  - { offsetInCU: 0x3D7DD, offset: 0x3D7DD, size: 0x8, addend: 0x0, symName: __ZNSt3__19allocatorINS_14basic_ifstreamIcNS_11char_traitsIcEEEEE9constructB7v160006IS4_JEEEvPT_DpOT0_, symObjAddr: 0x53990, symBinAddr: 0x100055040, symSize: 0x28 }
  - { offsetInCU: 0x3D81F, offset: 0x3D81F, size: 0x8, addend: 0x0, symName: __ZNSt3__114basic_ifstreamIcNS_11char_traitsIcEEEC1Ev, symObjAddr: 0x539B8, symBinAddr: 0x100055068, symSize: 0x1BC }
  - { offsetInCU: 0x3D84B, offset: 0x3D84B, size: 0x8, addend: 0x0, symName: __ZNSt3__16vectorINS_14basic_ifstreamIcNS_11char_traitsIcEEEENS_9allocatorIS4_EEE21_ConstructTransactionD2B7v160006Ev, symObjAddr: 0x53B74, symBinAddr: 0x100055224, symSize: 0x278 }
  - { offsetInCU: 0x3D875, offset: 0x3D875, size: 0x8, addend: 0x0, symName: __ZNKSt3__16vectorINS_14basic_ifstreamIcNS_11char_traitsIcEEEENS_9allocatorIS4_EEE17__annotate_shrinkB7v160006Em, symObjAddr: 0x53DEC, symBinAddr: 0x10005549C, symSize: 0xE4 }
  - { offsetInCU: 0x3D8AA, offset: 0x3D8AA, size: 0x8, addend: 0x0, symName: __ZNSt3__128__exception_guard_exceptionsINS_6vectorINS_14basic_ifstreamIcNS_11char_traitsIcEEEENS_9allocatorIS5_EEE16__destroy_vectorEED2B7v160006Ev, symObjAddr: 0x53ED0, symBinAddr: 0x100055580, symSize: 0xBC }
  - { offsetInCU: 0x3D8D4, offset: 0x3D8D4, size: 0x8, addend: 0x0, symName: __ZNSt3__16vectorINS_14basic_ifstreamIcNS_11char_traitsIcEEEENS_9allocatorIS4_EEE16__destroy_vectorclB7v160006Ev, symObjAddr: 0x53F8C, symBinAddr: 0x10005563C, symSize: 0x264 }
  - { offsetInCU: 0x3D8FA, offset: 0x3D8FA, size: 0x8, addend: 0x0, symName: __ZNKSt3__16vectorINS_14basic_ifstreamIcNS_11char_traitsIcEEEENS_9allocatorIS4_EEE17__annotate_deleteB7v160006Ev, symObjAddr: 0x541F0, symBinAddr: 0x1000558A0, symSize: 0xE8 }
  - { offsetInCU: 0x3D920, offset: 0x3D920, size: 0x8, addend: 0x0, symName: __ZNSt3__16vectorINS_14basic_ifstreamIcNS_11char_traitsIcEEEENS_9allocatorIS4_EEE7__clearB7v160006Ev, symObjAddr: 0x542E8, symBinAddr: 0x100055998, symSize: 0x64 }
  - { offsetInCU: 0x3D946, offset: 0x3D946, size: 0x8, addend: 0x0, symName: __ZNSt3__116allocator_traitsINS_9allocatorINS_14basic_ifstreamIcNS_11char_traitsIcEEEEEEE10deallocateB7v160006ERS6_PS5_m, symObjAddr: 0x5434C, symBinAddr: 0x1000559FC, symSize: 0x34 }
  - { offsetInCU: 0x3D988, offset: 0x3D988, size: 0x8, addend: 0x0, symName: __ZNSt3__16vectorINS_14basic_ifstreamIcNS_11char_traitsIcEEEENS_9allocatorIS4_EEE22__base_destruct_at_endB7v160006EPS4_, symObjAddr: 0x54380, symBinAddr: 0x100055A30, symSize: 0x114 }
  - { offsetInCU: 0x3D9CC, offset: 0x3D9CC, size: 0x8, addend: 0x0, symName: __ZNSt3__116allocator_traitsINS_9allocatorINS_14basic_ifstreamIcNS_11char_traitsIcEEEEEEE7destroyB7v160006IS5_vEEvRS6_PT_, symObjAddr: 0x54494, symBinAddr: 0x100055B44, symSize: 0x2C }
  - { offsetInCU: 0x3DA09, offset: 0x3DA09, size: 0x8, addend: 0x0, symName: __ZNSt3__19allocatorINS_14basic_ifstreamIcNS_11char_traitsIcEEEEE7destroyB7v160006EPS4_, symObjAddr: 0x544C0, symBinAddr: 0x100055B70, symSize: 0xA8 }
  - { offsetInCU: 0x3DA3D, offset: 0x3DA3D, size: 0x8, addend: 0x0, symName: __ZNSt3__19allocatorINS_14basic_ifstreamIcNS_11char_traitsIcEEEEE10deallocateB7v160006EPS4_m, symObjAddr: 0x54568, symBinAddr: 0x100055C18, symSize: 0x50 }
  - { offsetInCU: 0x3DA7F, offset: 0x3DA7F, size: 0x8, addend: 0x0, symName: __ZNSt3__114priority_queueIN6SorterINS_12basic_stringIcNS_11char_traitsIcEENS_9allocatorIcEEEEE9QueueNodeENS_6vectorIS9_NS5_IS9_EEEENS_7greaterIvEEEC2B7v160006Ev, symObjAddr: 0x545B8, symBinAddr: 0x100055C68, symSize: 0x2C }
  - { offsetInCU: 0x3DAA9, offset: 0x3DAA9, size: 0x8, addend: 0x0, symName: __ZNSt3__16vectorIN6SorterINS_12basic_stringIcNS_11char_traitsIcEENS_9allocatorIcEEEEE9QueueNodeENS5_IS9_EEEC1B7v160006Ev, symObjAddr: 0x545E4, symBinAddr: 0x100055C94, symSize: 0x2C }
  - { offsetInCU: 0x3DAD3, offset: 0x3DAD3, size: 0x8, addend: 0x0, symName: __ZNSt3__16vectorIN6SorterINS_12basic_stringIcNS_11char_traitsIcEENS_9allocatorIcEEEEE9QueueNodeENS5_IS9_EEEC2B7v160006Ev, symObjAddr: 0x54610, symBinAddr: 0x100055CC0, symSize: 0x2F4 }
  - { offsetInCU: 0x3DAFE, offset: 0x3DAFE, size: 0x8, addend: 0x0, symName: __ZNSt3__117__compressed_pairIPN6SorterINS_12basic_stringIcNS_11char_traitsIcEENS_9allocatorIcEEEEE9QueueNodeENS5_IS9_EEEC1B7v160006IDnNS_18__default_init_tagEEEOT_OT0_, symObjAddr: 0x54904, symBinAddr: 0x100055FB4, symSize: 0x3C }
  - { offsetInCU: 0x3DB56, offset: 0x3DB56, size: 0x8, addend: 0x0, symName: __ZNSt3__117__compressed_pairIPN6SorterINS_12basic_stringIcNS_11char_traitsIcEENS_9allocatorIcEEEEE9QueueNodeENS5_IS9_EEEC2B7v160006IDnNS_18__default_init_tagEEEOT_OT0_, symObjAddr: 0x54950, symBinAddr: 0x100056000, symSize: 0x40 }
  - { offsetInCU: 0x3DBAE, offset: 0x3DBAE, size: 0x8, addend: 0x0, symName: __ZNSt3__122__compressed_pair_elemIPN6SorterINS_12basic_stringIcNS_11char_traitsIcEENS_9allocatorIcEEEEE9QueueNodeELi0ELb0EEC2B7v160006IDnvEEOT_, symObjAddr: 0x54990, symBinAddr: 0x100056040, symSize: 0x64 }
  - { offsetInCU: 0x3DBF0, offset: 0x3DBF0, size: 0x8, addend: 0x0, symName: __ZNSt3__122__compressed_pair_elemINS_9allocatorIN6SorterINS_12basic_stringIcNS_11char_traitsIcEENS1_IcEEEEE9QueueNodeEEELi1ELb1EEC2B7v160006ENS_18__default_init_tagE, symObjAddr: 0x549F4, symBinAddr: 0x1000560A4, symSize: 0x2C }
  - { offsetInCU: 0x3DC24, offset: 0x3DC24, size: 0x8, addend: 0x0, symName: __ZNSt3__19allocatorIN6SorterINS_12basic_stringIcNS_11char_traitsIcEENS0_IcEEEEE9QueueNodeEEC2B7v160006Ev, symObjAddr: 0x54A20, symBinAddr: 0x1000560D0, symSize: 0x2C }
  - { offsetInCU: 0x3DC4E, offset: 0x3DC4E, size: 0x8, addend: 0x0, symName: __ZNSt3__116__non_trivial_ifILb1ENS_9allocatorIN6SorterINS_12basic_stringIcNS_11char_traitsIcEENS1_IcEEEEE9QueueNodeEEEEC2B7v160006Ev, symObjAddr: 0x54A4C, symBinAddr: 0x1000560FC, symSize: 0x14 }
  - { offsetInCU: 0x3DC78, offset: 0x3DC78, size: 0x8, addend: 0x0, symName: __ZNSt3__16vectorIN6SorterINS_12basic_stringIcNS_11char_traitsIcEENS_9allocatorIcEEEEE9QueueNodeENS5_IS9_EEE9push_backB7v160006EOS9_, symObjAddr: 0x54A60, symBinAddr: 0x100056110, symSize: 0xE0 }
  - { offsetInCU: 0x3DCAF, offset: 0x3DCAF, size: 0x8, addend: 0x0, symName: __ZNSt3__16vectorIN6SorterINS_12basic_stringIcNS_11char_traitsIcEENS_9allocatorIcEEEEE9QueueNodeENS5_IS9_EEE5beginB7v160006Ev, symObjAddr: 0x54EAC, symBinAddr: 0x10005655C, symSize: 0x268 }
  - { offsetInCU: 0x3DCD8, offset: 0x3DCD8, size: 0x8, addend: 0x0, symName: __ZNSt3__16vectorIN6SorterINS_12basic_stringIcNS_11char_traitsIcEENS_9allocatorIcEEEEE9QueueNodeENS5_IS9_EEE3endB7v160006Ev, symObjAddr: 0x55114, symBinAddr: 0x1000567C4, symSize: 0x26C }
  - { offsetInCU: 0x3DD01, offset: 0x3DD01, size: 0x8, addend: 0x0, symName: __ZNSt3__16vectorIN6SorterINS_12basic_stringIcNS_11char_traitsIcEENS_9allocatorIcEEEEE9QueueNodeENS5_IS9_EEE9__end_capB7v160006Ev, symObjAddr: 0x55380, symBinAddr: 0x100056A30, symSize: 0x28 }
  - { offsetInCU: 0x3DD2D, offset: 0x3DD2D, size: 0x8, addend: 0x0, symName: __ZNSt3__16vectorIN6SorterINS_12basic_stringIcNS_11char_traitsIcEENS_9allocatorIcEEEEE9QueueNodeENS5_IS9_EEE22__construct_one_at_endB7v160006IJS9_EEEvDpOT_, symObjAddr: 0x553A8, symBinAddr: 0x100056A58, symSize: 0x36C }
  - { offsetInCU: 0x3DD82, offset: 0x3DD82, size: 0x8, addend: 0x0, symName: __ZNSt3__16vectorIN6SorterINS_12basic_stringIcNS_11char_traitsIcEENS_9allocatorIcEEEEE9QueueNodeENS5_IS9_EEE21__push_back_slow_pathIS9_EEvOT_, symObjAddr: 0x55714, symBinAddr: 0x100056DC4, symSize: 0x3C0 }
  - { offsetInCU: 0x3DDE7, offset: 0x3DDE7, size: 0x8, addend: 0x0, symName: __ZNSt3__117__compressed_pairIPN6SorterINS_12basic_stringIcNS_11char_traitsIcEENS_9allocatorIcEEEEE9QueueNodeENS5_IS9_EEE5firstB7v160006Ev, symObjAddr: 0x55AD4, symBinAddr: 0x100057184, symSize: 0x24 }
  - { offsetInCU: 0x3DE0D, offset: 0x3DE0D, size: 0x8, addend: 0x0, symName: __ZNSt3__122__compressed_pair_elemIPN6SorterINS_12basic_stringIcNS_11char_traitsIcEENS_9allocatorIcEEEEE9QueueNodeELi0ELb0EE5__getB7v160006Ev, symObjAddr: 0x55AF8, symBinAddr: 0x1000571A8, symSize: 0x14 }
  - { offsetInCU: 0x3DE4F, offset: 0x3DE4F, size: 0x8, addend: 0x0, symName: __ZNSt3__16vectorIN6SorterINS_12basic_stringIcNS_11char_traitsIcEENS_9allocatorIcEEEEE9QueueNodeENS5_IS9_EEE21_ConstructTransactionC1B7v160006ERSB_m, symObjAddr: 0x55B0C, symBinAddr: 0x1000571BC, symSize: 0x3C }
  - { offsetInCU: 0x3DE97, offset: 0x3DE97, size: 0x8, addend: 0x0, symName: __ZNSt3__116allocator_traitsINS_9allocatorIN6SorterINS_12basic_stringIcNS_11char_traitsIcEENS1_IcEEEEE9QueueNodeEEEE9constructB7v160006IS9_JS9_EvEEvRSA_PT_DpOT0_, symObjAddr: 0x55B48, symBinAddr: 0x1000571F8, symSize: 0x34 }
  - { offsetInCU: 0x3DEEE, offset: 0x3DEEE, size: 0x8, addend: 0x0, symName: __ZNSt3__16vectorIN6SorterINS_12basic_stringIcNS_11char_traitsIcEENS_9allocatorIcEEEEE9QueueNodeENS5_IS9_EEE7__allocB7v160006Ev, symObjAddr: 0x55B7C, symBinAddr: 0x10005722C, symSize: 0x28 }
  - { offsetInCU: 0x3DF14, offset: 0x3DF14, size: 0x8, addend: 0x0, symName: __ZNSt3__16vectorIN6SorterINS_12basic_stringIcNS_11char_traitsIcEENS_9allocatorIcEEEEE9QueueNodeENS5_IS9_EEE21_ConstructTransactionD1B7v160006Ev, symObjAddr: 0x55BB8, symBinAddr: 0x100057268, symSize: 0x2C }
  - { offsetInCU: 0x3DF3E, offset: 0x3DF3E, size: 0x8, addend: 0x0, symName: __ZNSt3__16vectorIN6SorterINS_12basic_stringIcNS_11char_traitsIcEENS_9allocatorIcEEEEE9QueueNodeENS5_IS9_EEE21_ConstructTransactionC2B7v160006ERSB_m, symObjAddr: 0x55BE4, symBinAddr: 0x100057294, symSize: 0x1D0 }
  - { offsetInCU: 0x3DF86, offset: 0x3DF86, size: 0x8, addend: 0x0, symName: __ZNKSt3__16vectorIN6SorterINS_12basic_stringIcNS_11char_traitsIcEENS_9allocatorIcEEEEE9QueueNodeENS5_IS9_EEE19__annotate_increaseB7v160006Em, symObjAddr: 0x55DB4, symBinAddr: 0x100057464, symSize: 0xD8 }
  - { offsetInCU: 0x3DFBB, offset: 0x3DFBB, size: 0x8, addend: 0x0, symName: __ZNKSt3__16vectorIN6SorterINS_12basic_stringIcNS_11char_traitsIcEENS_9allocatorIcEEEEE9QueueNodeENS5_IS9_EEE31__annotate_contiguous_containerEPKvSD_SD_SD_, symObjAddr: 0x55E8C, symBinAddr: 0x10005753C, symSize: 0x58 }
  - { offsetInCU: 0x3E01D, offset: 0x3E01D, size: 0x8, addend: 0x0, symName: __ZNKSt3__16vectorIN6SorterINS_12basic_stringIcNS_11char_traitsIcEENS_9allocatorIcEEEEE9QueueNodeENS5_IS9_EEE4dataB7v160006Ev, symObjAddr: 0x55EE4, symBinAddr: 0x100057594, symSize: 0x64 }
  - { offsetInCU: 0x3E043, offset: 0x3E043, size: 0x8, addend: 0x0, symName: __ZNKSt3__16vectorIN6SorterINS_12basic_stringIcNS_11char_traitsIcEENS_9allocatorIcEEEEE9QueueNodeENS5_IS9_EEE8capacityB7v160006Ev, symObjAddr: 0x55F48, symBinAddr: 0x1000575F8, symSize: 0xBC }
  - { offsetInCU: 0x3E069, offset: 0x3E069, size: 0x8, addend: 0x0, symName: __ZNKSt3__16vectorIN6SorterINS_12basic_stringIcNS_11char_traitsIcEENS_9allocatorIcEEEEE9QueueNodeENS5_IS9_EEE4sizeB7v160006Ev, symObjAddr: 0x56004, symBinAddr: 0x1000576B4, symSize: 0xB0 }
  - { offsetInCU: 0x3E08F, offset: 0x3E08F, size: 0x8, addend: 0x0, symName: __ZNKSt3__16vectorIN6SorterINS_12basic_stringIcNS_11char_traitsIcEENS_9allocatorIcEEEEE9QueueNodeENS5_IS9_EEE9__end_capB7v160006Ev, symObjAddr: 0x560B4, symBinAddr: 0x100057764, symSize: 0x28 }
  - { offsetInCU: 0x3E0B5, offset: 0x3E0B5, size: 0x8, addend: 0x0, symName: __ZNKSt3__117__compressed_pairIPN6SorterINS_12basic_stringIcNS_11char_traitsIcEENS_9allocatorIcEEEEE9QueueNodeENS5_IS9_EEE5firstB7v160006Ev, symObjAddr: 0x560DC, symBinAddr: 0x10005778C, symSize: 0x24 }
  - { offsetInCU: 0x3E0DB, offset: 0x3E0DB, size: 0x8, addend: 0x0, symName: __ZNKSt3__122__compressed_pair_elemIPN6SorterINS_12basic_stringIcNS_11char_traitsIcEENS_9allocatorIcEEEEE9QueueNodeELi0ELb0EE5__getB7v160006Ev, symObjAddr: 0x56100, symBinAddr: 0x1000577B0, symSize: 0x14 }
  - { offsetInCU: 0x3E101, offset: 0x3E101, size: 0x8, addend: 0x0, symName: __ZNSt3__19allocatorIN6SorterINS_12basic_stringIcNS_11char_traitsIcEENS0_IcEEEEE9QueueNodeEE9constructB7v160006IS8_JS8_EEEvPT_DpOT0_, symObjAddr: 0x56114, symBinAddr: 0x1000577C4, symSize: 0x30 }
  - { offsetInCU: 0x3E157, offset: 0x3E157, size: 0x8, addend: 0x0, symName: __ZN6SorterINSt3__112basic_stringIcNS0_11char_traitsIcEENS0_9allocatorIcEEEEE9QueueNodeC1EOS8_, symObjAddr: 0x56144, symBinAddr: 0x1000577F4, symSize: 0x34 }
  - { offsetInCU: 0x3E18C, offset: 0x3E18C, size: 0x8, addend: 0x0, symName: __ZN6SorterINSt3__112basic_stringIcNS0_11char_traitsIcEENS0_9allocatorIcEEEEE9QueueNodeC2EOS8_, symObjAddr: 0x56178, symBinAddr: 0x100057828, symSize: 0x11C }
  - { offsetInCU: 0x3E1C1, offset: 0x3E1C1, size: 0x8, addend: 0x0, symName: __ZNSt3__117__compressed_pairIPN6SorterINS_12basic_stringIcNS_11char_traitsIcEENS_9allocatorIcEEEEE9QueueNodeENS5_IS9_EEE6secondB7v160006Ev, symObjAddr: 0x56294, symBinAddr: 0x100057944, symSize: 0x24 }
  - { offsetInCU: 0x3E1E7, offset: 0x3E1E7, size: 0x8, addend: 0x0, symName: __ZNSt3__122__compressed_pair_elemINS_9allocatorIN6SorterINS_12basic_stringIcNS_11char_traitsIcEENS1_IcEEEEE9QueueNodeEEELi1ELb1EE5__getB7v160006Ev, symObjAddr: 0x562B8, symBinAddr: 0x100057968, symSize: 0x14 }
  - { offsetInCU: 0x3E20D, offset: 0x3E20D, size: 0x8, addend: 0x0, symName: __ZNSt3__16vectorIN6SorterINS_12basic_stringIcNS_11char_traitsIcEENS_9allocatorIcEEEEE9QueueNodeENS5_IS9_EEE21_ConstructTransactionD2B7v160006Ev, symObjAddr: 0x562CC, symBinAddr: 0x10005797C, symSize: 0x278 }
  - { offsetInCU: 0x3E237, offset: 0x3E237, size: 0x8, addend: 0x0, symName: __ZNKSt3__16vectorIN6SorterINS_12basic_stringIcNS_11char_traitsIcEENS_9allocatorIcEEEEE9QueueNodeENS5_IS9_EEE17__annotate_shrinkB7v160006Em, symObjAddr: 0x56544, symBinAddr: 0x100057BF4, symSize: 0xC8 }
  - { offsetInCU: 0x3E26C, offset: 0x3E26C, size: 0x8, addend: 0x0, symName: __ZNKSt3__16vectorIN6SorterINS_12basic_stringIcNS_11char_traitsIcEENS_9allocatorIcEEEEE9QueueNodeENS5_IS9_EEE11__recommendB7v160006Em, symObjAddr: 0x5660C, symBinAddr: 0x100057CBC, symSize: 0x384 }
  - { offsetInCU: 0x3E2C8, offset: 0x3E2C8, size: 0x8, addend: 0x0, symName: __ZNSt3__114__split_bufferIN6SorterINS_12basic_stringIcNS_11char_traitsIcEENS_9allocatorIcEEEEE9QueueNodeERNS5_IS9_EEEC1EmmSB_, symObjAddr: 0x56990, symBinAddr: 0x100058040, symSize: 0x44 }
  - { offsetInCU: 0x3E31E, offset: 0x3E31E, size: 0x8, addend: 0x0, symName: __ZNSt3__114__split_bufferIN6SorterINS_12basic_stringIcNS_11char_traitsIcEENS_9allocatorIcEEEEE9QueueNodeERNS5_IS9_EEED1Ev, symObjAddr: 0x56F48, symBinAddr: 0x1000585F8, symSize: 0x2C }
  - { offsetInCU: 0x3E34A, offset: 0x3E34A, size: 0x8, addend: 0x0, symName: __ZNKSt3__16vectorIN6SorterINS_12basic_stringIcNS_11char_traitsIcEENS_9allocatorIcEEEEE9QueueNodeENS5_IS9_EEE8max_sizeEv, symObjAddr: 0x56F74, symBinAddr: 0x100058624, symSize: 0x2FC }
  - { offsetInCU: 0x3E373, offset: 0x3E373, size: 0x8, addend: 0x0, symName: __ZNKSt3__16vectorIN6SorterINS_12basic_stringIcNS_11char_traitsIcEENS_9allocatorIcEEEEE9QueueNodeENS5_IS9_EEE20__throw_length_errorB7v160006Ev, symObjAddr: 0x57270, symBinAddr: 0x100058920, symSize: 0x20 }
  - { offsetInCU: 0x3E3A4, offset: 0x3E3A4, size: 0x8, addend: 0x0, symName: __ZNSt3__116allocator_traitsINS_9allocatorIN6SorterINS_12basic_stringIcNS_11char_traitsIcEENS1_IcEEEEE9QueueNodeEEEE8max_sizeB7v160006ISA_vEEmRKSA_, symObjAddr: 0x57290, symBinAddr: 0x100058940, symSize: 0x24 }
  - { offsetInCU: 0x3E3D2, offset: 0x3E3D2, size: 0x8, addend: 0x0, symName: __ZNKSt3__16vectorIN6SorterINS_12basic_stringIcNS_11char_traitsIcEENS_9allocatorIcEEEEE9QueueNodeENS5_IS9_EEE7__allocB7v160006Ev, symObjAddr: 0x572B4, symBinAddr: 0x100058964, symSize: 0x28 }
  - { offsetInCU: 0x3E3F8, offset: 0x3E3F8, size: 0x8, addend: 0x0, symName: __ZNKSt3__19allocatorIN6SorterINS_12basic_stringIcNS_11char_traitsIcEENS0_IcEEEEE9QueueNodeEE8max_sizeB7v160006Ev, symObjAddr: 0x572DC, symBinAddr: 0x10005898C, symSize: 0x14 }
  - { offsetInCU: 0x3E41E, offset: 0x3E41E, size: 0x8, addend: 0x0, symName: __ZNKSt3__117__compressed_pairIPN6SorterINS_12basic_stringIcNS_11char_traitsIcEENS_9allocatorIcEEEEE9QueueNodeENS5_IS9_EEE6secondB7v160006Ev, symObjAddr: 0x572F0, symBinAddr: 0x1000589A0, symSize: 0x24 }
  - { offsetInCU: 0x3E444, offset: 0x3E444, size: 0x8, addend: 0x0, symName: __ZNKSt3__122__compressed_pair_elemINS_9allocatorIN6SorterINS_12basic_stringIcNS_11char_traitsIcEENS1_IcEEEEE9QueueNodeEEELi1ELb1EE5__getB7v160006Ev, symObjAddr: 0x57314, symBinAddr: 0x1000589C4, symSize: 0x14 }
  - { offsetInCU: 0x3E46A, offset: 0x3E46A, size: 0x8, addend: 0x0, symName: __ZNSt3__114__split_bufferIN6SorterINS_12basic_stringIcNS_11char_traitsIcEENS_9allocatorIcEEEEE9QueueNodeERNS5_IS9_EEEC2EmmSB_, symObjAddr: 0x57328, symBinAddr: 0x1000589D8, symSize: 0x520 }
  - { offsetInCU: 0x3E4E6, offset: 0x3E4E6, size: 0x8, addend: 0x0, symName: __ZNSt3__117__compressed_pairIPN6SorterINS_12basic_stringIcNS_11char_traitsIcEENS_9allocatorIcEEEEE9QueueNodeERNS5_IS9_EEEC1B7v160006IDnSC_EEOT_OT0_, symObjAddr: 0x57848, symBinAddr: 0x100058EF8, symSize: 0x3C }
  - { offsetInCU: 0x3E53E, offset: 0x3E53E, size: 0x8, addend: 0x0, symName: __ZNSt3__114__split_bufferIN6SorterINS_12basic_stringIcNS_11char_traitsIcEENS_9allocatorIcEEEEE9QueueNodeERNS5_IS9_EEE7__allocB7v160006Ev, symObjAddr: 0x57B10, symBinAddr: 0x1000591C0, symSize: 0x28 }
  - { offsetInCU: 0x3E564, offset: 0x3E564, size: 0x8, addend: 0x0, symName: __ZNSt3__114__split_bufferIN6SorterINS_12basic_stringIcNS_11char_traitsIcEENS_9allocatorIcEEEEE9QueueNodeERNS5_IS9_EEE9__end_capB7v160006Ev, symObjAddr: 0x57B38, symBinAddr: 0x1000591E8, symSize: 0x28 }
  - { offsetInCU: 0x3E58A, offset: 0x3E58A, size: 0x8, addend: 0x0, symName: __ZNSt3__117__compressed_pairIPN6SorterINS_12basic_stringIcNS_11char_traitsIcEENS_9allocatorIcEEEEE9QueueNodeERNS5_IS9_EEEC2B7v160006IDnSC_EEOT_OT0_, symObjAddr: 0x57B60, symBinAddr: 0x100059210, symSize: 0x48 }
  - { offsetInCU: 0x3E5E2, offset: 0x3E5E2, size: 0x8, addend: 0x0, symName: __ZNSt3__122__compressed_pair_elemIRNS_9allocatorIN6SorterINS_12basic_stringIcNS_11char_traitsIcEENS1_IcEEEEE9QueueNodeEEELi1ELb0EEC2B7v160006ISB_vEEOT_, symObjAddr: 0x57BA8, symBinAddr: 0x100059258, symSize: 0x70 }
  - { offsetInCU: 0x3E624, offset: 0x3E624, size: 0x8, addend: 0x0, symName: __ZNSt3__19allocatorIN6SorterINS_12basic_stringIcNS_11char_traitsIcEENS0_IcEEEEE9QueueNodeEE8allocateB7v160006Em, symObjAddr: 0x57C18, symBinAddr: 0x1000592C8, symSize: 0x5C }
  - { offsetInCU: 0x3E658, offset: 0x3E658, size: 0x8, addend: 0x0, symName: __ZNSt3__117__compressed_pairIPN6SorterINS_12basic_stringIcNS_11char_traitsIcEENS_9allocatorIcEEEEE9QueueNodeERNS5_IS9_EEE6secondB7v160006Ev, symObjAddr: 0x57C74, symBinAddr: 0x100059324, symSize: 0x28 }
  - { offsetInCU: 0x3E67E, offset: 0x3E67E, size: 0x8, addend: 0x0, symName: __ZNSt3__122__compressed_pair_elemIRNS_9allocatorIN6SorterINS_12basic_stringIcNS_11char_traitsIcEENS1_IcEEEEE9QueueNodeEEELi1ELb0EE5__getB7v160006Ev, symObjAddr: 0x57C9C, symBinAddr: 0x10005934C, symSize: 0x60 }
  - { offsetInCU: 0x3E6A4, offset: 0x3E6A4, size: 0x8, addend: 0x0, symName: __ZNSt3__117__compressed_pairIPN6SorterINS_12basic_stringIcNS_11char_traitsIcEENS_9allocatorIcEEEEE9QueueNodeERNS5_IS9_EEE5firstB7v160006Ev, symObjAddr: 0x57CFC, symBinAddr: 0x1000593AC, symSize: 0x24 }
  - { offsetInCU: 0x3E6CA, offset: 0x3E6CA, size: 0x8, addend: 0x0, symName: __ZNKSt3__16vectorIN6SorterINS_12basic_stringIcNS_11char_traitsIcEENS_9allocatorIcEEEEE9QueueNodeENS5_IS9_EEE17__annotate_deleteB7v160006Ev, symObjAddr: 0x57D20, symBinAddr: 0x1000593D0, symSize: 0xCC }
  - { offsetInCU: 0x3E6F0, offset: 0x3E6F0, size: 0x8, addend: 0x0, symName: __ZNSt3__116reverse_iteratorIPN6SorterINS_12basic_stringIcNS_11char_traitsIcEENS_9allocatorIcEEEEE9QueueNodeEEC1B7v160006ESA_, symObjAddr: 0x58330, symBinAddr: 0x1000599E0, symSize: 0x34 }
  - { offsetInCU: 0x3E728, offset: 0x3E728, size: 0x8, addend: 0x0, symName: __ZNKSt3__116reverse_iteratorIPN6SorterINS_12basic_stringIcNS_11char_traitsIcEENS_9allocatorIcEEEEE9QueueNodeEE4baseB7v160006Ev, symObjAddr: 0x58364, symBinAddr: 0x100059A14, symSize: 0x64 }
  - { offsetInCU: 0x3E74E, offset: 0x3E74E, size: 0x8, addend: 0x0, symName: __ZNKSt3__16vectorIN6SorterINS_12basic_stringIcNS_11char_traitsIcEENS_9allocatorIcEEEEE9QueueNodeENS5_IS9_EEE14__annotate_newB7v160006Em, symObjAddr: 0x584FC, symBinAddr: 0x100059BAC, symSize: 0xC0 }
  - { offsetInCU: 0x3E783, offset: 0x3E783, size: 0x8, addend: 0x0, symName: __ZNSt3__129_AllocatorDestroyRangeReverseINS_9allocatorIN6SorterINS_12basic_stringIcNS_11char_traitsIcEENS1_IcEEEEE9QueueNodeEEENS_16reverse_iteratorIPS9_EEEC1B7v160006ERSA_RSD_SG_, symObjAddr: 0x587C4, symBinAddr: 0x100059E74, symSize: 0x44 }
  - { offsetInCU: 0x3E7DA, offset: 0x3E7DA, size: 0x8, addend: 0x0, symName: __ZNKSt3__116reverse_iteratorIPN6SorterINS_12basic_stringIcNS_11char_traitsIcEENS_9allocatorIcEEEEE9QueueNodeEEdeB7v160006Ev, symObjAddr: 0x58874, symBinAddr: 0x100059F24, symSize: 0x74 }
  - { offsetInCU: 0x3E80F, offset: 0x3E80F, size: 0x8, addend: 0x0, symName: __ZNSt3__116reverse_iteratorIPN6SorterINS_12basic_stringIcNS_11char_traitsIcEENS_9allocatorIcEEEEE9QueueNodeEEppB7v160006Ev, symObjAddr: 0x588E8, symBinAddr: 0x100059F98, symSize: 0x6C }
  - { offsetInCU: 0x3E835, offset: 0x3E835, size: 0x8, addend: 0x0, symName: __ZNSt3__128__exception_guard_exceptionsINS_29_AllocatorDestroyRangeReverseINS_9allocatorIN6SorterINS_12basic_stringIcNS_11char_traitsIcEENS2_IcEEEEE9QueueNodeEEENS_16reverse_iteratorIPSA_EEEEE10__completeB7v160006Ev, symObjAddr: 0x58954, symBinAddr: 0x10005A004, symSize: 0x8C }
  - { offsetInCU: 0x3E85B, offset: 0x3E85B, size: 0x8, addend: 0x0, symName: __ZNSt3__128__exception_guard_exceptionsINS_29_AllocatorDestroyRangeReverseINS_9allocatorIN6SorterINS_12basic_stringIcNS_11char_traitsIcEENS2_IcEEEEE9QueueNodeEEENS_16reverse_iteratorIPSA_EEEEED1B7v160006Ev, symObjAddr: 0x589E0, symBinAddr: 0x10005A090, symSize: 0x2C }
  - { offsetInCU: 0x3E885, offset: 0x3E885, size: 0x8, addend: 0x0, symName: __ZNSt3__128__exception_guard_exceptionsINS_29_AllocatorDestroyRangeReverseINS_9allocatorIN6SorterINS_12basic_stringIcNS_11char_traitsIcEENS2_IcEEEEE9QueueNodeEEENS_16reverse_iteratorIPSA_EEEEEC1B7v160006ESF_, symObjAddr: 0x58A0C, symBinAddr: 0x10005A0BC, symSize: 0x34 }
  - { offsetInCU: 0x3E8BE, offset: 0x3E8BE, size: 0x8, addend: 0x0, symName: __ZNSt3__128__exception_guard_exceptionsINS_29_AllocatorDestroyRangeReverseINS_9allocatorIN6SorterINS_12basic_stringIcNS_11char_traitsIcEENS2_IcEEEEE9QueueNodeEEENS_16reverse_iteratorIPSA_EEEEEC2B7v160006ESF_, symObjAddr: 0x58A40, symBinAddr: 0x10005A0F0, symSize: 0xA4 }
  - { offsetInCU: 0x3E8F7, offset: 0x3E8F7, size: 0x8, addend: 0x0, symName: __ZNSt3__129_AllocatorDestroyRangeReverseINS_9allocatorIN6SorterINS_12basic_stringIcNS_11char_traitsIcEENS1_IcEEEEE9QueueNodeEEENS_16reverse_iteratorIPS9_EEEC2B7v160006ERSA_RSD_SG_, symObjAddr: 0x58AE4, symBinAddr: 0x10005A194, symSize: 0x104 }
  - { offsetInCU: 0x3E954, offset: 0x3E954, size: 0x8, addend: 0x0, symName: __ZNSt3__119__to_address_helperINS_16reverse_iteratorIPN6SorterINS_12basic_stringIcNS_11char_traitsIcEENS_9allocatorIcEEEEE9QueueNodeEEEvE6__callB7v160006ERKSC_, symObjAddr: 0x58BE8, symBinAddr: 0x10005A298, symSize: 0x44 }
  - { offsetInCU: 0x3E977, offset: 0x3E977, size: 0x8, addend: 0x0, symName: __ZNKSt3__116reverse_iteratorIPN6SorterINS_12basic_stringIcNS_11char_traitsIcEENS_9allocatorIcEEEEE9QueueNodeEEptB7v160006Ev, symObjAddr: 0x58C2C, symBinAddr: 0x10005A2DC, symSize: 0x24 }
  - { offsetInCU: 0x3E99D, offset: 0x3E99D, size: 0x8, addend: 0x0, symName: __ZNSt3__128__exception_guard_exceptionsINS_29_AllocatorDestroyRangeReverseINS_9allocatorIN6SorterINS_12basic_stringIcNS_11char_traitsIcEENS2_IcEEEEE9QueueNodeEEENS_16reverse_iteratorIPSA_EEEEED2B7v160006Ev, symObjAddr: 0x58C50, symBinAddr: 0x10005A300, symSize: 0xBC }
  - { offsetInCU: 0x3E9C7, offset: 0x3E9C7, size: 0x8, addend: 0x0, symName: __ZNKSt3__129_AllocatorDestroyRangeReverseINS_9allocatorIN6SorterINS_12basic_stringIcNS_11char_traitsIcEENS1_IcEEEEE9QueueNodeEEENS_16reverse_iteratorIPS9_EEEclB7v160006Ev, symObjAddr: 0x58D0C, symBinAddr: 0x10005A3BC, symSize: 0x3A8 }
  - { offsetInCU: 0x3E9EE, offset: 0x3E9EE, size: 0x8, addend: 0x0, symName: __ZNSt3__116reverse_iteratorINS0_IPN6SorterINS_12basic_stringIcNS_11char_traitsIcEENS_9allocatorIcEEEEE9QueueNodeEEEEC1B7v160006ESB_, symObjAddr: 0x59124, symBinAddr: 0x10005A7D4, symSize: 0x248 }
  - { offsetInCU: 0x3EA2B, offset: 0x3EA2B, size: 0x8, addend: 0x0, symName: __ZNSt3__116allocator_traitsINS_9allocatorIN6SorterINS_12basic_stringIcNS_11char_traitsIcEENS1_IcEEEEE9QueueNodeEEEE7destroyB7v160006IS9_vEEvRSA_PT_, symObjAddr: 0x59638, symBinAddr: 0x10005ACE8, symSize: 0x2C }
  - { offsetInCU: 0x3EA68, offset: 0x3EA68, size: 0x8, addend: 0x0, symName: __ZNSt3__116reverse_iteratorINS0_IPN6SorterINS_12basic_stringIcNS_11char_traitsIcEENS_9allocatorIcEEEEE9QueueNodeEEEEppB7v160006Ev, symObjAddr: 0x59688, symBinAddr: 0x10005AD38, symSize: 0x30 }
  - { offsetInCU: 0x3EA8E, offset: 0x3EA8E, size: 0x8, addend: 0x0, symName: __ZNKSt3__116reverse_iteratorINS0_IPN6SorterINS_12basic_stringIcNS_11char_traitsIcEENS_9allocatorIcEEEEE9QueueNodeEEEE4baseB7v160006Ev, symObjAddr: 0x596B8, symBinAddr: 0x10005AD68, symSize: 0x20C }
  - { offsetInCU: 0x3EAB5, offset: 0x3EAB5, size: 0x8, addend: 0x0, symName: __ZNSt3__19allocatorIN6SorterINS_12basic_stringIcNS_11char_traitsIcEENS0_IcEEEEE9QueueNodeEE7destroyB7v160006EPS8_, symObjAddr: 0x598C4, symBinAddr: 0x10005AF74, symSize: 0x28 }
  - { offsetInCU: 0x3EAEF, offset: 0x3EAEF, size: 0x8, addend: 0x0, symName: __ZNSt3__119__to_address_helperINS_16reverse_iteratorINS1_IPN6SorterINS_12basic_stringIcNS_11char_traitsIcEENS_9allocatorIcEEEEE9QueueNodeEEEEEvE6__callB7v160006ERKSD_, symObjAddr: 0x598EC, symBinAddr: 0x10005AF9C, symSize: 0x44 }
  - { offsetInCU: 0x3EB12, offset: 0x3EB12, size: 0x8, addend: 0x0, symName: __ZNKSt3__116reverse_iteratorINS0_IPN6SorterINS_12basic_stringIcNS_11char_traitsIcEENS_9allocatorIcEEEEE9QueueNodeEEEEptB7v160006Ev, symObjAddr: 0x59930, symBinAddr: 0x10005AFE0, symSize: 0x24 }
  - { offsetInCU: 0x3EB38, offset: 0x3EB38, size: 0x8, addend: 0x0, symName: __ZNKSt3__116reverse_iteratorINS0_IPN6SorterINS_12basic_stringIcNS_11char_traitsIcEENS_9allocatorIcEEEEE9QueueNodeEEEEdeB7v160006Ev, symObjAddr: 0x59954, symBinAddr: 0x10005B004, symSize: 0x1EC }
  - { offsetInCU: 0x3EB72, offset: 0x3EB72, size: 0x8, addend: 0x0, symName: __ZNSt3__116reverse_iteratorIPN6SorterINS_12basic_stringIcNS_11char_traitsIcEENS_9allocatorIcEEEEE9QueueNodeEEmmB7v160006Ev, symObjAddr: 0x59B40, symBinAddr: 0x10005B1F0, symSize: 0x6C }
  - { offsetInCU: 0x3EB98, offset: 0x3EB98, size: 0x8, addend: 0x0, symName: __ZNSt3__116reverse_iteratorINS0_IPN6SorterINS_12basic_stringIcNS_11char_traitsIcEENS_9allocatorIcEEEEE9QueueNodeEEEEC2B7v160006ESB_, symObjAddr: 0x59BAC, symBinAddr: 0x10005B25C, symSize: 0x22C }
  - { offsetInCU: 0x3EBD5, offset: 0x3EBD5, size: 0x8, addend: 0x0, symName: __ZNSt3__116reverse_iteratorIPN6SorterINS_12basic_stringIcNS_11char_traitsIcEENS_9allocatorIcEEEEE9QueueNodeEEC2B7v160006ESA_, symObjAddr: 0x59DD8, symBinAddr: 0x10005B488, symSize: 0xB8 }
  - { offsetInCU: 0x3EC0D, offset: 0x3EC0D, size: 0x8, addend: 0x0, symName: __ZNSt3__114__split_bufferIN6SorterINS_12basic_stringIcNS_11char_traitsIcEENS_9allocatorIcEEEEE9QueueNodeERNS5_IS9_EEED2Ev, symObjAddr: 0x59E90, symBinAddr: 0x10005B540, symSize: 0x104 }
  - { offsetInCU: 0x3EC39, offset: 0x3EC39, size: 0x8, addend: 0x0, symName: __ZNSt3__114__split_bufferIN6SorterINS_12basic_stringIcNS_11char_traitsIcEENS_9allocatorIcEEEEE9QueueNodeERNS5_IS9_EEE5clearB7v160006Ev, symObjAddr: 0x59F94, symBinAddr: 0x10005B644, symSize: 0x68 }
  - { offsetInCU: 0x3EC5F, offset: 0x3EC5F, size: 0x8, addend: 0x0, symName: __ZNSt3__116allocator_traitsINS_9allocatorIN6SorterINS_12basic_stringIcNS_11char_traitsIcEENS1_IcEEEEE9QueueNodeEEEE10deallocateB7v160006ERSA_PS9_m, symObjAddr: 0x59FFC, symBinAddr: 0x10005B6AC, symSize: 0x34 }
  - { offsetInCU: 0x3ECA1, offset: 0x3ECA1, size: 0x8, addend: 0x0, symName: __ZNKSt3__114__split_bufferIN6SorterINS_12basic_stringIcNS_11char_traitsIcEENS_9allocatorIcEEEEE9QueueNodeERNS5_IS9_EEE8capacityB7v160006Ev, symObjAddr: 0x5A030, symBinAddr: 0x10005B6E0, symSize: 0xBC }
  - { offsetInCU: 0x3ECC7, offset: 0x3ECC7, size: 0x8, addend: 0x0, symName: __ZNSt3__114__split_bufferIN6SorterINS_12basic_stringIcNS_11char_traitsIcEENS_9allocatorIcEEEEE9QueueNodeERNS5_IS9_EEE17__destruct_at_endB7v160006EPS9_, symObjAddr: 0x5A0EC, symBinAddr: 0x10005B79C, symSize: 0x2C }
  - { offsetInCU: 0x3ECFB, offset: 0x3ECFB, size: 0x8, addend: 0x0, symName: __ZNSt3__114__split_bufferIN6SorterINS_12basic_stringIcNS_11char_traitsIcEENS_9allocatorIcEEEEE9QueueNodeERNS5_IS9_EEE17__destruct_at_endB7v160006EPS9_NS_17integral_constantIbLb0EEE, symObjAddr: 0x5A118, symBinAddr: 0x10005B7C8, symSize: 0x10C }
  - { offsetInCU: 0x3ED3B, offset: 0x3ED3B, size: 0x8, addend: 0x0, symName: __ZNSt3__19allocatorIN6SorterINS_12basic_stringIcNS_11char_traitsIcEENS0_IcEEEEE9QueueNodeEE10deallocateB7v160006EPS8_m, symObjAddr: 0x5A224, symBinAddr: 0x10005B8D4, symSize: 0x4C }
  - { offsetInCU: 0x3ED7D, offset: 0x3ED7D, size: 0x8, addend: 0x0, symName: __ZNKSt3__114__split_bufferIN6SorterINS_12basic_stringIcNS_11char_traitsIcEENS_9allocatorIcEEEEE9QueueNodeERNS5_IS9_EEE9__end_capB7v160006Ev, symObjAddr: 0x5A270, symBinAddr: 0x10005B920, symSize: 0x28 }
  - { offsetInCU: 0x3EDA3, offset: 0x3EDA3, size: 0x8, addend: 0x0, symName: __ZNKSt3__117__compressed_pairIPN6SorterINS_12basic_stringIcNS_11char_traitsIcEENS_9allocatorIcEEEEE9QueueNodeERNS5_IS9_EEE5firstB7v160006Ev, symObjAddr: 0x5A298, symBinAddr: 0x10005B948, symSize: 0x24 }
  - { offsetInCU: 0x3EDC9, offset: 0x3EDC9, size: 0x8, addend: 0x0, symName: __ZNKSt3__111__wrap_iterIPN6SorterINS_12basic_stringIcNS_11char_traitsIcEENS_9allocatorIcEEEEE9QueueNodeEE4baseB7v160006Ev, symObjAddr: 0x5AC64, symBinAddr: 0x10005C314, symSize: 0x60 }
  - { offsetInCU: 0x3EDEF, offset: 0x3EDEF, size: 0x8, addend: 0x0, symName: __ZNKSt3__111__wrap_iterIPN6SorterINS_12basic_stringIcNS_11char_traitsIcEENS_9allocatorIcEEEEE9QueueNodeEEplB7v160006El, symObjAddr: 0x5ACC4, symBinAddr: 0x10005C374, symSize: 0x20C }
  - { offsetInCU: 0x3EE43, offset: 0x3EE43, size: 0x8, addend: 0x0, symName: __ZNKSt3__17greaterIvEclB7v160006IRN6SorterINS_12basic_stringIcNS_11char_traitsIcEENS_9allocatorIcEEEEE9QueueNodeESC_EEDTgtclsr3stdE7forwardIT_Efp_Eclsr3stdE7forwardIT0_Efp0_EEOSD_OSE_, symObjAddr: 0x5AED0, symBinAddr: 0x10005C580, symSize: 0x34 }
  - { offsetInCU: 0x3EE99, offset: 0x3EE99, size: 0x8, addend: 0x0, symName: __ZNKSt3__111__wrap_iterIPN6SorterINS_12basic_stringIcNS_11char_traitsIcEENS_9allocatorIcEEEEE9QueueNodeEEdeB7v160006Ev, symObjAddr: 0x5AF04, symBinAddr: 0x10005C5B4, symSize: 0x60 }
  - { offsetInCU: 0x3EEBF, offset: 0x3EEBF, size: 0x8, addend: 0x0, symName: __ZNSt3__111__wrap_iterIPN6SorterINS_12basic_stringIcNS_11char_traitsIcEENS_9allocatorIcEEEEE9QueueNodeEEmmB7v160006Ev, symObjAddr: 0x5AF64, symBinAddr: 0x10005C614, symSize: 0x68 }
  - { offsetInCU: 0x3EEE5, offset: 0x3EEE5, size: 0x8, addend: 0x0, symName: __ZNSt3__18_IterOpsINS_17_ClassicAlgPolicyEE11__iter_moveB7v160006IRNS_11__wrap_iterIPN6SorterINS_12basic_stringIcNS_11char_traitsIcEENS_9allocatorIcEEEEE9QueueNodeEEEEENS_9enable_ifIXsr12is_referenceIDTdeclsr3stdE7declvalIRT_EEEEE5valueEDTclsr3stdE4movedeclsr3stdE7declvalISJ_EEEEE4typeEOSI_, symObjAddr: 0x5AFCC, symBinAddr: 0x10005C67C, symSize: 0x28 }
  - { offsetInCU: 0x3EF11, offset: 0x3EF11, size: 0x8, addend: 0x0, symName: __ZN6SorterINSt3__112basic_stringIcNS0_11char_traitsIcEENS0_9allocatorIcEEEEE9QueueNodeaSEOS8_, symObjAddr: 0x5AFF4, symBinAddr: 0x10005C6A4, symSize: 0x114 }
  - { offsetInCU: 0x3EF42, offset: 0x3EF42, size: 0x8, addend: 0x0, symName: __ZNSt3__111__wrap_iterIPN6SorterINS_12basic_stringIcNS_11char_traitsIcEENS_9allocatorIcEEEEE9QueueNodeEEpLB7v160006El, symObjAddr: 0x5B108, symBinAddr: 0x10005C7B8, symSize: 0x78 }
  - { offsetInCU: 0x3EF76, offset: 0x3EF76, size: 0x8, addend: 0x0, symName: __ZNK6SorterINSt3__112basic_stringIcNS0_11char_traitsIcEENS0_9allocatorIcEEEEE9QueueNodegtERKS8_, symObjAddr: 0x5B180, symBinAddr: 0x10005C830, symSize: 0x30 }
  - { offsetInCU: 0x3EFAA, offset: 0x3EFAA, size: 0x8, addend: 0x0, symName: __ZNSt3__18_IterOpsINS_17_ClassicAlgPolicyEE25__validate_iter_referenceB7v160006IRNS_11__wrap_iterIPN6SorterINS_12basic_stringIcNS_11char_traitsIcEENS_9allocatorIcEEEEE9QueueNodeEEEEEvv, symObjAddr: 0x5B1E0, symBinAddr: 0x10005C890, symSize: 0x4 }
  - { offsetInCU: 0x3EFC8, offset: 0x3EFC8, size: 0x8, addend: 0x0, symName: __ZNSt3__16vectorIN6SorterINS_12basic_stringIcNS_11char_traitsIcEENS_9allocatorIcEEEEE9QueueNodeENS5_IS9_EEE11__make_iterB7v160006EPS9_, symObjAddr: 0x5B1E4, symBinAddr: 0x10005C894, symSize: 0x200 }
  - { offsetInCU: 0x3EFFF, offset: 0x3EFFF, size: 0x8, addend: 0x0, symName: __ZNSt3__111__wrap_iterIPN6SorterINS_12basic_stringIcNS_11char_traitsIcEENS_9allocatorIcEEEEE9QueueNodeEEC1B7v160006EPKvSA_, symObjAddr: 0x5B3E4, symBinAddr: 0x10005CA94, symSize: 0x3C }
  - { offsetInCU: 0x3F045, offset: 0x3F045, size: 0x8, addend: 0x0, symName: __ZNSt3__111__wrap_iterIPN6SorterINS_12basic_stringIcNS_11char_traitsIcEENS_9allocatorIcEEEEE9QueueNodeEEC2B7v160006EPKvSA_, symObjAddr: 0x5B420, symBinAddr: 0x10005CAD0, symSize: 0x74 }
  - { offsetInCU: 0x3F08B, offset: 0x3F08B, size: 0x8, addend: 0x0, symName: __ZN6SorterINSt3__112basic_stringIcNS0_11char_traitsIcEENS0_9allocatorIcEEEEE9QueueNodeC2ES6_i, symObjAddr: 0x5B494, symBinAddr: 0x10005CB44, symSize: 0xB4 }
  - { offsetInCU: 0x3F0D2, offset: 0x3F0D2, size: 0x8, addend: 0x0, symName: __ZN6SorterINSt3__112basic_stringIcNS0_11char_traitsIcEENS0_9allocatorIcEEEEE9QueueNodeD2Ev, symObjAddr: 0x5B548, symBinAddr: 0x10005CBF8, symSize: 0x2C }
  - { offsetInCU: 0x3F0FE, offset: 0x3F0FE, size: 0x8, addend: 0x0, symName: __ZNKSt3__16vectorIN6SorterINS_12basic_stringIcNS_11char_traitsIcEENS_9allocatorIcEEEEE9QueueNodeENS5_IS9_EEE5emptyB7v160006Ev, symObjAddr: 0x5B574, symBinAddr: 0x10005CC24, symSize: 0xB0 }
  - { offsetInCU: 0x3F124, offset: 0x3F124, size: 0x8, addend: 0x0, symName: __ZNKSt3__16vectorIN6SorterINS_12basic_stringIcNS_11char_traitsIcEENS_9allocatorIcEEEEE9QueueNodeENS5_IS9_EEE5frontB7v160006Ev, symObjAddr: 0x5B624, symBinAddr: 0x10005CCD4, symSize: 0x60 }
  - { offsetInCU: 0x3F14A, offset: 0x3F14A, size: 0x8, addend: 0x0, symName: __ZN6SorterINSt3__112basic_stringIcNS0_11char_traitsIcEENS0_9allocatorIcEEEEE9QueueNodeC2ERKS8_, symObjAddr: 0x5B684, symBinAddr: 0x10005CD34, symSize: 0x11C }
  - { offsetInCU: 0x3F17F, offset: 0x3F17F, size: 0x8, addend: 0x0, symName: __ZNSt3__16vectorIN6SorterINS_12basic_stringIcNS_11char_traitsIcEENS_9allocatorIcEEEEE9QueueNodeENS5_IS9_EEE8pop_backEv, symObjAddr: 0x5BB28, symBinAddr: 0x10005D1D8, symSize: 0x6C }
  - { offsetInCU: 0x3F1A7, offset: 0x3F1A7, size: 0x8, addend: 0x0, symName: __ZNSt3__111__wrap_iterIPN6SorterINS_12basic_stringIcNS_11char_traitsIcEENS_9allocatorIcEEEEE9QueueNodeEEppB7v160006Ev, symObjAddr: 0x5C680, symBinAddr: 0x10005DD30, symSize: 0x68 }
  - { offsetInCU: 0x3F1CD, offset: 0x3F1CD, size: 0x8, addend: 0x0, symName: __ZNSt3__16vectorIN6SorterINS_12basic_stringIcNS_11char_traitsIcEENS_9allocatorIcEEEEE9QueueNodeENS5_IS9_EEE17__destruct_at_endB7v160006EPS9_, symObjAddr: 0x5C6E8, symBinAddr: 0x10005DD98, symSize: 0x6C }
  - { offsetInCU: 0x3F211, offset: 0x3F211, size: 0x8, addend: 0x0, symName: __ZNSt3__16vectorIN6SorterINS_12basic_stringIcNS_11char_traitsIcEENS_9allocatorIcEEEEE9QueueNodeENS5_IS9_EEE27__invalidate_iterators_pastB7v160006EPS9_, symObjAddr: 0x5C754, symBinAddr: 0x10005DE04, symSize: 0x14 }
  - { offsetInCU: 0x3F248, offset: 0x3F248, size: 0x8, addend: 0x0, symName: __ZNSt3__16vectorIN6SorterINS_12basic_stringIcNS_11char_traitsIcEENS_9allocatorIcEEEEE9QueueNodeENS5_IS9_EEE22__base_destruct_at_endB7v160006EPS9_, symObjAddr: 0x5C768, symBinAddr: 0x10005DE18, symSize: 0x114 }
  - { offsetInCU: 0x3F28C, offset: 0x3F28C, size: 0x8, addend: 0x0, symName: __ZNSt3__16vectorIN6SorterINS_12basic_stringIcNS_11char_traitsIcEENS_9allocatorIcEEEEE9QueueNodeENS5_IS9_EEE9push_backB7v160006ERKS9_, symObjAddr: 0x5C87C, symBinAddr: 0x10005DF2C, symSize: 0xE0 }
  - { offsetInCU: 0x3F2C3, offset: 0x3F2C3, size: 0x8, addend: 0x0, symName: __ZNSt3__16vectorIN6SorterINS_12basic_stringIcNS_11char_traitsIcEENS_9allocatorIcEEEEE9QueueNodeENS5_IS9_EEE22__construct_one_at_endB7v160006IJRKS9_EEEvDpOT_, symObjAddr: 0x5C95C, symBinAddr: 0x10005E00C, symSize: 0x36C }
  - { offsetInCU: 0x3F318, offset: 0x3F318, size: 0x8, addend: 0x0, symName: __ZNSt3__16vectorIN6SorterINS_12basic_stringIcNS_11char_traitsIcEENS_9allocatorIcEEEEE9QueueNodeENS5_IS9_EEE21__push_back_slow_pathIRKS9_EEvOT_, symObjAddr: 0x5CCC8, symBinAddr: 0x10005E378, symSize: 0x3C0 }
  - { offsetInCU: 0x3F37D, offset: 0x3F37D, size: 0x8, addend: 0x0, symName: __ZNSt3__116allocator_traitsINS_9allocatorIN6SorterINS_12basic_stringIcNS_11char_traitsIcEENS1_IcEEEEE9QueueNodeEEEE9constructB7v160006IS9_JRKS9_EvEEvRSA_PT_DpOT0_, symObjAddr: 0x5D088, symBinAddr: 0x10005E738, symSize: 0x34 }
  - { offsetInCU: 0x3F3D4, offset: 0x3F3D4, size: 0x8, addend: 0x0, symName: __ZNSt3__19allocatorIN6SorterINS_12basic_stringIcNS_11char_traitsIcEENS0_IcEEEEE9QueueNodeEE9constructB7v160006IS8_JRKS8_EEEvPT_DpOT0_, symObjAddr: 0x5D0BC, symBinAddr: 0x10005E76C, symSize: 0x30 }
  - { offsetInCU: 0x3F42A, offset: 0x3F42A, size: 0x8, addend: 0x0, symName: __ZNSt3__114priority_queueIN6SorterINS_12basic_stringIcNS_11char_traitsIcEENS_9allocatorIcEEEEE9QueueNodeENS_6vectorIS9_NS5_IS9_EEEENS_7greaterIvEEED2Ev, symObjAddr: 0x5D0EC, symBinAddr: 0x10005E79C, symSize: 0x2C }
  - { offsetInCU: 0x3F457, offset: 0x3F457, size: 0x8, addend: 0x0, symName: __ZNSt3__16vectorIN6SorterINS_12basic_stringIcNS_11char_traitsIcEENS_9allocatorIcEEEEE9QueueNodeENS5_IS9_EEED1B7v160006Ev, symObjAddr: 0x5D118, symBinAddr: 0x10005E7C8, symSize: 0x2C }
  - { offsetInCU: 0x3F481, offset: 0x3F481, size: 0x8, addend: 0x0, symName: __ZNSt3__16vectorIN6SorterINS_12basic_stringIcNS_11char_traitsIcEENS_9allocatorIcEEEEE9QueueNodeENS5_IS9_EEED2B7v160006Ev, symObjAddr: 0x5D144, symBinAddr: 0x10005E7F4, symSize: 0x1F8 }
  - { offsetInCU: 0x3F4AC, offset: 0x3F4AC, size: 0x8, addend: 0x0, symName: __ZNSt3__16vectorIN6SorterINS_12basic_stringIcNS_11char_traitsIcEENS_9allocatorIcEEEEE9QueueNodeENS5_IS9_EEE16__destroy_vectorC1ERSB_, symObjAddr: 0x5D33C, symBinAddr: 0x10005E9EC, symSize: 0x34 }
  - { offsetInCU: 0x3F4E5, offset: 0x3F4E5, size: 0x8, addend: 0x0, symName: __ZNSt3__16vectorIN6SorterINS_12basic_stringIcNS_11char_traitsIcEENS_9allocatorIcEEEEE9QueueNodeENS5_IS9_EEE16__destroy_vectorclB7v160006Ev, symObjAddr: 0x5D370, symBinAddr: 0x10005EA20, symSize: 0x264 }
  - { offsetInCU: 0x3F50B, offset: 0x3F50B, size: 0x8, addend: 0x0, symName: __ZNSt3__16vectorIN6SorterINS_12basic_stringIcNS_11char_traitsIcEENS_9allocatorIcEEEEE9QueueNodeENS5_IS9_EEE16__destroy_vectorC2ERSB_, symObjAddr: 0x5D5D4, symBinAddr: 0x10005EC84, symSize: 0x70 }
  - { offsetInCU: 0x3F544, offset: 0x3F544, size: 0x8, addend: 0x0, symName: __ZNSt3__16vectorIN6SorterINS_12basic_stringIcNS_11char_traitsIcEENS_9allocatorIcEEEEE9QueueNodeENS5_IS9_EEE7__clearB7v160006Ev, symObjAddr: 0x5D654, symBinAddr: 0x10005ED04, symSize: 0x64 }
  - { offsetInCU: 0x3F56A, offset: 0x3F56A, size: 0x8, addend: 0x0, symName: __ZNSt3__16vectorINS_14basic_ifstreamIcNS_11char_traitsIcEEEENS_9allocatorIS4_EEED2B7v160006Ev, symObjAddr: 0x5D6B8, symBinAddr: 0x10005ED68, symSize: 0x1F8 }
  - { offsetInCU: 0x3F595, offset: 0x3F595, size: 0x8, addend: 0x0, symName: '__ZNSt3__16vectorINS_6threadENS_9allocatorIS1_EEE22__construct_one_at_endB7v160006IJZ4mainE3$_1EEEvDpOT_', symObjAddr: 0x5D8B0, symBinAddr: 0x10005EF60, symSize: 0x36C }
  - { offsetInCU: 0x3F5EA, offset: 0x3F5EA, size: 0x8, addend: 0x0, symName: '__ZNSt3__16vectorINS_6threadENS_9allocatorIS1_EEE24__emplace_back_slow_pathIJZ4mainE3$_1EEEvDpOT_', symObjAddr: 0x5DC1C, symBinAddr: 0x10005F2CC, symSize: 0x3C0 }
  - { offsetInCU: 0x3F651, offset: 0x3F651, size: 0x8, addend: 0x0, symName: '__ZNSt3__116allocator_traitsINS_9allocatorINS_6threadEEEE9constructB7v160006IS2_JZ4mainE3$_1EvEEvRS3_PT_DpOT0_', symObjAddr: 0x5DFDC, symBinAddr: 0x10005F68C, symSize: 0x34 }
  - { offsetInCU: 0x3F6A8, offset: 0x3F6A8, size: 0x8, addend: 0x0, symName: '__ZNSt3__19allocatorINS_6threadEE9constructB7v160006IS1_JZ4mainE3$_1EEEvPT_DpOT0_', symObjAddr: 0x5E010, symBinAddr: 0x10005F6C0, symSize: 0x30 }
  - { offsetInCU: 0x3F6FE, offset: 0x3F6FE, size: 0x8, addend: 0x0, symName: '__ZNSt3__16threadC1IZ4mainE3$_1JEvEEOT_DpOT0_', symObjAddr: 0x5E040, symBinAddr: 0x10005F6F0, symSize: 0x34 }
  - { offsetInCU: 0x3F746, offset: 0x3F746, size: 0x8, addend: 0x0, symName: '__ZNSt3__16threadC2IZ4mainE3$_1JEvEEOT_DpOT0_', symObjAddr: 0x5E074, symBinAddr: 0x10005F724, symSize: 0x3E4 }
  - { offsetInCU: 0x3F7CC, offset: 0x3F7CC, size: 0x8, addend: 0x0, symName: '__ZNSt3__15tupleIJNS_10unique_ptrINS_15__thread_structENS_14default_deleteIS2_EEEEZ4mainE3$_1EEC1B7v160006IJS5_S6_ELi0EEEDpOT_', symObjAddr: 0x5E458, symBinAddr: 0x10005FB08, symSize: 0x3C }
  - { offsetInCU: 0x3F8D1, offset: 0x3F8D1, size: 0x8, addend: 0x0, symName: '__ZNSt3__110unique_ptrINS_5tupleIJNS0_INS_15__thread_structENS_14default_deleteIS2_EEEEZ4mainE3$_1EEENS3_IS7_EEEC1B7v160006ILb1EvEEPS7_', symObjAddr: 0x5E494, symBinAddr: 0x10005FB44, symSize: 0x34 }
  - { offsetInCU: 0x3F914, offset: 0x3F914, size: 0x8, addend: 0x0, symName: '__ZNKSt3__110unique_ptrINS_5tupleIJNS0_INS_15__thread_structENS_14default_deleteIS2_EEEEZ4mainE3$_1EEENS3_IS7_EEE3getB7v160006Ev', symObjAddr: 0x5E77C, symBinAddr: 0x10005FE2C, symSize: 0x6C }
  - { offsetInCU: 0x3F93A, offset: 0x3F93A, size: 0x8, addend: 0x0, symName: '__ZNSt3__110unique_ptrINS_5tupleIJNS0_INS_15__thread_structENS_14default_deleteIS2_EEEEZ4mainE3$_1EEENS3_IS7_EEE7releaseB7v160006Ev', symObjAddr: 0x5E7E8, symBinAddr: 0x10005FE98, symSize: 0xB8 }
  - { offsetInCU: 0x3F96F, offset: 0x3F96F, size: 0x8, addend: 0x0, symName: '__ZNSt3__110unique_ptrINS_5tupleIJNS0_INS_15__thread_structENS_14default_deleteIS2_EEEEZ4mainE3$_1EEENS3_IS7_EEED1B7v160006Ev', symObjAddr: 0x5E8A0, symBinAddr: 0x10005FF50, symSize: 0x2C }
  - { offsetInCU: 0x3F999, offset: 0x3F999, size: 0x8, addend: 0x0, symName: '__ZNSt3__15tupleIJNS_10unique_ptrINS_15__thread_structENS_14default_deleteIS2_EEEEZ4mainE3$_1EEC2B7v160006IJS5_S6_ELi0EEEDpOT_', symObjAddr: 0x5E8CC, symBinAddr: 0x10005FF7C, symSize: 0x3C }
  - { offsetInCU: 0x3F9F7, offset: 0x3F9F7, size: 0x8, addend: 0x0, symName: '__ZNSt3__112__tuple_implINS_15__tuple_indicesIJLm0ELm1EEEEJNS_10unique_ptrINS_15__thread_structENS_14default_deleteIS4_EEEEZ4mainE3$_1EEC1B7v160006IJLm0ELm1EEJS7_S8_EJEJEJS7_S8_EEENS1_IJXspT_EEEENS_13__tuple_typesIJDpT0_EEENS1_IJXspT1_EEEENSC_IJDpT2_EEEDpOT3_', symObjAddr: 0x5E908, symBinAddr: 0x10005FFB8, symSize: 0x3C }
  - { offsetInCU: 0x3FAAB, offset: 0x3FAAB, size: 0x8, addend: 0x0, symName: '__ZNSt3__112__tuple_implINS_15__tuple_indicesIJLm0ELm1EEEEJNS_10unique_ptrINS_15__thread_structENS_14default_deleteIS4_EEEEZ4mainE3$_1EEC2B7v160006IJLm0ELm1EEJS7_S8_EJEJEJS7_S8_EEENS1_IJXspT_EEEENS_13__tuple_typesIJDpT0_EEENS1_IJXspT1_EEEENSC_IJDpT2_EEEDpOT3_', symObjAddr: 0x5E944, symBinAddr: 0x10005FFF4, symSize: 0x48 }
  - { offsetInCU: 0x3FB5F, offset: 0x3FB5F, size: 0x8, addend: 0x0, symName: '__ZNSt3__112__tuple_leafILm1EZ4mainE3$_1Lb0EEC2B7v160006IS1_vEEOT_', symObjAddr: 0x5E98C, symBinAddr: 0x10006003C, symSize: 0x34 }
  - { offsetInCU: 0x3FBA2, offset: 0x3FBA2, size: 0x8, addend: 0x0, symName: '__ZZ4mainEN3$_1C1EOS_', symObjAddr: 0x5E9C0, symBinAddr: 0x100060070, symSize: 0x34 }
  - { offsetInCU: 0x3FBD8, offset: 0x3FBD8, size: 0x8, addend: 0x0, symName: '__ZZ4mainEN3$_1C2EOS_', symObjAddr: 0x5E9F4, symBinAddr: 0x1000600A4, symSize: 0x4C }
  - { offsetInCU: 0x3FC0E, offset: 0x3FC0E, size: 0x8, addend: 0x0, symName: '__ZNSt3__110unique_ptrINS_5tupleIJNS0_INS_15__thread_structENS_14default_deleteIS2_EEEEZ4mainE3$_1EEENS3_IS7_EEEC2B7v160006ILb1EvEEPS7_', symObjAddr: 0x5EA40, symBinAddr: 0x1000600F0, symSize: 0x260 }
  - { offsetInCU: 0x3FC56, offset: 0x3FC56, size: 0x8, addend: 0x0, symName: '__ZNSt3__117__compressed_pairIPNS_5tupleIJNS_10unique_ptrINS_15__thread_structENS_14default_deleteIS3_EEEEZ4mainE3$_1EEENS4_IS8_EEEC1B7v160006IRS9_NS_16__value_init_tagEEEOT_OT0_', symObjAddr: 0x5ECA0, symBinAddr: 0x100060350, symSize: 0x3C }
  - { offsetInCU: 0x3FCAE, offset: 0x3FCAE, size: 0x8, addend: 0x0, symName: '__ZNSt3__117__compressed_pairIPNS_5tupleIJNS_10unique_ptrINS_15__thread_structENS_14default_deleteIS3_EEEEZ4mainE3$_1EEENS4_IS8_EEEC2B7v160006IRS9_NS_16__value_init_tagEEEOT_OT0_', symObjAddr: 0x5ECDC, symBinAddr: 0x10006038C, symSize: 0x40 }
  - { offsetInCU: 0x3FD06, offset: 0x3FD06, size: 0x8, addend: 0x0, symName: '__ZNSt3__122__compressed_pair_elemIPNS_5tupleIJNS_10unique_ptrINS_15__thread_structENS_14default_deleteIS3_EEEEZ4mainE3$_1EEELi0ELb0EEC2B7v160006IRS9_vEEOT_', symObjAddr: 0x5ED1C, symBinAddr: 0x1000603CC, symSize: 0xB0 }
  - { offsetInCU: 0x3FD48, offset: 0x3FD48, size: 0x8, addend: 0x0, symName: '__ZNSt3__122__compressed_pair_elemINS_14default_deleteINS_5tupleIJNS_10unique_ptrINS_15__thread_structENS1_IS4_EEEEZ4mainE3$_1EEEEELi1ELb1EEC2B7v160006ENS_16__value_init_tagE', symObjAddr: 0x5EDCC, symBinAddr: 0x10006047C, symSize: 0x14 }
  - { offsetInCU: 0x3FD82, offset: 0x3FD82, size: 0x8, addend: 0x0, symName: '__ZZ4mainENK3$_1clEv', symObjAddr: 0x5EE78, symBinAddr: 0x100060528, symSize: 0x7D0 }
  - { offsetInCU: 0x3FF4F, offset: 0x3FF4F, size: 0x8, addend: 0x0, symName: __ZN16WordCountReducerINSt3__112basic_stringIcNS0_11char_traitsIcEENS0_9allocatorIcEEEEiS6_iEC1Ei, symObjAddr: 0x5F648, symBinAddr: 0x100060CF8, symSize: 0x34 }
  - { offsetInCU: 0x3FF87, offset: 0x3FF87, size: 0x8, addend: 0x0, symName: __ZN7ReducerINSt3__112basic_stringIcNS0_11char_traitsIcEENS0_9allocatorIcEEEEiS6_iE13setOutputPathES6_, symObjAddr: 0x5F67C, symBinAddr: 0x100060D2C, symSize: 0x29C }
  - { offsetInCU: 0x3FFBE, offset: 0x3FFBE, size: 0x8, addend: 0x0, symName: __ZN11PartitionerINSt3__112basic_stringIcNS0_11char_traitsIcEENS0_9allocatorIcEEEEiE11getFilePathERKS6_, symObjAddr: 0x5F918, symBinAddr: 0x100060FC8, symSize: 0x48 }
  - { offsetInCU: 0x3FFF2, offset: 0x3FFF2, size: 0x8, addend: 0x0, symName: __ZN16WordCountReducerINSt3__112basic_stringIcNS0_11char_traitsIcEENS0_9allocatorIcEEEEiS6_iE6reduceERKS6_RKNS0_6vectorIiNS4_IiEEEE, symObjAddr: 0x5F960, symBinAddr: 0x100061010, symSize: 0x48C }
  - { offsetInCU: 0x400A5, offset: 0x400A5, size: 0x8, addend: 0x0, symName: __ZN16WordCountReducerINSt3__112basic_stringIcNS0_11char_traitsIcEENS0_9allocatorIcEEEEiS6_iED1Ev, symObjAddr: 0x5FDEC, symBinAddr: 0x10006149C, symSize: 0x2C }
  - { offsetInCU: 0x400D1, offset: 0x400D1, size: 0x8, addend: 0x0, symName: __ZN16WordCountReducerINSt3__112basic_stringIcNS0_11char_traitsIcEENS0_9allocatorIcEEEEiS6_iEC2Ei, symObjAddr: 0x5FE18, symBinAddr: 0x1000614C8, symSize: 0x8C }
  - { offsetInCU: 0x40109, offset: 0x40109, size: 0x8, addend: 0x0, symName: __ZN7ReducerINSt3__112basic_stringIcNS0_11char_traitsIcEENS0_9allocatorIcEEEEiS6_iEC2Ei, symObjAddr: 0x5FEA4, symBinAddr: 0x100061554, symSize: 0x88 }
  - { offsetInCU: 0x40141, offset: 0x40141, size: 0x8, addend: 0x0, symName: __ZN16WordCountReducerINSt3__112basic_stringIcNS0_11char_traitsIcEENS0_9allocatorIcEEEEiS6_iED2Ev, symObjAddr: 0x5FF2C, symBinAddr: 0x1000615DC, symSize: 0x2C }
  - { offsetInCU: 0x4016D, offset: 0x4016D, size: 0x8, addend: 0x0, symName: __ZN7ReducerINSt3__112basic_stringIcNS0_11char_traitsIcEENS0_9allocatorIcEEEEiS6_iED2Ev, symObjAddr: 0x5FF58, symBinAddr: 0x100061608, symSize: 0x80 }
  - { offsetInCU: 0x40199, offset: 0x40199, size: 0x8, addend: 0x0, symName: '__ZNSt3__112__tuple_leafILm1EZ4mainE3$_1Lb0EE3getB7v160006Ev', symObjAddr: 0x5FFD8, symBinAddr: 0x100061688, symSize: 0x14 }
  - { offsetInCU: 0x401BF, offset: 0x401BF, size: 0x8, addend: 0x0, symName: '__ZNKSt3__117__compressed_pairIPNS_5tupleIJNS_10unique_ptrINS_15__thread_structENS_14default_deleteIS3_EEEEZ4mainE3$_1EEENS4_IS8_EEE5firstB7v160006Ev', symObjAddr: 0x5FFEC, symBinAddr: 0x10006169C, symSize: 0x24 }
  - { offsetInCU: 0x401E5, offset: 0x401E5, size: 0x8, addend: 0x0, symName: '__ZNKSt3__122__compressed_pair_elemIPNS_5tupleIJNS_10unique_ptrINS_15__thread_structENS_14default_deleteIS3_EEEEZ4mainE3$_1EEELi0ELb0EE5__getB7v160006Ev', symObjAddr: 0x60010, symBinAddr: 0x1000616C0, symSize: 0x14 }
  - { offsetInCU: 0x4020B, offset: 0x4020B, size: 0x8, addend: 0x0, symName: '__ZNSt3__117__compressed_pairIPNS_5tupleIJNS_10unique_ptrINS_15__thread_structENS_14default_deleteIS3_EEEEZ4mainE3$_1EEENS4_IS8_EEE5firstB7v160006Ev', symObjAddr: 0x60024, symBinAddr: 0x1000616D4, symSize: 0x24 }
  - { offsetInCU: 0x40231, offset: 0x40231, size: 0x8, addend: 0x0, symName: '__ZNSt3__122__compressed_pair_elemIPNS_5tupleIJNS_10unique_ptrINS_15__thread_structENS_14default_deleteIS3_EEEEZ4mainE3$_1EEELi0ELb0EE5__getB7v160006Ev', symObjAddr: 0x60048, symBinAddr: 0x1000616F8, symSize: 0x14 }
  - { offsetInCU: 0x40257, offset: 0x40257, size: 0x8, addend: 0x0, symName: '__ZNSt3__110unique_ptrINS_5tupleIJNS0_INS_15__thread_structENS_14default_deleteIS2_EEEEZ4mainE3$_1EEENS3_IS7_EEED2B7v160006Ev', symObjAddr: 0x6005C, symBinAddr: 0x10006170C, symSize: 0x30 }
  - { offsetInCU: 0x40281, offset: 0x40281, size: 0x8, addend: 0x0, symName: '__ZNSt3__110unique_ptrINS_5tupleIJNS0_INS_15__thread_structENS_14default_deleteIS2_EEEEZ4mainE3$_1EEENS3_IS7_EEE5resetB7v160006EPS7_', symObjAddr: 0x6008C, symBinAddr: 0x10006173C, symSize: 0xEC }
  - { offsetInCU: 0x402C5, offset: 0x402C5, size: 0x8, addend: 0x0, symName: '__ZNSt3__117__compressed_pairIPNS_5tupleIJNS_10unique_ptrINS_15__thread_structENS_14default_deleteIS3_EEEEZ4mainE3$_1EEENS4_IS8_EEE6secondB7v160006Ev', symObjAddr: 0x60178, symBinAddr: 0x100061828, symSize: 0x24 }
  - { offsetInCU: 0x402EB, offset: 0x402EB, size: 0x8, addend: 0x0, symName: '__ZNKSt3__114default_deleteINS_5tupleIJNS_10unique_ptrINS_15__thread_structENS0_IS3_EEEEZ4mainE3$_1EEEEclB7v160006EPS7_', symObjAddr: 0x6019C, symBinAddr: 0x10006184C, symSize: 0x4C }
  - { offsetInCU: 0x4031F, offset: 0x4031F, size: 0x8, addend: 0x0, symName: '__ZNSt3__122__compressed_pair_elemINS_14default_deleteINS_5tupleIJNS_10unique_ptrINS_15__thread_structENS1_IS4_EEEEZ4mainE3$_1EEEEELi1ELb1EE5__getB7v160006Ev', symObjAddr: 0x601E8, symBinAddr: 0x100061898, symSize: 0x14 }
  - { offsetInCU: 0x40345, offset: 0x40345, size: 0x8, addend: 0x0, symName: '__ZNSt3__15tupleIJNS_10unique_ptrINS_15__thread_structENS_14default_deleteIS2_EEEEZ4mainE3$_1EED1Ev', symObjAddr: 0x601FC, symBinAddr: 0x1000618AC, symSize: 0x2C }
  - { offsetInCU: 0x40372, offset: 0x40372, size: 0x8, addend: 0x0, symName: '__ZNSt3__15tupleIJNS_10unique_ptrINS_15__thread_structENS_14default_deleteIS2_EEEEZ4mainE3$_1EED2Ev', symObjAddr: 0x60228, symBinAddr: 0x1000618D8, symSize: 0x2C }
  - { offsetInCU: 0x4039F, offset: 0x4039F, size: 0x8, addend: 0x0, symName: '__ZNSt3__112__tuple_implINS_15__tuple_indicesIJLm0ELm1EEEEJNS_10unique_ptrINS_15__thread_structENS_14default_deleteIS4_EEEEZ4mainE3$_1EED1Ev', symObjAddr: 0x60254, symBinAddr: 0x100061904, symSize: 0x2C }
  - { offsetInCU: 0x403CC, offset: 0x403CC, size: 0x8, addend: 0x0, symName: '__ZNSt3__112__tuple_implINS_15__tuple_indicesIJLm0ELm1EEEEJNS_10unique_ptrINS_15__thread_structENS_14default_deleteIS4_EEEEZ4mainE3$_1EED2Ev', symObjAddr: 0x60280, symBinAddr: 0x100061930, symSize: 0x38 }
  - { offsetInCU: 0x403F9, offset: 0x403F9, size: 0x8, addend: 0x0, symName: '__ZNSt3__112__tuple_leafILm1EZ4mainE3$_1Lb0EED2Ev', symObjAddr: 0x602B8, symBinAddr: 0x100061968, symSize: 0x2C }
  - { offsetInCU: 0x40426, offset: 0x40426, size: 0x8, addend: 0x0, symName: __ZNSt3__14__fs10filesystem4pathC2B7v160006INS_12basic_stringIcNS_11char_traitsIcEENS_9allocatorIcEEEEvEERKT_NS2_6formatE, symObjAddr: 0x602E4, symBinAddr: 0x100061994, symSize: 0x68 }
  - { offsetInCU: 0x4047B, offset: 0x4047B, size: 0x8, addend: 0x0, symName: __ZNSt3__14__fs10filesystem8_PathCVTIcE15__append_sourceB7v160006INS_12basic_stringIcNS_11char_traitsIcEENS_9allocatorIcEEEEEEvRSA_RKT_, symObjAddr: 0x6034C, symBinAddr: 0x1000619FC, symSize: 0x4C }
  - { offsetInCU: 0x404B7, offset: 0x404B7, size: 0x8, addend: 0x0, symName: __ZNSt3__14__fs10filesystem8_PathCVTIcE14__append_rangeB7v160006IPKcEENS_9enable_ifIXsr27__is_cpp17_forward_iteratorIT_EE5valueEvE4typeERNS_12basic_stringIcNS_11char_traitsIcEENS_9allocatorIcEEEES8_S8_, symObjAddr: 0x60398, symBinAddr: 0x100061A48, symSize: 0x34 }
  - { offsetInCU: 0x4050D, offset: 0x4050D, size: 0x8, addend: 0x0, symName: __ZNSt3__14__fs10filesystem20__is_pathable_stringINS_12basic_stringIcNS_11char_traitsIcEENS_9allocatorIcEEEEvE13__range_beginB7v160006ERKS8_, symObjAddr: 0x603CC, symBinAddr: 0x100061A7C, symSize: 0x24 }
  - { offsetInCU: 0x40530, offset: 0x40530, size: 0x8, addend: 0x0, symName: __ZNSt3__14__fs10filesystem20__is_pathable_stringINS_12basic_stringIcNS_11char_traitsIcEENS_9allocatorIcEEEEvE11__range_endB7v160006ERKS8_, symObjAddr: 0x603F0, symBinAddr: 0x100061AA0, symSize: 0x3C }
  - { offsetInCU: 0x40553, offset: 0x40553, size: 0x8, addend: 0x0, symName: __ZNSt3__112basic_stringIcNS_11char_traitsIcEENS_9allocatorIcEEE6appendB7v160006IPKcEENS_9enable_ifIXsr27__is_cpp17_forward_iteratorIT_EE5valueERS5_E4typeESA_SA_, symObjAddr: 0x6042C, symBinAddr: 0x100061ADC, symSize: 0x4E0 }
  - { offsetInCU: 0x4060D, offset: 0x4060D, size: 0x8, addend: 0x0, symName: __ZNKSt3__112basic_stringIcNS_11char_traitsIcEENS_9allocatorIcEEE8capacityB7v160006Ev, symObjAddr: 0x6090C, symBinAddr: 0x100061FBC, symSize: 0x54 }
  - { offsetInCU: 0x40633, offset: 0x40633, size: 0x8, addend: 0x0, symName: __ZNKSt3__112basic_stringIcNS_11char_traitsIcEENS_9allocatorIcEEE15__addr_in_rangeB7v160006IRKcEEbOT_, symObjAddr: 0x6098C, symBinAddr: 0x10006203C, symSize: 0x98 }
  - { offsetInCU: 0x40680, offset: 0x40680, size: 0x8, addend: 0x0, symName: __ZNSt3__112basic_stringIcNS_11char_traitsIcEENS_9allocatorIcEEE10__set_sizeB7v160006Em, symObjAddr: 0x60A24, symBinAddr: 0x1000620D4, symSize: 0x54 }
  - { offsetInCU: 0x406B5, offset: 0x406B5, size: 0x8, addend: 0x0, symName: __ZNSt3__112basic_stringIcNS_11char_traitsIcEENS_9allocatorIcEEEC1B7v160006IPKcvEET_S9_RKS4_, symObjAddr: 0x60A78, symBinAddr: 0x100062128, symSize: 0x44 }
  - { offsetInCU: 0x40716, offset: 0x40716, size: 0x8, addend: 0x0, symName: __ZNSt3__112basic_stringIcNS_11char_traitsIcEENS_9allocatorIcEEEC2B7v160006IPKcvEET_S9_RKS4_, symObjAddr: 0x60ADC, symBinAddr: 0x10006218C, symSize: 0x200 }
  - { offsetInCU: 0x4077B, offset: 0x4077B, size: 0x8, addend: 0x0, symName: __ZNSt3__117__compressed_pairINS_12basic_stringIcNS_11char_traitsIcEENS_9allocatorIcEEE5__repES5_EC1B7v160006INS_18__default_init_tagERKS5_EEOT_OT0_, symObjAddr: 0x60CDC, symBinAddr: 0x10006238C, symSize: 0x3C }
  - { offsetInCU: 0x407D3, offset: 0x407D3, size: 0x8, addend: 0x0, symName: __ZNSt3__112basic_stringIcNS_11char_traitsIcEENS_9allocatorIcEEE6__initIPKcEENS_9enable_ifIXsr27__is_cpp17_forward_iteratorIT_EE5valueEvE4typeESA_SA_, symObjAddr: 0x60D18, symBinAddr: 0x1000623C8, symSize: 0x4A0 }
  - { offsetInCU: 0x40867, offset: 0x40867, size: 0x8, addend: 0x0, symName: __ZNSt3__117__compressed_pairINS_12basic_stringIcNS_11char_traitsIcEENS_9allocatorIcEEE5__repES5_EC2B7v160006INS_18__default_init_tagERKS5_EEOT_OT0_, symObjAddr: 0x611B8, symBinAddr: 0x100062868, symSize: 0x40 }
  - { offsetInCU: 0x408BF, offset: 0x408BF, size: 0x8, addend: 0x0, symName: __ZNSt3__122__compressed_pair_elemINS_9allocatorIcEELi1ELb1EEC2B7v160006IRKS2_vEEOT_, symObjAddr: 0x611F8, symBinAddr: 0x1000628A8, symSize: 0x18 }
  - { offsetInCU: 0x40901, offset: 0x40901, size: 0x8, addend: 0x0, symName: __ZNKSt3__112basic_stringIcNS_11char_traitsIcEENS_9allocatorIcEEE20__throw_length_errorB7v160006Ev, symObjAddr: 0x61210, symBinAddr: 0x1000628C0, symSize: 0x20 }
  - { offsetInCU: 0x40927, offset: 0x40927, size: 0x8, addend: 0x0, symName: __ZNSt3__112basic_stringIcNS_11char_traitsIcEENS_9allocatorIcEEE13__fits_in_ssoB7v160006Em, symObjAddr: 0x61230, symBinAddr: 0x1000628E0, symSize: 0x20 }
  - { offsetInCU: 0x4094B, offset: 0x4094B, size: 0x8, addend: 0x0, symName: __ZNSt3__112basic_stringIcNS_11char_traitsIcEENS_9allocatorIcEEE11__recommendB7v160006Em, symObjAddr: 0x614DC, symBinAddr: 0x100062B8C, symSize: 0x84 }
  - { offsetInCU: 0x4097E, offset: 0x4097E, size: 0x8, addend: 0x0, symName: __ZNSt3__112basic_stringIcNS_11char_traitsIcEENS_9allocatorIcEEE16__begin_lifetimeB7v160006EPcm, symObjAddr: 0x61560, symBinAddr: 0x100062C10, symSize: 0x14 }
  - { offsetInCU: 0x409B1, offset: 0x409B1, size: 0x8, addend: 0x0, symName: __ZNSt3__112basic_stringIcNS_11char_traitsIcEENS_9allocatorIcEEE18__set_long_pointerB7v160006EPc, symObjAddr: 0x61574, symBinAddr: 0x100062C24, symSize: 0x7C }
  - { offsetInCU: 0x409E6, offset: 0x409E6, size: 0x8, addend: 0x0, symName: __ZNSt3__112basic_stringIcNS_11char_traitsIcEENS_9allocatorIcEEE14__set_long_capB7v160006Em, symObjAddr: 0x615F0, symBinAddr: 0x100062CA0, symSize: 0xEC }
  - { offsetInCU: 0x40A1B, offset: 0x40A1B, size: 0x8, addend: 0x0, symName: __ZNSt3__19allocatorIcE8allocateB7v160006Em, symObjAddr: 0x616DC, symBinAddr: 0x100062D8C, symSize: 0x5C }
  - { offsetInCU: 0x40A4F, offset: 0x40A4F, size: 0x8, addend: 0x0, symName: __ZNSt3__112basic_stringIcNS_11char_traitsIcEENS_9allocatorIcEEE10__align_itB7v160006ILm16EEEmm, symObjAddr: 0x61738, symBinAddr: 0x100062DE8, symSize: 0x1C }
  - { offsetInCU: 0x40A7D, offset: 0x40A7D, size: 0x8, addend: 0x0, symName: __ZNKSt3__112basic_stringIcNS_11char_traitsIcEENS_9allocatorIcEEE6lengthB7v160006Ev, symObjAddr: 0x61754, symBinAddr: 0x100062E04, symSize: 0x24 }
  - { offsetInCU: 0x40AA3, offset: 0x40AA3, size: 0x8, addend: 0x0, symName: __ZNSt3__112basic_stringIcNS_11char_traitsIcEENS_9allocatorIcEEE15__make_iteratorB7v160006EPc, symObjAddr: 0x61778, symBinAddr: 0x100062E28, symSize: 0x200 }
  - { offsetInCU: 0x40ADA, offset: 0x40ADA, size: 0x8, addend: 0x0, symName: __ZNSt3__111__wrap_iterIPcEC1B7v160006EPKvS1_, symObjAddr: 0x61978, symBinAddr: 0x100063028, symSize: 0x3C }
  - { offsetInCU: 0x40B20, offset: 0x40B20, size: 0x8, addend: 0x0, symName: __ZNSt3__111__wrap_iterIPcEC2B7v160006EPKvS1_, symObjAddr: 0x619B4, symBinAddr: 0x100063064, symSize: 0x74 }
  - { offsetInCU: 0x40B66, offset: 0x40B66, size: 0x8, addend: 0x0, symName: __ZNSt3__114basic_iostreamIcNS_11char_traitsIcEEEC2B7v160006EPNS_15basic_streambufIcS2_EE, symObjAddr: 0x61A28, symBinAddr: 0x1000630D8, symSize: 0x254 }
  - { offsetInCU: 0x40BAC, offset: 0x40BAC, size: 0x8, addend: 0x0, symName: __ZNSt3__115basic_stringbufIcNS_11char_traitsIcEENS_9allocatorIcEEEC1B7v160006ERKNS_12basic_stringIcS2_S4_EEj, symObjAddr: 0x61C7C, symBinAddr: 0x10006332C, symSize: 0x3C }
  - { offsetInCU: 0x40BF2, offset: 0x40BF2, size: 0x8, addend: 0x0, symName: __ZNSt3__113basic_ostreamIcNS_11char_traitsIcEEEC2B7v160006Ev, symObjAddr: 0x61CB8, symBinAddr: 0x100063368, symSize: 0x17C }
  - { offsetInCU: 0x40C29, offset: 0x40C29, size: 0x8, addend: 0x0, symName: __ZNSt3__115basic_stringbufIcNS_11char_traitsIcEENS_9allocatorIcEEEC2B7v160006ERKNS_12basic_stringIcS2_S4_EEj, symObjAddr: 0x61E34, symBinAddr: 0x1000634E4, symSize: 0x398 }
  - { offsetInCU: 0x40C72, offset: 0x40C72, size: 0x8, addend: 0x0, symName: __ZNKSt3__112basic_stringIcNS_11char_traitsIcEENS_9allocatorIcEEE13get_allocatorB7v160006Ev, symObjAddr: 0x621CC, symBinAddr: 0x10006387C, symSize: 0x24 }
  - { offsetInCU: 0x40C98, offset: 0x40C98, size: 0x8, addend: 0x0, symName: __ZNSt3__112basic_stringIcNS_11char_traitsIcEENS_9allocatorIcEEEC1B7v160006ERKS4_, symObjAddr: 0x621F0, symBinAddr: 0x1000638A0, symSize: 0x34 }
  - { offsetInCU: 0x40CD1, offset: 0x40CD1, size: 0x8, addend: 0x0, symName: __ZNSt3__112basic_stringIcNS_11char_traitsIcEENS_9allocatorIcEEEC2B7v160006ERKS4_, symObjAddr: 0x62224, symBinAddr: 0x1000638D4, symSize: 0x204 }
  - { offsetInCU: 0x40D0C, offset: 0x40D0C, size: 0x8, addend: 0x0, symName: __ZNSt3__115basic_streambufIcNS_11char_traitsIcEEE5sgetcB7v160006Ev, symObjAddr: 0x62428, symBinAddr: 0x100063AD8, symSize: 0x1E4 }
  - { offsetInCU: 0x40D32, offset: 0x40D32, size: 0x8, addend: 0x0, symName: __ZNKSt3__15ctypeIcE2isB7v160006Ejc, symObjAddr: 0x6260C, symBinAddr: 0x100063CBC, symSize: 0x120 }
  - { offsetInCU: 0x40D76, offset: 0x40D76, size: 0x8, addend: 0x0, symName: __Z7isasciii, symObjAddr: 0x6272C, symBinAddr: 0x100063DDC, symSize: 0x24 }
  - { offsetInCU: 0x40DA3, offset: 0x40DA3, size: 0x8, addend: 0x0, symName: __ZNSt3__113basic_ostreamIcNS_11char_traitsIcEEEC2B7v160006EPNS_15basic_streambufIcS2_EE, symObjAddr: 0x62750, symBinAddr: 0x100063E00, symSize: 0x1D4 }
  - { offsetInCU: 0x40DE8, offset: 0x40DE8, size: 0x8, addend: 0x0, symName: __ZNKSt3__18ios_base3eofB7v160006Ev, symObjAddr: 0x62924, symBinAddr: 0x100063FD4, symSize: 0x98 }
...
